ARM GAS  C:\Users\Pablo\AppData\Local\Temp\ccAWb0ap.s 			page 1


   1              		.cpu cortex-m0
   2              		.fpu softvfp
   3              		.eabi_attribute 20, 1
   4              		.eabi_attribute 21, 1
   5              		.eabi_attribute 23, 3
   6              		.eabi_attribute 24, 1
   7              		.eabi_attribute 25, 1
   8              		.eabi_attribute 26, 1
   9              		.eabi_attribute 30, 4
  10              		.eabi_attribute 34, 0
  11              		.eabi_attribute 18, 4
  12              		.code	16
  13              		.file	"main.c"
  14              		.text
  15              	.Ltext0:
  16              		.cfi_sections	.debug_frame
  17              		.section	.text.startup.main,"ax",%progbits
  18              		.align	1
  19              		.global	main
  20              		.code	16
  21              		.thumb_func
  22              		.type	main, %function
  23              	main:
  24              	.LFB33:
  25              		.file 1 ".\\main.c"
   1:.\main.c      **** /*
   2:.\main.c      **** 
   3:.\main.c      **** The MIT License (MIT)
   4:.\main.c      **** 
   5:.\main.c      **** Copyright (c) 2014 CAIMANICS (hola@caimanics.com)
   6:.\main.c      **** Author: Pablo Bacho (pablo.bacho@caimanics.com)
   7:.\main.c      **** 
   8:.\main.c      **** Permission is hereby granted, free of charge, to any person obtaining a copy
   9:.\main.c      **** of this software and associated documentation files (the "Software"), to deal
  10:.\main.c      **** in the Software without restriction, including without limitation the rights
  11:.\main.c      **** to use, copy, modify, merge, publish, distribute, sublicense, and/or sell
  12:.\main.c      **** copies of the Software, and to permit persons to whom the Software is
  13:.\main.c      **** furnished to do so, subject to the following conditions:
  14:.\main.c      **** 
  15:.\main.c      **** The above copyright notice and this permission notice shall be included in all
  16:.\main.c      **** copies or substantial portions of the Software.
  17:.\main.c      **** 
  18:.\main.c      **** THE SOFTWARE IS PROVIDED "AS IS", WITHOUT WARRANTY OF ANY KIND, EXPRESS OR
  19:.\main.c      **** IMPLIED, INCLUDING BUT NOT LIMITED TO THE WARRANTIES OF MERCHANTABILITY,
  20:.\main.c      **** FITNESS FOR A PARTICULAR PURPOSE AND NONINFRINGEMENT. IN NO EVENT SHALL THE
  21:.\main.c      **** AUTHORS OR COPYRIGHT HOLDERS BE LIABLE FOR ANY CLAIM, DAMAGES OR OTHER
  22:.\main.c      **** LIABILITY, WHETHER IN AN ACTION OF CONTRACT, TORT OR OTHERWISE, ARISING FROM,
  23:.\main.c      **** OUT OF OR IN CONNECTION WITH THE SOFTWARE OR THE USE OR OTHER DEALINGS IN THE
  24:.\main.c      **** SOFTWARE.
  25:.\main.c      **** 
  26:.\main.c      **** */
  27:.\main.c      **** 
  28:.\main.c      **** #include <project.h>
  29:.\main.c      **** 
  30:.\main.c      **** int main()
  31:.\main.c      **** {
  26              		.loc 1 31 0
ARM GAS  C:\Users\Pablo\AppData\Local\Temp\ccAWb0ap.s 			page 2


  27              		.cfi_startproc
  28 0000 08B5     		push	{r3, lr}
  29              		.cfi_def_cfa_offset 8
  30              		.cfi_offset 3, -8
  31              		.cfi_offset 14, -4
  32:.\main.c      ****     /* Short-circuit EN and VDD to start bootloader */
  33:.\main.c      ****     EN_Write(0);
  32              		.loc 1 33 0
  33 0002 0020     		mov	r0, #0
  34 0004 FFF7FEFF 		bl	EN_Write
  35              	.LVL0:
  34:.\main.c      ****     
  35:.\main.c      ****     if(EN_Read() != 0u) {
  36              		.loc 1 35 0
  37 0008 FFF7FEFF 		bl	EN_Read
  38              	.LVL1:
  39 000c 044B     		ldr	r3, .L6
  36:.\main.c      ****         Bootloader_SET_RUN_TYPE(Bootloader_START_BTLDR);
  40              		.loc 1 36 0
  41 000e 4022     		mov	r2, #64
  35:.\main.c      ****     if(EN_Read() != 0u) {
  42              		.loc 1 35 0
  43 0010 0028     		cmp	r0, #0
  44 0012 00D1     		bne	.L4
  37:.\main.c      ****     } else {
  38:.\main.c      ****         Bootloader_SET_RUN_TYPE(Bootloader_START_APP);
  45              		.loc 1 38 0
  46 0014 8022     		mov	r2, #128
  47              	.L4:
  48 0016 1A60     		str	r2, [r3]
  39:.\main.c      ****     }
  40:.\main.c      ****     
  41:.\main.c      ****     Bootloader_Start();
  42:.\main.c      **** }
  49              		.loc 1 42 0
  50              		@ sp needed
  41:.\main.c      ****     Bootloader_Start();
  51              		.loc 1 41 0
  52 0018 FFF7FEFF 		bl	Bootloader_Start
  53              	.LVL2:
  54              		.loc 1 42 0
  55 001c 08BD     		pop	{r3, pc}
  56              	.L7:
  57 001e C046     		.align	2
  58              	.L6:
  59 0020 00000000 		.word	cyBtldrRunType
  60              		.cfi_endproc
  61              	.LFE33:
  62              		.size	main, .-main
  63              		.section	.text.CyBtldrCommStart,"ax",%progbits
  64              		.align	1
  65              		.global	CyBtldrCommStart
  66              		.code	16
  67              		.thumb_func
  68              		.type	CyBtldrCommStart, %function
  69              	CyBtldrCommStart:
  70              	.LFB34:
ARM GAS  C:\Users\Pablo\AppData\Local\Temp\ccAWb0ap.s 			page 3


  43:.\main.c      **** 
  44:.\main.c      **** /**
  45:.\main.c      **** * SCB UART bootloader code by Arachnid:
  46:.\main.c      **** * https://gist.github.com/Arachnid/8069083
  47:.\main.c      **** */
  48:.\main.c      **** 
  49:.\main.c      **** void CyBtldrCommStart(void) {
  71              		.loc 1 49 0
  72              		.cfi_startproc
  73 0000 08B5     		push	{r3, lr}
  74              		.cfi_def_cfa_offset 8
  75              		.cfi_offset 3, -8
  76              		.cfi_offset 14, -4
  50:.\main.c      ****     UART_Start();
  77              		.loc 1 50 0
  78 0002 FFF7FEFF 		bl	UART_Start
  79              	.LVL3:
  51:.\main.c      **** }
  80              		.loc 1 51 0
  81              		@ sp needed
  82 0006 08BD     		pop	{r3, pc}
  83              		.cfi_endproc
  84              	.LFE34:
  85              		.size	CyBtldrCommStart, .-CyBtldrCommStart
  86              		.section	.text.CyBtldrCommStop,"ax",%progbits
  87              		.align	1
  88              		.global	CyBtldrCommStop
  89              		.code	16
  90              		.thumb_func
  91              		.type	CyBtldrCommStop, %function
  92              	CyBtldrCommStop:
  93              	.LFB35:
  52:.\main.c      ****  
  53:.\main.c      **** void CyBtldrCommStop (void) {
  94              		.loc 1 53 0
  95              		.cfi_startproc
  96 0000 08B5     		push	{r3, lr}
  97              		.cfi_def_cfa_offset 8
  98              		.cfi_offset 3, -8
  99              		.cfi_offset 14, -4
  54:.\main.c      ****     UART_Stop();
 100              		.loc 1 54 0
 101 0002 FFF7FEFF 		bl	UART_Stop
 102              	.LVL4:
  55:.\main.c      **** }
 103              		.loc 1 55 0
 104              		@ sp needed
 105 0006 08BD     		pop	{r3, pc}
 106              		.cfi_endproc
 107              	.LFE35:
 108              		.size	CyBtldrCommStop, .-CyBtldrCommStop
 109              		.section	.text.CyBtldrCommReset,"ax",%progbits
 110              		.align	1
 111              		.global	CyBtldrCommReset
 112              		.code	16
 113              		.thumb_func
 114              		.type	CyBtldrCommReset, %function
ARM GAS  C:\Users\Pablo\AppData\Local\Temp\ccAWb0ap.s 			page 4


 115              	CyBtldrCommReset:
 116              	.LFB36:
  56:.\main.c      ****  
  57:.\main.c      **** void CyBtldrCommReset(void) {
 117              		.loc 1 57 0
 118              		.cfi_startproc
 119 0000 08B5     		push	{r3, lr}
 120              		.cfi_def_cfa_offset 8
 121              		.cfi_offset 3, -8
 122              		.cfi_offset 14, -4
  58:.\main.c      ****     UART_SpiUartClearRxBuffer();
 123              		.loc 1 58 0
 124 0002 FFF7FEFF 		bl	UART_SpiUartClearRxBuffer
 125              	.LVL5:
  59:.\main.c      ****     UART_SpiUartClearTxBuffer();
  60:.\main.c      **** }
 126              		.loc 1 60 0
 127              		@ sp needed
  59:.\main.c      ****     UART_SpiUartClearTxBuffer();
 128              		.loc 1 59 0
 129 0006 FFF7FEFF 		bl	UART_SpiUartClearTxBuffer
 130              	.LVL6:
 131              		.loc 1 60 0
 132 000a 08BD     		pop	{r3, pc}
 133              		.cfi_endproc
 134              	.LFE36:
 135              		.size	CyBtldrCommReset, .-CyBtldrCommReset
 136              		.section	.text.CyBtldrCommWrite,"ax",%progbits
 137              		.align	1
 138              		.global	CyBtldrCommWrite
 139              		.code	16
 140              		.thumb_func
 141              		.type	CyBtldrCommWrite, %function
 142              	CyBtldrCommWrite:
 143              	.LFB37:
  61:.\main.c      ****  
  62:.\main.c      **** cystatus CyBtldrCommWrite(uint8* buffer, uint16 size, uint16* count, uint8 timeOut) {
 144              		.loc 1 62 0
 145              		.cfi_startproc
 146              	.LVL7:
 147 0000 70B5     		push	{r4, r5, r6, lr}
 148              		.cfi_def_cfa_offset 16
 149              		.cfi_offset 4, -16
 150              		.cfi_offset 5, -12
 151              		.cfi_offset 6, -8
 152              		.cfi_offset 14, -4
  63:.\main.c      ****     for(*count = 0; *count < size; (*count)++) {
 153              		.loc 1 63 0
 154 0002 0023     		mov	r3, #0
 155              	.LVL8:
  62:.\main.c      **** cystatus CyBtldrCommWrite(uint8* buffer, uint16 size, uint16* count, uint8 timeOut) {
 156              		.loc 1 62 0
 157 0004 061C     		mov	r6, r0
 158 0006 0D1C     		mov	r5, r1
 159 0008 141C     		mov	r4, r2
 160              	.LVL9:
 161              	.L14:
ARM GAS  C:\Users\Pablo\AppData\Local\Temp\ccAWb0ap.s 			page 5


 162              		.loc 1 63 0 discriminator 2
 163 000a 2380     		strh	r3, [r4]
 164 000c 2388     		ldrh	r3, [r4]
 165 000e AB42     		cmp	r3, r5
 166 0010 05D2     		bcs	.L15
  64:.\main.c      ****         UART_UartPutChar(buffer[*count]);
 167              		.loc 1 64 0 discriminator 2
 168 0012 F05C     		ldrb	r0, [r6, r3]
 169 0014 FFF7FEFF 		bl	UART_SpiUartWriteTxData
 170              	.LVL10:
  63:.\main.c      ****     for(*count = 0; *count < size; (*count)++) {
 171              		.loc 1 63 0 discriminator 2
 172 0018 2388     		ldrh	r3, [r4]
 173 001a 0133     		add	r3, r3, #1
 174 001c F5E7     		b	.L14
 175              	.L15:
  65:.\main.c      ****     }
  66:.\main.c      ****     
  67:.\main.c      ****     return CYRET_SUCCESS;
  68:.\main.c      **** }
 176              		.loc 1 68 0
 177 001e 0020     		mov	r0, #0
 178              		@ sp needed
 179              	.LVL11:
 180              	.LVL12:
 181 0020 70BD     		pop	{r4, r5, r6, pc}
 182              		.cfi_endproc
 183              	.LFE37:
 184              		.size	CyBtldrCommWrite, .-CyBtldrCommWrite
 185              		.section	.text.CyBtldrCommRead,"ax",%progbits
 186              		.align	1
 187              		.global	CyBtldrCommRead
 188              		.code	16
 189              		.thumb_func
 190              		.type	CyBtldrCommRead, %function
 191              	CyBtldrCommRead:
 192              	.LFB38:
  69:.\main.c      ****  
  70:.\main.c      **** cystatus CyBtldrCommRead (uint8* buffer, uint16 size, uint16* count, uint8 timeOut) {
 193              		.loc 1 70 0
 194              		.cfi_startproc
 195              	.LVL13:
 196 0000 F7B5     		push	{r0, r1, r2, r4, r5, r6, r7, lr}
 197              		.cfi_def_cfa_offset 32
 198              		.cfi_offset 0, -32
 199              		.cfi_offset 1, -28
 200              		.cfi_offset 2, -24
 201              		.cfi_offset 4, -20
 202              		.cfi_offset 5, -16
 203              		.cfi_offset 6, -12
 204              		.cfi_offset 7, -8
 205              		.cfi_offset 14, -4
  71:.\main.c      ****     int timeoutUs = timeOut * 10000;
 206              		.loc 1 71 0
 207 0002 114C     		ldr	r4, .L24
  70:.\main.c      **** cystatus CyBtldrCommRead (uint8* buffer, uint16 size, uint16* count, uint8 timeOut) {
 208              		.loc 1 70 0
ARM GAS  C:\Users\Pablo\AppData\Local\Temp\ccAWb0ap.s 			page 6


 209 0004 071C     		mov	r7, r0
 210              		.loc 1 71 0
 211 0006 5C43     		mul	r4, r3
 212              	.LVL14:
  72:.\main.c      ****     cystatus status = CYRET_TIMEOUT;
  73:.\main.c      ****     *count = 0;
 213              		.loc 1 73 0
 214 0008 0023     		mov	r3, #0
 215              	.LVL15:
  70:.\main.c      **** cystatus CyBtldrCommRead (uint8* buffer, uint16 size, uint16* count, uint8 timeOut) {
 216              		.loc 1 70 0
 217 000a 0191     		str	r1, [sp, #4]
 218 000c 151C     		mov	r5, r2
 219              		.loc 1 73 0
 220 000e 1380     		strh	r3, [r2]
  72:.\main.c      ****     cystatus status = CYRET_TIMEOUT;
 221              		.loc 1 72 0
 222 0010 1026     		mov	r6, #16
 223              	.LVL16:
 224              	.L17:
  74:.\main.c      ****     
  75:.\main.c      ****     while(*count < size && timeoutUs >= 0) {
 225              		.loc 1 75 0 discriminator 1
 226 0012 2B88     		ldrh	r3, [r5]
 227 0014 019A     		ldr	r2, [sp, #4]
 228 0016 9342     		cmp	r3, r2
 229 0018 14D2     		bcs	.L23
 230              		.loc 1 75 0 is_stmt 0 discriminator 2
 231 001a 002C     		cmp	r4, #0
 232 001c 12DB     		blt	.L23
  76:.\main.c      ****         if(UART_SpiUartGetRxBufferSize() > 0) {
 233              		.loc 1 76 0 is_stmt 1
 234 001e FFF7FEFF 		bl	UART_SpiUartGetRxBufferSize
 235              	.LVL17:
 236 0022 0028     		cmp	r0, #0
 237 0024 09D0     		beq	.L18
  77:.\main.c      ****             buffer[(*count)++] = UART_UartGetByte();
 238              		.loc 1 77 0
 239 0026 2B88     		ldrh	r3, [r5]
  78:.\main.c      ****             // Switch to byte-to-byte timeout and mark as success
  79:.\main.c      ****             timeoutUs = 10000; //10mS
  80:.\main.c      ****             status = CYRET_SUCCESS;
 240              		.loc 1 80 0
 241 0028 0026     		mov	r6, #0
 242              	.LVL18:
  77:.\main.c      ****             buffer[(*count)++] = UART_UartGetByte();
 243              		.loc 1 77 0
 244 002a 5A1C     		add	r2, r3, #1
 245 002c 2A80     		strh	r2, [r5]
 246 002e FC18     		add	r4, r7, r3
 247              	.LVL19:
 248 0030 FFF7FEFF 		bl	UART_UartGetByte
 249              	.LVL20:
 250 0034 2070     		strb	r0, [r4]
 251              	.LVL21:
  79:.\main.c      ****             timeoutUs = 10000; //10mS
 252              		.loc 1 79 0
ARM GAS  C:\Users\Pablo\AppData\Local\Temp\ccAWb0ap.s 			page 7


 253 0036 044C     		ldr	r4, .L24
 254 0038 EBE7     		b	.L17
 255              	.LVL22:
 256              	.L18:
  81:.\main.c      ****         } else {
  82:.\main.c      ****             CyDelayUs(10);
 257              		.loc 1 82 0
 258 003a 0A20     		mov	r0, #10
 259 003c FFF7FEFF 		bl	CyDelayUs
 260              	.LVL23:
  83:.\main.c      ****             timeoutUs -= 10;
 261              		.loc 1 83 0
 262 0040 0A3C     		sub	r4, r4, #10
 263              	.LVL24:
 264 0042 E6E7     		b	.L17
 265              	.L23:
  84:.\main.c      ****         }
  85:.\main.c      ****     }
  86:.\main.c      ****     return status;
  87:.\main.c      **** }
 266              		.loc 1 87 0
 267 0044 301C     		mov	r0, r6
 268              		@ sp needed
 269              	.LVL25:
 270              	.LVL26:
 271              	.LVL27:
 272              	.LVL28:
 273 0046 FEBD     		pop	{r1, r2, r3, r4, r5, r6, r7, pc}
 274              	.L25:
 275              		.align	2
 276              	.L24:
 277 0048 10270000 		.word	10000
 278              		.cfi_endproc
 279              	.LFE38:
 280              		.size	CyBtldrCommRead, .-CyBtldrCommRead
 281              		.text
 282              	.Letext0:
 283              		.file 2 ".\\Generated_Source\\PSoC4/cytypes.h"
 284              		.file 3 ".\\Generated_Source\\PSoC4/Bootloader.h"
 285              		.file 4 ".\\Generated_Source\\PSoC4/UART.h"
 286              		.file 5 ".\\Generated_Source\\PSoC4/UART_SPI_UART.h"
 287              		.file 6 ".\\Generated_Source\\PSoC4/EN.h"
 288              		.file 7 ".\\Generated_Source\\PSoC4/CyLib.h"