ARM GAS  C:\Users\Pablo\AppData\Local\Temp\cctY477n.s 			page 1


   1              		.cpu cortex-m0
   2              		.fpu softvfp
   3              		.eabi_attribute 20, 1
   4              		.eabi_attribute 21, 1
   5              		.eabi_attribute 23, 3
   6              		.eabi_attribute 24, 1
   7              		.eabi_attribute 25, 1
   8              		.eabi_attribute 26, 1
   9              		.eabi_attribute 30, 4
  10              		.eabi_attribute 34, 0
  11              		.eabi_attribute 18, 4
  12              		.code	16
  13              		.file	"ADC.c"
  14              		.text
  15              	.Ltext0:
  16              		.cfi_sections	.debug_frame
  17              		.section	.text.ADC_Init,"ax",%progbits
  18              		.align	1
  19              		.global	ADC_Init
  20              		.code	16
  21              		.thumb_func
  22              		.type	ADC_Init, %function
  23              	ADC_Init:
  24              	.LFB1:
  25              		.file 1 ".\\Generated_Source\\PSoC4\\ADC.c"
   1:.\Generated_Source\PSoC4/ADC.c **** /*******************************************************************************
   2:.\Generated_Source\PSoC4/ADC.c **** * File Name: ADC.c
   3:.\Generated_Source\PSoC4/ADC.c **** * Version 2.10
   4:.\Generated_Source\PSoC4/ADC.c **** *
   5:.\Generated_Source\PSoC4/ADC.c **** * Description:
   6:.\Generated_Source\PSoC4/ADC.c **** *  This file provides the source code to the API for the Sequencing Successive
   7:.\Generated_Source\PSoC4/ADC.c **** *  Approximation ADC Component Component.
   8:.\Generated_Source\PSoC4/ADC.c **** *
   9:.\Generated_Source\PSoC4/ADC.c **** * Note:
  10:.\Generated_Source\PSoC4/ADC.c **** *
  11:.\Generated_Source\PSoC4/ADC.c **** ********************************************************************************
  12:.\Generated_Source\PSoC4/ADC.c **** * Copyright 2008-2015, Cypress Semiconductor Corporation.  All rights reserved.
  13:.\Generated_Source\PSoC4/ADC.c **** * You may use this file only in accordance with the license, terms, conditions,
  14:.\Generated_Source\PSoC4/ADC.c **** * disclaimers, and limitations in the end user license agreement accompanying
  15:.\Generated_Source\PSoC4/ADC.c **** * the software package with which this file was provided.
  16:.\Generated_Source\PSoC4/ADC.c **** *******************************************************************************/
  17:.\Generated_Source\PSoC4/ADC.c **** 
  18:.\Generated_Source\PSoC4/ADC.c **** #include "ADC.h"
  19:.\Generated_Source\PSoC4/ADC.c **** 
  20:.\Generated_Source\PSoC4/ADC.c **** 
  21:.\Generated_Source\PSoC4/ADC.c **** /***************************************
  22:.\Generated_Source\PSoC4/ADC.c **** * Global data allocation
  23:.\Generated_Source\PSoC4/ADC.c **** ***************************************/
  24:.\Generated_Source\PSoC4/ADC.c **** uint8 ADC_initVar = 0u;
  25:.\Generated_Source\PSoC4/ADC.c **** volatile int16 ADC_offset[ADC_TOTAL_CHANNELS_NUM];
  26:.\Generated_Source\PSoC4/ADC.c **** volatile int32 ADC_countsPer10Volt[ADC_TOTAL_CHANNELS_NUM];   /* Gain compensation */
  27:.\Generated_Source\PSoC4/ADC.c **** 
  28:.\Generated_Source\PSoC4/ADC.c **** 
  29:.\Generated_Source\PSoC4/ADC.c **** /***************************************
  30:.\Generated_Source\PSoC4/ADC.c **** * Local data allocation
  31:.\Generated_Source\PSoC4/ADC.c **** ***************************************/
  32:.\Generated_Source\PSoC4/ADC.c **** /* Channels configuration generated by customiser */
ARM GAS  C:\Users\Pablo\AppData\Local\Temp\cctY477n.s 			page 2


  33:.\Generated_Source\PSoC4/ADC.c **** static const uint32 CYCODE ADC_channelsConfig[] = { 0x00000400u };
  34:.\Generated_Source\PSoC4/ADC.c **** 
  35:.\Generated_Source\PSoC4/ADC.c **** 
  36:.\Generated_Source\PSoC4/ADC.c **** /*******************************************************************************
  37:.\Generated_Source\PSoC4/ADC.c **** * Function Name: ADC_Start
  38:.\Generated_Source\PSoC4/ADC.c **** ********************************************************************************
  39:.\Generated_Source\PSoC4/ADC.c **** *
  40:.\Generated_Source\PSoC4/ADC.c **** * Summary:
  41:.\Generated_Source\PSoC4/ADC.c **** *  Performs all required initialization for this component
  42:.\Generated_Source\PSoC4/ADC.c **** *  and enables the power. The power will be set to the appropriate
  43:.\Generated_Source\PSoC4/ADC.c **** *  power based on the clock frequency.
  44:.\Generated_Source\PSoC4/ADC.c **** *
  45:.\Generated_Source\PSoC4/ADC.c **** * Parameters:
  46:.\Generated_Source\PSoC4/ADC.c **** *  None.
  47:.\Generated_Source\PSoC4/ADC.c **** *
  48:.\Generated_Source\PSoC4/ADC.c **** * Return:
  49:.\Generated_Source\PSoC4/ADC.c **** *  None.
  50:.\Generated_Source\PSoC4/ADC.c **** *
  51:.\Generated_Source\PSoC4/ADC.c **** * Global variables:
  52:.\Generated_Source\PSoC4/ADC.c **** *  The ADC_initVar variable is used to indicate when/if initial
  53:.\Generated_Source\PSoC4/ADC.c **** *  configuration of this component has happened. The variable is initialized to
  54:.\Generated_Source\PSoC4/ADC.c **** *  zero and set to 1 the first time ADC_Start() is called. This allows for
  55:.\Generated_Source\PSoC4/ADC.c **** *  component Re-Start without re-initialization in all subsequent calls to the
  56:.\Generated_Source\PSoC4/ADC.c **** *  ADC_Start() routine.
  57:.\Generated_Source\PSoC4/ADC.c **** *  If re-initialization of the component is required the variable should be set
  58:.\Generated_Source\PSoC4/ADC.c **** *  to zero before call of ADC_Start() routine, or the user may call
  59:.\Generated_Source\PSoC4/ADC.c **** *  ADC_Init() and ADC_Enable() as done in the
  60:.\Generated_Source\PSoC4/ADC.c **** *  ADC_Start() routine.
  61:.\Generated_Source\PSoC4/ADC.c **** *
  62:.\Generated_Source\PSoC4/ADC.c **** *******************************************************************************/
  63:.\Generated_Source\PSoC4/ADC.c **** void ADC_Start(void)
  64:.\Generated_Source\PSoC4/ADC.c **** {
  65:.\Generated_Source\PSoC4/ADC.c ****     /* If not Initialized then initialize all required hardware and software */
  66:.\Generated_Source\PSoC4/ADC.c ****     if(ADC_initVar == 0u)
  67:.\Generated_Source\PSoC4/ADC.c ****     {
  68:.\Generated_Source\PSoC4/ADC.c ****         ADC_Init();
  69:.\Generated_Source\PSoC4/ADC.c ****         ADC_initVar = 1u;
  70:.\Generated_Source\PSoC4/ADC.c ****     }
  71:.\Generated_Source\PSoC4/ADC.c ****     ADC_Enable();
  72:.\Generated_Source\PSoC4/ADC.c **** }
  73:.\Generated_Source\PSoC4/ADC.c **** 
  74:.\Generated_Source\PSoC4/ADC.c **** 
  75:.\Generated_Source\PSoC4/ADC.c **** /*******************************************************************************
  76:.\Generated_Source\PSoC4/ADC.c **** * Function Name: ADC_Init
  77:.\Generated_Source\PSoC4/ADC.c **** ********************************************************************************
  78:.\Generated_Source\PSoC4/ADC.c **** *
  79:.\Generated_Source\PSoC4/ADC.c **** * Summary:
  80:.\Generated_Source\PSoC4/ADC.c **** *  Initialize component's parameters to the parameters set by user in the
  81:.\Generated_Source\PSoC4/ADC.c **** *  customizer of the component placed onto schematic. Usually called in
  82:.\Generated_Source\PSoC4/ADC.c **** *  ADC_Start().
  83:.\Generated_Source\PSoC4/ADC.c **** *
  84:.\Generated_Source\PSoC4/ADC.c **** * Parameters:
  85:.\Generated_Source\PSoC4/ADC.c **** *  None.
  86:.\Generated_Source\PSoC4/ADC.c **** *
  87:.\Generated_Source\PSoC4/ADC.c **** * Return:
  88:.\Generated_Source\PSoC4/ADC.c **** *  None.
  89:.\Generated_Source\PSoC4/ADC.c **** *
ARM GAS  C:\Users\Pablo\AppData\Local\Temp\cctY477n.s 			page 3


  90:.\Generated_Source\PSoC4/ADC.c **** * Global variables:
  91:.\Generated_Source\PSoC4/ADC.c **** *  The ADC_offset variable is initialized.
  92:.\Generated_Source\PSoC4/ADC.c **** *
  93:.\Generated_Source\PSoC4/ADC.c **** *******************************************************************************/
  94:.\Generated_Source\PSoC4/ADC.c **** void ADC_Init(void)
  95:.\Generated_Source\PSoC4/ADC.c **** {
  26              		.loc 1 95 0
  27              		.cfi_startproc
  28 0000 10B5     		push	{r4, lr}
  29              		.cfi_def_cfa_offset 8
  30              		.cfi_offset 4, -8
  31              		.cfi_offset 14, -4
  96:.\Generated_Source\PSoC4/ADC.c ****     uint32 chNum;
  97:.\Generated_Source\PSoC4/ADC.c ****     uint32 tmpRegVal;
  98:.\Generated_Source\PSoC4/ADC.c ****     int32 counts;
  99:.\Generated_Source\PSoC4/ADC.c **** 
 100:.\Generated_Source\PSoC4/ADC.c ****     #if(ADC_TOTAL_CHANNELS_NUM > 1u)
 101:.\Generated_Source\PSoC4/ADC.c ****         static const uint8 CYCODE ADC_InputsPlacement[] =
 102:.\Generated_Source\PSoC4/ADC.c ****         {
 103:.\Generated_Source\PSoC4/ADC.c ****             (uint8)(ADC_cy_psoc4_sarmux_8__CH_0_PORT << 4u) |
 104:.\Generated_Source\PSoC4/ADC.c ****             (uint8)ADC_cy_psoc4_sarmux_8__CH_0_PIN
 105:.\Generated_Source\PSoC4/ADC.c ****             ,(uint8)(ADC_cy_psoc4_sarmux_8__CH_1_PORT << 4u) |
 106:.\Generated_Source\PSoC4/ADC.c ****              (uint8)ADC_cy_psoc4_sarmux_8__CH_1_PIN
 107:.\Generated_Source\PSoC4/ADC.c ****             #if(ADC_TOTAL_CHANNELS_NUM > 2u)
 108:.\Generated_Source\PSoC4/ADC.c ****                 ,(uint8)(ADC_cy_psoc4_sarmux_8__CH_2_PORT << 4u) |
 109:.\Generated_Source\PSoC4/ADC.c ****                  (uint8)ADC_cy_psoc4_sarmux_8__CH_2_PIN
 110:.\Generated_Source\PSoC4/ADC.c ****             #endif /* End ADC_TOTAL_CHANNELS_NUM > 2u */
 111:.\Generated_Source\PSoC4/ADC.c ****             #if(ADC_TOTAL_CHANNELS_NUM > 3u)
 112:.\Generated_Source\PSoC4/ADC.c ****                 ,(uint8)(ADC_cy_psoc4_sarmux_8__CH_3_PORT << 4u) |
 113:.\Generated_Source\PSoC4/ADC.c ****                  (uint8)ADC_cy_psoc4_sarmux_8__CH_3_PIN
 114:.\Generated_Source\PSoC4/ADC.c ****             #endif /* End ADC_TOTAL_CHANNELS_NUM > 3u */
 115:.\Generated_Source\PSoC4/ADC.c ****             #if(ADC_TOTAL_CHANNELS_NUM > 4u)
 116:.\Generated_Source\PSoC4/ADC.c ****                 ,(uint8)(ADC_cy_psoc4_sarmux_8__CH_4_PORT << 4u) |
 117:.\Generated_Source\PSoC4/ADC.c ****                  (uint8)ADC_cy_psoc4_sarmux_8__CH_4_PIN
 118:.\Generated_Source\PSoC4/ADC.c ****             #endif /* End ADC_TOTAL_CHANNELS_NUM > 4u */
 119:.\Generated_Source\PSoC4/ADC.c ****             #if(ADC_TOTAL_CHANNELS_NUM > 5u)
 120:.\Generated_Source\PSoC4/ADC.c ****                 ,(uint8)(ADC_cy_psoc4_sarmux_8__CH_5_PORT << 4u) |
 121:.\Generated_Source\PSoC4/ADC.c ****                  (uint8)ADC_cy_psoc4_sarmux_8__CH_5_PIN
 122:.\Generated_Source\PSoC4/ADC.c ****             #endif /* End ADC_TOTAL_CHANNELS_NUM > 5u */
 123:.\Generated_Source\PSoC4/ADC.c ****             #if(ADC_TOTAL_CHANNELS_NUM > 6u)
 124:.\Generated_Source\PSoC4/ADC.c ****                 ,(uint8)(ADC_cy_psoc4_sarmux_8__CH_6_PORT << 4u) |
 125:.\Generated_Source\PSoC4/ADC.c ****                  (uint8)ADC_cy_psoc4_sarmux_8__CH_6_PIN
 126:.\Generated_Source\PSoC4/ADC.c ****             #endif /* End ADC_TOTAL_CHANNELS_NUM > 6u */
 127:.\Generated_Source\PSoC4/ADC.c ****             #if(ADC_TOTAL_CHANNELS_NUM > 7u)
 128:.\Generated_Source\PSoC4/ADC.c ****                 ,(uint8)(ADC_cy_psoc4_sarmux_8__CH_7_PORT << 4u) |
 129:.\Generated_Source\PSoC4/ADC.c ****                  (uint8)ADC_cy_psoc4_sarmux_8__CH_7_PIN
 130:.\Generated_Source\PSoC4/ADC.c ****             #endif /* End ADC_TOTAL_CHANNELS_NUM > 7u */
 131:.\Generated_Source\PSoC4/ADC.c ****             #if(ADC_TOTAL_CHANNELS_NUM > 8u)
 132:.\Generated_Source\PSoC4/ADC.c ****                 ,(uint8)(ADC_cy_psoc4_sarmux_8__CH_8_PORT << 4u) |
 133:.\Generated_Source\PSoC4/ADC.c ****                  (uint8)ADC_cy_psoc4_sarmux_8__CH_8_PIN
 134:.\Generated_Source\PSoC4/ADC.c ****             #endif /* End ADC_TOTAL_CHANNELS_NUM > 8u */
 135:.\Generated_Source\PSoC4/ADC.c ****         };
 136:.\Generated_Source\PSoC4/ADC.c ****     #endif /* End ADC_TOTAL_CHANNELS_NUM > 1u */
 137:.\Generated_Source\PSoC4/ADC.c **** 
 138:.\Generated_Source\PSoC4/ADC.c ****     #if(ADC_IRQ_REMOVE == 0u)
 139:.\Generated_Source\PSoC4/ADC.c ****         /* Start and set interrupt vector */
 140:.\Generated_Source\PSoC4/ADC.c ****         CyIntSetPriority(ADC_INTC_NUMBER, ADC_INTC_PRIOR_NUMBER);
ARM GAS  C:\Users\Pablo\AppData\Local\Temp\cctY477n.s 			page 4


  32              		.loc 1 140 0
  33 0002 0E20     		mov	r0, #14
  34 0004 0321     		mov	r1, #3
  35 0006 FFF7FEFF 		bl	CyIntSetPriority
  36              	.LVL0:
 141:.\Generated_Source\PSoC4/ADC.c ****         (void)CyIntSetVector(ADC_INTC_NUMBER, &ADC_ISR);
  37              		.loc 1 141 0
  38 000a 2049     		ldr	r1, .L5
  39 000c 0E20     		mov	r0, #14
  40 000e FFF7FEFF 		bl	CyIntSetVector
  41              	.LVL1:
 142:.\Generated_Source\PSoC4/ADC.c ****     #endif   /* End ADC_IRQ_REMOVE */
 143:.\Generated_Source\PSoC4/ADC.c **** 
 144:.\Generated_Source\PSoC4/ADC.c ****     /* Init SAR and MUX registers */
 145:.\Generated_Source\PSoC4/ADC.c ****     ADC_SAR_CHAN_EN_REG = ADC_DEFAULT_EN_CHANNELS;
  42              		.loc 1 145 0
  43 0012 1F4B     		ldr	r3, .L5+4
  44 0014 0122     		mov	r2, #1
  45 0016 1A60     		str	r2, [r3]
 146:.\Generated_Source\PSoC4/ADC.c ****     ADC_SAR_CTRL_REG |= ADC_DEFAULT_CTRL_REG_CFG | 
  46              		.loc 1 146 0
  47 0018 1E4A     		ldr	r2, .L5+8
 147:.\Generated_Source\PSoC4/ADC.c ****         /* Enable the SAR internal pump when global pump is enabled */
 148:.\Generated_Source\PSoC4/ADC.c ****         (((ADC_PUMP_CTRL_REG & ADC_PUMP_CTRL_ENABLED) != 0u) ? 
  48              		.loc 1 148 0
  49 001a 1F4B     		ldr	r3, .L5+12
 146:.\Generated_Source\PSoC4/ADC.c ****     ADC_SAR_CTRL_REG |= ADC_DEFAULT_CTRL_REG_CFG | 
  50              		.loc 1 146 0
  51 001c 1168     		ldr	r1, [r2]
  52              		.loc 1 148 0
  53 001e 1B68     		ldr	r3, [r3]
 146:.\Generated_Source\PSoC4/ADC.c ****     ADC_SAR_CTRL_REG |= ADC_DEFAULT_CTRL_REG_CFG | 
  54              		.loc 1 146 0
  55 0020 002B     		cmp	r3, #0
  56 0022 01DA     		bge	.L3
  57 0024 1D4B     		ldr	r3, .L5+16
  58 0026 00E0     		b	.L2
  59              	.L3:
  60 0028 1D4B     		ldr	r3, .L5+20
  61              	.L2:
 146:.\Generated_Source\PSoC4/ADC.c ****     ADC_SAR_CTRL_REG |= ADC_DEFAULT_CTRL_REG_CFG | 
  62              		.loc 1 146 0 is_stmt 0 discriminator 3
  63 002a 0B43     		orr	r3, r1
  64 002c 1360     		str	r3, [r2]
 149:.\Generated_Source\PSoC4/ADC.c ****         ADC_BOOSTPUMP_EN : 0u);
 150:.\Generated_Source\PSoC4/ADC.c ****     ADC_SAR_SAMPLE_CTRL_REG = ADC_DEFAULT_SAMPLE_CTRL_REG_CFG;
  65              		.loc 1 150 0 is_stmt 1 discriminator 3
  66 002e 1D4A     		ldr	r2, .L5+24
  67 0030 1D4B     		ldr	r3, .L5+28
 151:.\Generated_Source\PSoC4/ADC.c ****     ADC_SAR_RANGE_THRES_REG = ADC_DEFAULT_RANGE_THRES_REG_CFG;
 152:.\Generated_Source\PSoC4/ADC.c ****     ADC_SAR_RANGE_COND_REG  = ADC_COMPARE_MODE;
 153:.\Generated_Source\PSoC4/ADC.c ****     ADC_SAR_SAMPLE_TIME01_REG = ADC_DEFAULT_SAMPLE_TIME01_REG_CFG;
  68              		.loc 1 153 0 discriminator 3
  69 0032 1E49     		ldr	r1, .L5+32
 150:.\Generated_Source\PSoC4/ADC.c ****     ADC_SAR_SAMPLE_CTRL_REG = ADC_DEFAULT_SAMPLE_CTRL_REG_CFG;
  70              		.loc 1 150 0 discriminator 3
  71 0034 1A60     		str	r2, [r3]
ARM GAS  C:\Users\Pablo\AppData\Local\Temp\cctY477n.s 			page 5


 151:.\Generated_Source\PSoC4/ADC.c ****     ADC_SAR_RANGE_THRES_REG = ADC_DEFAULT_RANGE_THRES_REG_CFG;
  72              		.loc 1 151 0 discriminator 3
  73 0036 1E4A     		ldr	r2, .L5+36
  74 0038 1E4B     		ldr	r3, .L5+40
 154:.\Generated_Source\PSoC4/ADC.c ****     ADC_SAR_SAMPLE_TIME23_REG = ADC_DEFAULT_SAMPLE_TIME23_REG_CFG;
 155:.\Generated_Source\PSoC4/ADC.c ****     
 156:.\Generated_Source\PSoC4/ADC.c ****     /* Connect Vm to VSSA when even one channel is single-ended or multiple channels configured */
 157:.\Generated_Source\PSoC4/ADC.c ****     #if(ADC_DEFAULT_MUX_SWITCH0 != 0u)
 158:.\Generated_Source\PSoC4/ADC.c ****         ADC_MUX_SWITCH0_REG |= ADC_DEFAULT_MUX_SWITCH0;
 159:.\Generated_Source\PSoC4/ADC.c ****         /* Set MUX_HW_CTRL_VSSA in MUX_SWITCH_HW_CTRL when multiple channels enabled */
 160:.\Generated_Source\PSoC4/ADC.c ****         #if(ADC_TOTAL_CHANNELS_NUM > 1u)
 161:.\Generated_Source\PSoC4/ADC.c ****             ADC_MUX_SWITCH_HW_CTRL_REG |= ADC_DEFAULT_MUX_SWITCH0;
 162:.\Generated_Source\PSoC4/ADC.c ****         #endif /* ADC_TOTAL_CHANNELS_NUM > 1u */
 163:.\Generated_Source\PSoC4/ADC.c ****     #endif /*ADC_CHANNELS_MODE !=0 */
 164:.\Generated_Source\PSoC4/ADC.c **** 
 165:.\Generated_Source\PSoC4/ADC.c ****     ADC_SAR_SATURATE_INTR_MASK_REG = 0u;
 166:.\Generated_Source\PSoC4/ADC.c ****     ADC_SAR_RANGE_INTR_MASK_REG = 0u;
 167:.\Generated_Source\PSoC4/ADC.c ****     ADC_SAR_INTR_MASK_REG = ADC_SAR_INTR_MASK;
 168:.\Generated_Source\PSoC4/ADC.c **** 
 169:.\Generated_Source\PSoC4/ADC.c ****     #if(ADC_CY_SAR_IP_VER == ADC_CY_SAR_IP_PSOC4)
 170:.\Generated_Source\PSoC4/ADC.c ****         ADC_ANA_TRIM_REG = ADC_TRIM_COEF;
 171:.\Generated_Source\PSoC4/ADC.c ****     #endif /* (ADC_CY_SAR_IP_VER == ADC_CY_SAR_IP_PSOC4) */
 172:.\Generated_Source\PSoC4/ADC.c **** 
 173:.\Generated_Source\PSoC4/ADC.c ****     /* Read and modify default configuration based on characterization */
 174:.\Generated_Source\PSoC4/ADC.c ****     tmpRegVal = ADC_SAR_DFT_CTRL_REG;
 175:.\Generated_Source\PSoC4/ADC.c ****     tmpRegVal &= (uint32)~ADC_DCEN;
 176:.\Generated_Source\PSoC4/ADC.c ****     
 177:.\Generated_Source\PSoC4/ADC.c ****     #if(ADC_CY_SAR_IP_VER == ADC_CY_SAR_IP_PSOC4)
 178:.\Generated_Source\PSoC4/ADC.c ****         #if(ADC_NOMINAL_CLOCK_FREQ > (ADC_MAX_FREQUENCY / 2))
 179:.\Generated_Source\PSoC4/ADC.c ****             tmpRegVal |= ADC_SEL_CSEL_DFT_CHAR;
 180:.\Generated_Source\PSoC4/ADC.c ****         #else  /* clock speed < 9 Mhz */
 181:.\Generated_Source\PSoC4/ADC.c ****             tmpRegVal |= ADC_DLY_INC;
 182:.\Generated_Source\PSoC4/ADC.c ****         #endif /* clock speed > 9 Mhz */
 183:.\Generated_Source\PSoC4/ADC.c ****     #else
 184:.\Generated_Source\PSoC4/ADC.c ****         #if ((ADC_DEFAULT_VREF_SEL == ADC__INTERNAL1024) || \
 185:.\Generated_Source\PSoC4/ADC.c ****              (ADC_DEFAULT_VREF_SEL == ADC__INTERNALVREF))
 186:.\Generated_Source\PSoC4/ADC.c ****             tmpRegVal |= ADC_DLY_INC;
 187:.\Generated_Source\PSoC4/ADC.c ****         #else
 188:.\Generated_Source\PSoC4/ADC.c ****             tmpRegVal |= ADC_DCEN;
 189:.\Generated_Source\PSoC4/ADC.c ****             tmpRegVal &= (uint32)~ADC_DLY_INC;
 190:.\Generated_Source\PSoC4/ADC.c ****         #endif /* ((ADC_DEFAULT_VREF_SEL == ADC__INTERNAL1024) || \
 191:.\Generated_Source\PSoC4/ADC.c ****                    (ADC_DEFAULT_VREF_SEL == ADC__INTERNALVREF)) */
 192:.\Generated_Source\PSoC4/ADC.c ****     #endif /* (ADC_CY_SAR_IP_VER == ADC_CY_SAR_IP_PSOC4) */
 193:.\Generated_Source\PSoC4/ADC.c ****     
 194:.\Generated_Source\PSoC4/ADC.c ****     ADC_SAR_DFT_CTRL_REG = tmpRegVal;
 195:.\Generated_Source\PSoC4/ADC.c **** 
 196:.\Generated_Source\PSoC4/ADC.c ****     #if(ADC_MAX_RESOLUTION != ADC_RESOLUTION_12)
 197:.\Generated_Source\PSoC4/ADC.c ****         ADC_WOUNDING_REG = ADC_ALT_WOUNDING;
 198:.\Generated_Source\PSoC4/ADC.c ****     #endif /* ADC_MAX_RESOLUTION != ADC_RESOLUTION_12 */
 199:.\Generated_Source\PSoC4/ADC.c **** 
 200:.\Generated_Source\PSoC4/ADC.c ****     for(chNum = 0u; chNum < ADC_TOTAL_CHANNELS_NUM; chNum++)
 201:.\Generated_Source\PSoC4/ADC.c ****     {
 202:.\Generated_Source\PSoC4/ADC.c ****         tmpRegVal = (ADC_channelsConfig[chNum] & ADC_CHANNEL_CONFIG_MASK);
 203:.\Generated_Source\PSoC4/ADC.c ****         #if(ADC_TOTAL_CHANNELS_NUM > 1u)
 204:.\Generated_Source\PSoC4/ADC.c ****             tmpRegVal |= ADC_InputsPlacement[chNum];
 205:.\Generated_Source\PSoC4/ADC.c ****         #endif /* End ADC_TOTAL_CHANNELS_NUM > 1u */
 206:.\Generated_Source\PSoC4/ADC.c ****         
ARM GAS  C:\Users\Pablo\AppData\Local\Temp\cctY477n.s 			page 6


 207:.\Generated_Source\PSoC4/ADC.c ****         
 208:.\Generated_Source\PSoC4/ADC.c ****         /* When the part is limited to 10-bit then the SUB_RESOLUTION bit
 209:.\Generated_Source\PSoC4/ADC.c ****         *  will be ignored and the RESOLUTION bit selects between 10-bit
 210:.\Generated_Source\PSoC4/ADC.c ****         *  (0) and 8-bit (1) resolution.
 211:.\Generated_Source\PSoC4/ADC.c ****         */
 212:.\Generated_Source\PSoC4/ADC.c ****         #if((ADC_MAX_RESOLUTION != ADC_RESOLUTION_12) && \
 213:.\Generated_Source\PSoC4/ADC.c ****             (ADC_ALT_WOUNDING == ADC_WOUNDING_10BIT))
 214:.\Generated_Source\PSoC4/ADC.c ****             tmpRegVal &= (uint32)(~ADC_ALT_RESOLUTION_ON);
 215:.\Generated_Source\PSoC4/ADC.c ****         #endif /* ADC_MAX_RESOLUTION != ADC_RESOLUTION_12 */
 216:.\Generated_Source\PSoC4/ADC.c **** 
 217:.\Generated_Source\PSoC4/ADC.c ****         #if(ADC_INJ_CHANNEL_ENABLED)
 218:.\Generated_Source\PSoC4/ADC.c ****         if(chNum < ADC_SEQUENCED_CHANNELS_NUM)
 219:.\Generated_Source\PSoC4/ADC.c ****         #endif /* ADC_INJ_CHANNEL_ENABLED */
 220:.\Generated_Source\PSoC4/ADC.c ****         {
 221:.\Generated_Source\PSoC4/ADC.c ****             CY_SET_REG32((reg32 *)(ADC_SAR_CHAN_CONFIG_IND + (uint32)(chNum << 2)), tmpRegVal);
 222:.\Generated_Source\PSoC4/ADC.c **** 
 223:.\Generated_Source\PSoC4/ADC.c ****             if((ADC_channelsConfig[chNum] & ADC_IS_SATURATE_EN_MASK) != 0u)
 224:.\Generated_Source\PSoC4/ADC.c ****             {
 225:.\Generated_Source\PSoC4/ADC.c ****                 ADC_SAR_SATURATE_INTR_MASK_REG |= (uint16)((uint16)1 << chNum);
 226:.\Generated_Source\PSoC4/ADC.c ****             }
 227:.\Generated_Source\PSoC4/ADC.c **** 
 228:.\Generated_Source\PSoC4/ADC.c ****             if((ADC_channelsConfig[chNum] & ADC_IS_RANGE_CTRL_EN_MASK) != 0u)
 229:.\Generated_Source\PSoC4/ADC.c ****             {
 230:.\Generated_Source\PSoC4/ADC.c ****                 ADC_SAR_RANGE_INTR_MASK_REG |= (uint16)((uint16)1 << chNum);
 231:.\Generated_Source\PSoC4/ADC.c ****             }
 232:.\Generated_Source\PSoC4/ADC.c ****         }
 233:.\Generated_Source\PSoC4/ADC.c ****         #if(ADC_INJ_CHANNEL_ENABLED)
 234:.\Generated_Source\PSoC4/ADC.c ****             else
 235:.\Generated_Source\PSoC4/ADC.c ****             {
 236:.\Generated_Source\PSoC4/ADC.c ****                 CY_SET_REG32(ADC_SAR_INJ_CHAN_CONFIG_PTR, tmpRegVal | ADC_INJ_TAILGATING);
 237:.\Generated_Source\PSoC4/ADC.c **** 
 238:.\Generated_Source\PSoC4/ADC.c ****                 if((ADC_channelsConfig[chNum] & ADC_IS_SATURATE_EN_MASK) != 0u)
 239:.\Generated_Source\PSoC4/ADC.c ****                 {
 240:.\Generated_Source\PSoC4/ADC.c ****                     ADC_SAR_INTR_MASK_REG |= ADC_INJ_SATURATE_MASK;
 241:.\Generated_Source\PSoC4/ADC.c ****                 }
 242:.\Generated_Source\PSoC4/ADC.c **** 
 243:.\Generated_Source\PSoC4/ADC.c ****                 if((ADC_channelsConfig[chNum] & ADC_IS_RANGE_CTRL_EN_MASK) != 0u)
 244:.\Generated_Source\PSoC4/ADC.c ****                 {
 245:.\Generated_Source\PSoC4/ADC.c ****                     ADC_SAR_INTR_MASK_REG |= ADC_INJ_RANGE_MASK;
 246:.\Generated_Source\PSoC4/ADC.c ****                 }
 247:.\Generated_Source\PSoC4/ADC.c ****             }
 248:.\Generated_Source\PSoC4/ADC.c ****         #endif /* ADC_INJ_CHANNEL_ENABLED */
 249:.\Generated_Source\PSoC4/ADC.c **** 
 250:.\Generated_Source\PSoC4/ADC.c ****         if((ADC_channelsConfig[chNum] & ADC_ALT_RESOLUTION_ON) != 0u)
 251:.\Generated_Source\PSoC4/ADC.c ****         {
 252:.\Generated_Source\PSoC4/ADC.c ****                counts = (int32)ADC_DEFAULT_MAX_WRK_ALT;
 253:.\Generated_Source\PSoC4/ADC.c ****         }
 254:.\Generated_Source\PSoC4/ADC.c ****         else
 255:.\Generated_Source\PSoC4/ADC.c ****         {
 256:.\Generated_Source\PSoC4/ADC.c ****                counts = (int32)ADC_SAR_WRK_MAX_12BIT;
 257:.\Generated_Source\PSoC4/ADC.c ****         }
 258:.\Generated_Source\PSoC4/ADC.c **** 
 259:.\Generated_Source\PSoC4/ADC.c ****         if((ADC_channelsConfig[chNum] & ADC_DIFFERENTIAL_EN) == 0u)
 260:.\Generated_Source\PSoC4/ADC.c ****         {
 261:.\Generated_Source\PSoC4/ADC.c ****             #if((ADC_DEFAULT_SE_RESULT_FORMAT_SEL == ADC__FSIGNED) && \
 262:.\Generated_Source\PSoC4/ADC.c ****                 (ADC_DEFAULT_NEG_INPUT_SEL == ADC__VREF))
 263:.\Generated_Source\PSoC4/ADC.c ****                 /* Set offset to the minus half scale to convert results to unsigned format */
ARM GAS  C:\Users\Pablo\AppData\Local\Temp\cctY477n.s 			page 7


 264:.\Generated_Source\PSoC4/ADC.c ****                 ADC_offset[chNum] = (int16)(counts / -2);
 265:.\Generated_Source\PSoC4/ADC.c ****             #else
 266:.\Generated_Source\PSoC4/ADC.c ****                 ADC_offset[chNum] = 0;
 267:.\Generated_Source\PSoC4/ADC.c ****             #endif /* end DEFAULT_SE_RESULT_FORMAT_SEL == ADC__FSIGNED */
 268:.\Generated_Source\PSoC4/ADC.c ****         }
 269:.\Generated_Source\PSoC4/ADC.c ****         else    /* Differential channel */
 270:.\Generated_Source\PSoC4/ADC.c ****         {
 271:.\Generated_Source\PSoC4/ADC.c ****             #if(ADC_DEFAULT_DIFF_RESULT_FORMAT_SEL == ADC__FUNSIGNED)
 272:.\Generated_Source\PSoC4/ADC.c ****                 /* Set offset to the half scale to convert results to signed format */
 273:.\Generated_Source\PSoC4/ADC.c ****                 ADC_offset[chNum] = (int16)(counts / 2);
 274:.\Generated_Source\PSoC4/ADC.c ****             #else
 275:.\Generated_Source\PSoC4/ADC.c ****                 ADC_offset[chNum] = 0;
 276:.\Generated_Source\PSoC4/ADC.c ****             #endif /* end ADC_DEFAULT_DIFF_RESULT_FORMAT_SEL == ADC__FUNSIGNED */
 277:.\Generated_Source\PSoC4/ADC.c ****         }
 278:.\Generated_Source\PSoC4/ADC.c ****         /* Calculate gain in counts per 10 volts with rounding */
 279:.\Generated_Source\PSoC4/ADC.c ****         ADC_countsPer10Volt[chNum] = (int16)(((counts * ADC_10MV_COUNTS) +
 280:.\Generated_Source\PSoC4/ADC.c ****                             ADC_DEFAULT_VREF_MV_VALUE) / (ADC_DEFAULT_VREF_MV_VALUE * 2));
 281:.\Generated_Source\PSoC4/ADC.c ****     }
 282:.\Generated_Source\PSoC4/ADC.c **** }
  75              		.loc 1 282 0 discriminator 3
  76              		@ sp needed
 151:.\Generated_Source\PSoC4/ADC.c ****     ADC_SAR_RANGE_THRES_REG = ADC_DEFAULT_RANGE_THRES_REG_CFG;
  77              		.loc 1 151 0 discriminator 3
  78 003a 1A60     		str	r2, [r3]
 152:.\Generated_Source\PSoC4/ADC.c ****     ADC_SAR_RANGE_COND_REG  = ADC_COMPARE_MODE;
  79              		.loc 1 152 0 discriminator 3
  80 003c 1E4A     		ldr	r2, .L5+44
  81 003e 0023     		mov	r3, #0
  82 0040 1360     		str	r3, [r2]
 153:.\Generated_Source\PSoC4/ADC.c ****     ADC_SAR_SAMPLE_TIME01_REG = ADC_DEFAULT_SAMPLE_TIME01_REG_CFG;
  83              		.loc 1 153 0 discriminator 3
  84 0042 1E4A     		ldr	r2, .L5+48
  85 0044 1160     		str	r1, [r2]
 154:.\Generated_Source\PSoC4/ADC.c ****     ADC_SAR_SAMPLE_TIME23_REG = ADC_DEFAULT_SAMPLE_TIME23_REG_CFG;
  86              		.loc 1 154 0 discriminator 3
  87 0046 1E49     		ldr	r1, .L5+52
  88 0048 1E4A     		ldr	r2, .L5+56
  89 004a 1160     		str	r1, [r2]
 158:.\Generated_Source\PSoC4/ADC.c ****         ADC_MUX_SWITCH0_REG |= ADC_DEFAULT_MUX_SWITCH0;
  90              		.loc 1 158 0 discriminator 3
  91 004c 1E4A     		ldr	r2, .L5+60
  92 004e 8021     		mov	r1, #128
  93 0050 1068     		ldr	r0, [r2]
  94 0052 4902     		lsl	r1, r1, #9
  95 0054 0143     		orr	r1, r0
  96 0056 1160     		str	r1, [r2]
 165:.\Generated_Source\PSoC4/ADC.c ****     ADC_SAR_SATURATE_INTR_MASK_REG = 0u;
  97              		.loc 1 165 0 discriminator 3
  98 0058 1C4A     		ldr	r2, .L5+64
 167:.\Generated_Source\PSoC4/ADC.c ****     ADC_SAR_INTR_MASK_REG = ADC_SAR_INTR_MASK;
  99              		.loc 1 167 0 discriminator 3
 100 005a 0121     		mov	r1, #1
 165:.\Generated_Source\PSoC4/ADC.c ****     ADC_SAR_SATURATE_INTR_MASK_REG = 0u;
 101              		.loc 1 165 0 discriminator 3
 102 005c 1360     		str	r3, [r2]
 166:.\Generated_Source\PSoC4/ADC.c ****     ADC_SAR_RANGE_INTR_MASK_REG = 0u;
 103              		.loc 1 166 0 discriminator 3
ARM GAS  C:\Users\Pablo\AppData\Local\Temp\cctY477n.s 			page 8


 104 005e 1C4A     		ldr	r2, .L5+68
 170:.\Generated_Source\PSoC4/ADC.c ****         ADC_ANA_TRIM_REG = ADC_TRIM_COEF;
 105              		.loc 1 170 0 discriminator 3
 106 0060 0220     		mov	r0, #2
 166:.\Generated_Source\PSoC4/ADC.c ****     ADC_SAR_RANGE_INTR_MASK_REG = 0u;
 107              		.loc 1 166 0 discriminator 3
 108 0062 1360     		str	r3, [r2]
 167:.\Generated_Source\PSoC4/ADC.c ****     ADC_SAR_INTR_MASK_REG = ADC_SAR_INTR_MASK;
 109              		.loc 1 167 0 discriminator 3
 110 0064 1B4A     		ldr	r2, .L5+72
 111 0066 1160     		str	r1, [r2]
 170:.\Generated_Source\PSoC4/ADC.c ****         ADC_ANA_TRIM_REG = ADC_TRIM_COEF;
 112              		.loc 1 170 0 discriminator 3
 113 0068 1B4A     		ldr	r2, .L5+76
 114 006a 1060     		str	r0, [r2]
 174:.\Generated_Source\PSoC4/ADC.c ****     tmpRegVal = ADC_SAR_DFT_CTRL_REG;
 115              		.loc 1 174 0 discriminator 3
 116 006c 1B4A     		ldr	r2, .L5+80
 175:.\Generated_Source\PSoC4/ADC.c ****     tmpRegVal &= (uint32)~ADC_DCEN;
 117              		.loc 1 175 0 discriminator 3
 118 006e 1C48     		ldr	r0, .L5+84
 174:.\Generated_Source\PSoC4/ADC.c ****     tmpRegVal = ADC_SAR_DFT_CTRL_REG;
 119              		.loc 1 174 0 discriminator 3
 120 0070 1468     		ldr	r4, [r2]
 121              	.LVL2:
 175:.\Generated_Source\PSoC4/ADC.c ****     tmpRegVal &= (uint32)~ADC_DCEN;
 122              		.loc 1 175 0 discriminator 3
 123 0072 2040     		and	r0, r4
 124              	.LVL3:
 181:.\Generated_Source\PSoC4/ADC.c ****             tmpRegVal |= ADC_DLY_INC;
 125              		.loc 1 181 0 discriminator 3
 126 0074 0143     		orr	r1, r0
 127              	.LVL4:
 194:.\Generated_Source\PSoC4/ADC.c ****     ADC_SAR_DFT_CTRL_REG = tmpRegVal;
 128              		.loc 1 194 0 discriminator 3
 129 0076 1160     		str	r1, [r2]
 130              	.LVL5:
 221:.\Generated_Source\PSoC4/ADC.c ****             CY_SET_REG32((reg32 *)(ADC_SAR_CHAN_CONFIG_IND + (uint32)(chNum << 2)), tmpRegVal);
 131              		.loc 1 221 0 discriminator 3
 132 0078 1A4A     		ldr	r2, .L5+88
 133 007a 8021     		mov	r1, #128
 134 007c C900     		lsl	r1, r1, #3
 135 007e 1160     		str	r1, [r2]
 136              	.LVL6:
 266:.\Generated_Source\PSoC4/ADC.c ****                 ADC_offset[chNum] = 0;
 137              		.loc 1 266 0 discriminator 3
 138 0080 194A     		ldr	r2, .L5+92
 139 0082 1380     		strh	r3, [r2]
 279:.\Generated_Source\PSoC4/ADC.c ****         ADC_countsPer10Volt[chNum] = (int16)(((counts * ADC_10MV_COUNTS) +
 140              		.loc 1 279 0 discriminator 3
 141 0084 194A     		ldr	r2, .L5+96
 142 0086 1A4B     		ldr	r3, .L5+100
 143 0088 1A60     		str	r2, [r3]
 144              	.LVL7:
 145              		.loc 1 282 0 discriminator 3
 146 008a 10BD     		pop	{r4, pc}
 147              	.L6:
ARM GAS  C:\Users\Pablo\AppData\Local\Temp\cctY477n.s 			page 9


 148              		.align	2
 149              	.L5:
 150 008c 00000000 		.word	ADC_ISR
 151 0090 20001A40 		.word	1075445792
 152 0094 00001A40 		.word	1075445760
 153 0098 80031A40 		.word	1075446656
 154 009c C0021050 		.word	1343226560
 155 00a0 C0020050 		.word	1342177984
 156 00a4 A4000080 		.word	-2147483484
 157 00a8 04001A40 		.word	1075445764
 158 00ac D8000400 		.word	262360
 159 00b0 0000FF07 		.word	134152192
 160 00b4 18001A40 		.word	1075445784
 161 00b8 1C001A40 		.word	1075445788
 162 00bc 10001A40 		.word	1075445776
 163 00c0 04000400 		.word	262148
 164 00c4 14001A40 		.word	1075445780
 165 00c8 00031A40 		.word	1075446528
 166 00cc 28021A40 		.word	1075446312
 167 00d0 38021A40 		.word	1075446328
 168 00d4 18021A40 		.word	1075446296
 169 00d8 000F1A40 		.word	1075449600
 170 00dc 30001A40 		.word	1075445808
 171 00e0 FFFFFFDF 		.word	-536870913
 172 00e4 80001A40 		.word	1075445888
 173 00e8 00000000 		.word	ADC_offset
 174 00ec 204E0000 		.word	20000
 175 00f0 00000000 		.word	ADC_countsPer10Volt
 176              		.cfi_endproc
 177              	.LFE1:
 178              		.size	ADC_Init, .-ADC_Init
 179              		.section	.text.ADC_Enable,"ax",%progbits
 180              		.align	1
 181              		.global	ADC_Enable
 182              		.code	16
 183              		.thumb_func
 184              		.type	ADC_Enable, %function
 185              	ADC_Enable:
 186              	.LFB2:
 283:.\Generated_Source\PSoC4/ADC.c **** 
 284:.\Generated_Source\PSoC4/ADC.c **** /*******************************************************************************
 285:.\Generated_Source\PSoC4/ADC.c **** * Function Name: ADC_SAR_1_Enable
 286:.\Generated_Source\PSoC4/ADC.c **** ********************************************************************************
 287:.\Generated_Source\PSoC4/ADC.c **** *
 288:.\Generated_Source\PSoC4/ADC.c **** * Summary:
 289:.\Generated_Source\PSoC4/ADC.c **** *  Enables the clock and analog power for SAR ADC.
 290:.\Generated_Source\PSoC4/ADC.c **** *
 291:.\Generated_Source\PSoC4/ADC.c **** * Parameters:
 292:.\Generated_Source\PSoC4/ADC.c **** *  None.
 293:.\Generated_Source\PSoC4/ADC.c **** *
 294:.\Generated_Source\PSoC4/ADC.c **** * Return:
 295:.\Generated_Source\PSoC4/ADC.c **** *  None.
 296:.\Generated_Source\PSoC4/ADC.c **** *
 297:.\Generated_Source\PSoC4/ADC.c **** *******************************************************************************/
 298:.\Generated_Source\PSoC4/ADC.c **** void ADC_Enable(void)
 299:.\Generated_Source\PSoC4/ADC.c **** {
 187              		.loc 1 299 0
ARM GAS  C:\Users\Pablo\AppData\Local\Temp\cctY477n.s 			page 10


 188              		.cfi_startproc
 189 0000 08B5     		push	{r3, lr}
 190              		.cfi_def_cfa_offset 8
 191              		.cfi_offset 3, -8
 192              		.cfi_offset 14, -4
 300:.\Generated_Source\PSoC4/ADC.c ****     if (0u == (ADC_SAR_CTRL_REG & ADC_ENABLE))
 193              		.loc 1 300 0
 194 0002 064B     		ldr	r3, .L9
 195 0004 1A68     		ldr	r2, [r3]
 196 0006 002A     		cmp	r2, #0
 197 0008 07DB     		blt	.L7
 301:.\Generated_Source\PSoC4/ADC.c ****     {
 302:.\Generated_Source\PSoC4/ADC.c ****         #if(ADC_CY_SAR_IP_VER != ADC_CY_SAR_IP_PSOC4)
 303:.\Generated_Source\PSoC4/ADC.c **** 
 304:.\Generated_Source\PSoC4/ADC.c ****             while (0u != (ADC_SAR_STATUS_REG & ADC_STATUS_BUSY))
 305:.\Generated_Source\PSoC4/ADC.c ****             {
 306:.\Generated_Source\PSoC4/ADC.c ****                 /* wait for SAR to go idle for to avoid deadlock */
 307:.\Generated_Source\PSoC4/ADC.c ****             }
 308:.\Generated_Source\PSoC4/ADC.c ****         #endif /* (ADC_CY_SAR_IP_VER != ADC_CY_SAR_IP_PSOC4) */
 309:.\Generated_Source\PSoC4/ADC.c ****         
 310:.\Generated_Source\PSoC4/ADC.c ****         ADC_SAR_CTRL_REG |= ADC_ENABLE;
 198              		.loc 1 310 0
 199 000a 1968     		ldr	r1, [r3]
 200 000c 8022     		mov	r2, #128
 201 000e 1206     		lsl	r2, r2, #24
 202 0010 0A43     		orr	r2, r1
 203 0012 1A60     		str	r2, [r3]
 311:.\Generated_Source\PSoC4/ADC.c ****         
 312:.\Generated_Source\PSoC4/ADC.c ****         /* The block is ready to use 10 us after the enable signal is set high. */
 313:.\Generated_Source\PSoC4/ADC.c ****         CyDelayUs(ADC_10US_DELAY);         
 204              		.loc 1 313 0
 205 0014 0A20     		mov	r0, #10
 206 0016 FFF7FEFF 		bl	CyDelayUs
 207              	.LVL8:
 208              	.L7:
 314:.\Generated_Source\PSoC4/ADC.c ****     }
 315:.\Generated_Source\PSoC4/ADC.c **** }
 209              		.loc 1 315 0
 210              		@ sp needed
 211 001a 08BD     		pop	{r3, pc}
 212              	.L10:
 213              		.align	2
 214              	.L9:
 215 001c 00001A40 		.word	1075445760
 216              		.cfi_endproc
 217              	.LFE2:
 218              		.size	ADC_Enable, .-ADC_Enable
 219              		.section	.text.ADC_Start,"ax",%progbits
 220              		.align	1
 221              		.global	ADC_Start
 222              		.code	16
 223              		.thumb_func
 224              		.type	ADC_Start, %function
 225              	ADC_Start:
 226              	.LFB0:
  64:.\Generated_Source\PSoC4/ADC.c **** {
 227              		.loc 1 64 0
ARM GAS  C:\Users\Pablo\AppData\Local\Temp\cctY477n.s 			page 11


 228              		.cfi_startproc
 229 0000 10B5     		push	{r4, lr}
 230              		.cfi_def_cfa_offset 8
 231              		.cfi_offset 4, -8
 232              		.cfi_offset 14, -4
  66:.\Generated_Source\PSoC4/ADC.c ****     if(ADC_initVar == 0u)
 233              		.loc 1 66 0
 234 0002 054C     		ldr	r4, .L13
 235 0004 2378     		ldrb	r3, [r4]
 236 0006 002B     		cmp	r3, #0
 237 0008 03D1     		bne	.L12
  68:.\Generated_Source\PSoC4/ADC.c ****         ADC_Init();
 238              		.loc 1 68 0
 239 000a FFF7FEFF 		bl	ADC_Init
 240              	.LVL9:
  69:.\Generated_Source\PSoC4/ADC.c ****         ADC_initVar = 1u;
 241              		.loc 1 69 0
 242 000e 0123     		mov	r3, #1
 243 0010 2370     		strb	r3, [r4]
 244              	.L12:
  71:.\Generated_Source\PSoC4/ADC.c ****     ADC_Enable();
 245              		.loc 1 71 0
 246 0012 FFF7FEFF 		bl	ADC_Enable
 247              	.LVL10:
  72:.\Generated_Source\PSoC4/ADC.c **** }
 248              		.loc 1 72 0
 249              		@ sp needed
 250 0016 10BD     		pop	{r4, pc}
 251              	.L14:
 252              		.align	2
 253              	.L13:
 254 0018 00000000 		.word	.LANCHOR0
 255              		.cfi_endproc
 256              	.LFE0:
 257              		.size	ADC_Start, .-ADC_Start
 258              		.section	.text.ADC_Stop,"ax",%progbits
 259              		.align	1
 260              		.global	ADC_Stop
 261              		.code	16
 262              		.thumb_func
 263              		.type	ADC_Stop, %function
 264              	ADC_Stop:
 265              	.LFB3:
 316:.\Generated_Source\PSoC4/ADC.c **** 
 317:.\Generated_Source\PSoC4/ADC.c **** 
 318:.\Generated_Source\PSoC4/ADC.c **** /*******************************************************************************
 319:.\Generated_Source\PSoC4/ADC.c **** * Function Name: ADC_Stop
 320:.\Generated_Source\PSoC4/ADC.c **** ********************************************************************************
 321:.\Generated_Source\PSoC4/ADC.c **** *
 322:.\Generated_Source\PSoC4/ADC.c **** * Summary:
 323:.\Generated_Source\PSoC4/ADC.c **** *  This function stops ADC conversions and puts the ADC into its lowest power
 324:.\Generated_Source\PSoC4/ADC.c **** *  mode.
 325:.\Generated_Source\PSoC4/ADC.c **** *
 326:.\Generated_Source\PSoC4/ADC.c **** * Parameters:
 327:.\Generated_Source\PSoC4/ADC.c **** *  None.
 328:.\Generated_Source\PSoC4/ADC.c **** *
 329:.\Generated_Source\PSoC4/ADC.c **** * Return:
ARM GAS  C:\Users\Pablo\AppData\Local\Temp\cctY477n.s 			page 12


 330:.\Generated_Source\PSoC4/ADC.c **** *  None.
 331:.\Generated_Source\PSoC4/ADC.c **** *
 332:.\Generated_Source\PSoC4/ADC.c **** *******************************************************************************/
 333:.\Generated_Source\PSoC4/ADC.c **** void ADC_Stop(void)
 334:.\Generated_Source\PSoC4/ADC.c **** {
 266              		.loc 1 334 0
 267              		.cfi_startproc
 335:.\Generated_Source\PSoC4/ADC.c ****     ADC_SAR_CTRL_REG &= (uint32)~ADC_ENABLE;
 268              		.loc 1 335 0
 269 0000 024B     		ldr	r3, .L16
 336:.\Generated_Source\PSoC4/ADC.c **** }
 270              		.loc 1 336 0
 271              		@ sp needed
 335:.\Generated_Source\PSoC4/ADC.c ****     ADC_SAR_CTRL_REG &= (uint32)~ADC_ENABLE;
 272              		.loc 1 335 0
 273 0002 1A68     		ldr	r2, [r3]
 274 0004 5200     		lsl	r2, r2, #1
 275 0006 5208     		lsr	r2, r2, #1
 276 0008 1A60     		str	r2, [r3]
 277              		.loc 1 336 0
 278 000a 7047     		bx	lr
 279              	.L17:
 280              		.align	2
 281              	.L16:
 282 000c 00001A40 		.word	1075445760
 283              		.cfi_endproc
 284              	.LFE3:
 285              		.size	ADC_Stop, .-ADC_Stop
 286              		.section	.text.ADC_StartConvert,"ax",%progbits
 287              		.align	1
 288              		.global	ADC_StartConvert
 289              		.code	16
 290              		.thumb_func
 291              		.type	ADC_StartConvert, %function
 292              	ADC_StartConvert:
 293              	.LFB4:
 337:.\Generated_Source\PSoC4/ADC.c **** 
 338:.\Generated_Source\PSoC4/ADC.c **** 
 339:.\Generated_Source\PSoC4/ADC.c **** /*******************************************************************************
 340:.\Generated_Source\PSoC4/ADC.c **** * Function Name: ADC_StartConvert
 341:.\Generated_Source\PSoC4/ADC.c **** ********************************************************************************
 342:.\Generated_Source\PSoC4/ADC.c **** *
 343:.\Generated_Source\PSoC4/ADC.c **** * Summary:
 344:.\Generated_Source\PSoC4/ADC.c **** *  Description:
 345:.\Generated_Source\PSoC4/ADC.c **** *  For free running mode, this API starts the conversion process and it
 346:.\Generated_Source\PSoC4/ADC.c **** *  runs continuously.
 347:.\Generated_Source\PSoC4/ADC.c **** *
 348:.\Generated_Source\PSoC4/ADC.c **** *  In a triggered mode, this routine triggers every conversion by
 349:.\Generated_Source\PSoC4/ADC.c **** *  writing into the FW_TRIGGER bit in SAR_START_CTRL reg. In triggered mode,
 350:.\Generated_Source\PSoC4/ADC.c **** *  every conversion has to start by this API.
 351:.\Generated_Source\PSoC4/ADC.c **** *
 352:.\Generated_Source\PSoC4/ADC.c **** * Parameters:
 353:.\Generated_Source\PSoC4/ADC.c **** *  None.
 354:.\Generated_Source\PSoC4/ADC.c **** *
 355:.\Generated_Source\PSoC4/ADC.c **** * Return:
 356:.\Generated_Source\PSoC4/ADC.c **** *  None.
 357:.\Generated_Source\PSoC4/ADC.c **** *
ARM GAS  C:\Users\Pablo\AppData\Local\Temp\cctY477n.s 			page 13


 358:.\Generated_Source\PSoC4/ADC.c **** *******************************************************************************/
 359:.\Generated_Source\PSoC4/ADC.c **** void ADC_StartConvert(void)
 360:.\Generated_Source\PSoC4/ADC.c **** {
 294              		.loc 1 360 0
 295              		.cfi_startproc
 361:.\Generated_Source\PSoC4/ADC.c ****     #if(ADC_DEFAULT_SAMPLE_MODE_SEL == ADC__FREERUNNING)
 362:.\Generated_Source\PSoC4/ADC.c ****         ADC_SAR_SAMPLE_CTRL_REG |= ADC_CONTINUOUS_EN;
 296              		.loc 1 362 0
 297 0000 034B     		ldr	r3, .L19
 298 0002 8022     		mov	r2, #128
 299 0004 1968     		ldr	r1, [r3]
 300 0006 5202     		lsl	r2, r2, #9
 301 0008 0A43     		orr	r2, r1
 302 000a 1A60     		str	r2, [r3]
 363:.\Generated_Source\PSoC4/ADC.c ****     #else /* Firmware trigger */
 364:.\Generated_Source\PSoC4/ADC.c ****         ADC_SAR_START_CTRL_REG = ADC_FW_TRIGGER;
 365:.\Generated_Source\PSoC4/ADC.c ****     #endif /* End ADC_DEFAULT_SAMPLE_MODE == ADC__FREERUNNING */
 366:.\Generated_Source\PSoC4/ADC.c **** 
 367:.\Generated_Source\PSoC4/ADC.c **** }
 303              		.loc 1 367 0
 304              		@ sp needed
 305 000c 7047     		bx	lr
 306              	.L20:
 307 000e C046     		.align	2
 308              	.L19:
 309 0010 04001A40 		.word	1075445764
 310              		.cfi_endproc
 311              	.LFE4:
 312              		.size	ADC_StartConvert, .-ADC_StartConvert
 313              		.section	.text.ADC_StopConvert,"ax",%progbits
 314              		.align	1
 315              		.global	ADC_StopConvert
 316              		.code	16
 317              		.thumb_func
 318              		.type	ADC_StopConvert, %function
 319              	ADC_StopConvert:
 320              	.LFB5:
 368:.\Generated_Source\PSoC4/ADC.c **** 
 369:.\Generated_Source\PSoC4/ADC.c **** 
 370:.\Generated_Source\PSoC4/ADC.c **** /*******************************************************************************
 371:.\Generated_Source\PSoC4/ADC.c **** * Function Name: ADC_StopConvert
 372:.\Generated_Source\PSoC4/ADC.c **** ********************************************************************************
 373:.\Generated_Source\PSoC4/ADC.c **** *
 374:.\Generated_Source\PSoC4/ADC.c **** * Summary:
 375:.\Generated_Source\PSoC4/ADC.c **** *  Forces the ADC to stop all conversions.
 376:.\Generated_Source\PSoC4/ADC.c **** *
 377:.\Generated_Source\PSoC4/ADC.c **** * Parameters:
 378:.\Generated_Source\PSoC4/ADC.c **** *  None.
 379:.\Generated_Source\PSoC4/ADC.c **** *
 380:.\Generated_Source\PSoC4/ADC.c **** * Return:
 381:.\Generated_Source\PSoC4/ADC.c **** *  None.
 382:.\Generated_Source\PSoC4/ADC.c **** *
 383:.\Generated_Source\PSoC4/ADC.c **** *******************************************************************************/
 384:.\Generated_Source\PSoC4/ADC.c **** void ADC_StopConvert(void)
 385:.\Generated_Source\PSoC4/ADC.c **** {
 321              		.loc 1 385 0
 322              		.cfi_startproc
ARM GAS  C:\Users\Pablo\AppData\Local\Temp\cctY477n.s 			page 14


 386:.\Generated_Source\PSoC4/ADC.c ****     #if(ADC_DEFAULT_SAMPLE_MODE_SEL == ADC__FREERUNNING)
 387:.\Generated_Source\PSoC4/ADC.c ****         ADC_SAR_SAMPLE_CTRL_REG &= (uint32)(~ADC_CONTINUOUS_EN);
 323              		.loc 1 387 0
 324 0000 024B     		ldr	r3, .L22
 325 0002 034A     		ldr	r2, .L22+4
 326 0004 1968     		ldr	r1, [r3]
 388:.\Generated_Source\PSoC4/ADC.c ****     #endif /* ADC_DEFAULT_SAMPLE_MODE == ADC__FREERUNNING */
 389:.\Generated_Source\PSoC4/ADC.c **** }
 327              		.loc 1 389 0
 328              		@ sp needed
 387:.\Generated_Source\PSoC4/ADC.c ****         ADC_SAR_SAMPLE_CTRL_REG &= (uint32)(~ADC_CONTINUOUS_EN);
 329              		.loc 1 387 0
 330 0006 0A40     		and	r2, r1
 331 0008 1A60     		str	r2, [r3]
 332              		.loc 1 389 0
 333 000a 7047     		bx	lr
 334              	.L23:
 335              		.align	2
 336              	.L22:
 337 000c 04001A40 		.word	1075445764
 338 0010 FFFFFEFF 		.word	-65537
 339              		.cfi_endproc
 340              	.LFE5:
 341              		.size	ADC_StopConvert, .-ADC_StopConvert
 342              		.section	.text.ADC_IsEndConversion,"ax",%progbits
 343              		.align	1
 344              		.global	ADC_IsEndConversion
 345              		.code	16
 346              		.thumb_func
 347              		.type	ADC_IsEndConversion, %function
 348              	ADC_IsEndConversion:
 349              	.LFB6:
 390:.\Generated_Source\PSoC4/ADC.c **** 
 391:.\Generated_Source\PSoC4/ADC.c **** 
 392:.\Generated_Source\PSoC4/ADC.c **** /*******************************************************************************
 393:.\Generated_Source\PSoC4/ADC.c **** * Function Name: ADC_IsEndConversion
 394:.\Generated_Source\PSoC4/ADC.c **** ********************************************************************************
 395:.\Generated_Source\PSoC4/ADC.c **** *
 396:.\Generated_Source\PSoC4/ADC.c **** * Summary:
 397:.\Generated_Source\PSoC4/ADC.c **** *  Description: Checks for ADC end of conversion for the case one
 398:.\Generated_Source\PSoC4/ADC.c **** *  channel and end of scan for the case of multiple channels. It acts
 399:.\Generated_Source\PSoC4/ADC.c **** *  as a software version of the EOC. This function provides the
 400:.\Generated_Source\PSoC4/ADC.c **** *  programmer with two options. In one mode this function
 401:.\Generated_Source\PSoC4/ADC.c **** *  immediately returns with the conversion status. In the other mode,
 402:.\Generated_Source\PSoC4/ADC.c **** *  the function does not return (blocking) until the conversion has
 403:.\Generated_Source\PSoC4/ADC.c **** *  completed.
 404:.\Generated_Source\PSoC4/ADC.c **** *
 405:.\Generated_Source\PSoC4/ADC.c **** * Parameters:
 406:.\Generated_Source\PSoC4/ADC.c **** *  ADC_RETURN_STATUS        -> Immediately returns conversion result status
 407:.\Generated_Source\PSoC4/ADC.c **** *  ADC_WAIT_FOR_RESULT      -> Does not return until ADC complete
 408:.\Generated_Source\PSoC4/ADC.c **** *  ADC_RETURN_STATUS_INJ    -> Immediately returns conversion result status
 409:.\Generated_Source\PSoC4/ADC.c **** *                              for injection channel
 410:.\Generated_Source\PSoC4/ADC.c **** *  ADC_WAIT_FOR_RESULT_INJ  -> Does not return until ADC completes injection
 411:.\Generated_Source\PSoC4/ADC.c **** *                              channel conversion
 412:.\Generated_Source\PSoC4/ADC.c **** *
 413:.\Generated_Source\PSoC4/ADC.c **** * Return:
 414:.\Generated_Source\PSoC4/ADC.c **** *  If a non-zero value is returned, the last conversion or scan has completed.
ARM GAS  C:\Users\Pablo\AppData\Local\Temp\cctY477n.s 			page 15


 415:.\Generated_Source\PSoC4/ADC.c **** *  If the returned value is zero, the ADC is still in the process of a scan.
 416:.\Generated_Source\PSoC4/ADC.c **** *
 417:.\Generated_Source\PSoC4/ADC.c **** *******************************************************************************/
 418:.\Generated_Source\PSoC4/ADC.c **** uint32 ADC_IsEndConversion(uint32 retMode)
 419:.\Generated_Source\PSoC4/ADC.c **** {
 350              		.loc 1 419 0
 351              		.cfi_startproc
 352              	.LVL11:
 353              		.loc 1 419 0
 354 0000 011C     		mov	r1, r0
 420:.\Generated_Source\PSoC4/ADC.c ****     uint32 status = 0u;
 355              		.loc 1 420 0
 356 0002 0020     		mov	r0, #0
 357              	.LVL12:
 421:.\Generated_Source\PSoC4/ADC.c **** 
 422:.\Generated_Source\PSoC4/ADC.c ****     if((retMode & (ADC_RETURN_STATUS | ADC_WAIT_FOR_RESULT)) != 0u)
 358              		.loc 1 422 0
 359 0004 8B07     		lsl	r3, r1, #30
 360 0006 09D0     		beq	.L30
 361              	.LVL13:
 362              	.L27:
 423:.\Generated_Source\PSoC4/ADC.c ****     {
 424:.\Generated_Source\PSoC4/ADC.c ****         do
 425:.\Generated_Source\PSoC4/ADC.c ****         {
 426:.\Generated_Source\PSoC4/ADC.c ****             status = ADC_SAR_INTR_REG & ADC_EOS_MASK;
 363              		.loc 1 426 0
 364 0008 054A     		ldr	r2, .L34
 365 000a 0123     		mov	r3, #1
 366 000c 1068     		ldr	r0, [r2]
 367 000e 1840     		and	r0, r3
 368              	.LVL14:
 427:.\Generated_Source\PSoC4/ADC.c ****         }while((status == 0u) && ((retMode & ADC_WAIT_FOR_RESULT) != 0u));
 369              		.loc 1 427 0
 370 0010 02D1     		bne	.L26
 371              		.loc 1 427 0 is_stmt 0 discriminator 1
 372 0012 8B07     		lsl	r3, r1, #30
 373 0014 F8D4     		bmi	.L27
 374 0016 01E0     		b	.L30
 375              	.L26:
 428:.\Generated_Source\PSoC4/ADC.c **** 
 429:.\Generated_Source\PSoC4/ADC.c ****         if(status != 0u)
 430:.\Generated_Source\PSoC4/ADC.c ****         {
 431:.\Generated_Source\PSoC4/ADC.c ****             /* Clear EOS bit */
 432:.\Generated_Source\PSoC4/ADC.c ****             ADC_SAR_INTR_REG = ADC_EOS_MASK;
 376              		.loc 1 432 0 is_stmt 1
 377 0018 1360     		str	r3, [r2]
 378 001a 181C     		mov	r0, r3
 379              	.LVL15:
 380              	.L30:
 433:.\Generated_Source\PSoC4/ADC.c ****         }
 434:.\Generated_Source\PSoC4/ADC.c ****     }
 435:.\Generated_Source\PSoC4/ADC.c **** 
 436:.\Generated_Source\PSoC4/ADC.c ****     #if(ADC_INJ_CHANNEL_ENABLED)
 437:.\Generated_Source\PSoC4/ADC.c ****         if((retMode & (ADC_RETURN_STATUS_INJ | ADC_WAIT_FOR_RESULT_INJ)) != 0u)
 438:.\Generated_Source\PSoC4/ADC.c ****         {
 439:.\Generated_Source\PSoC4/ADC.c ****             do
 440:.\Generated_Source\PSoC4/ADC.c ****             {
ARM GAS  C:\Users\Pablo\AppData\Local\Temp\cctY477n.s 			page 16


 441:.\Generated_Source\PSoC4/ADC.c ****                 status |= ADC_SAR_INTR_REG & ADC_INJ_EOC_MASK;
 442:.\Generated_Source\PSoC4/ADC.c ****             }while(((status & ADC_INJ_EOC_MASK) == 0u) &&
 443:.\Generated_Source\PSoC4/ADC.c ****                    ((retMode & ADC_WAIT_FOR_RESULT_INJ) != 0u));
 444:.\Generated_Source\PSoC4/ADC.c **** 
 445:.\Generated_Source\PSoC4/ADC.c ****             if((status & ADC_INJ_EOC_MASK) != 0u)
 446:.\Generated_Source\PSoC4/ADC.c ****             {
 447:.\Generated_Source\PSoC4/ADC.c ****                 /* Clear Injection EOS bit */
 448:.\Generated_Source\PSoC4/ADC.c ****                 ADC_SAR_INTR_REG = ADC_INJ_EOC_MASK;
 449:.\Generated_Source\PSoC4/ADC.c ****             }
 450:.\Generated_Source\PSoC4/ADC.c ****         }
 451:.\Generated_Source\PSoC4/ADC.c ****     #endif /* ADC_INJ_CHANNEL_ENABLED */
 452:.\Generated_Source\PSoC4/ADC.c **** 
 453:.\Generated_Source\PSoC4/ADC.c ****     return (status);
 454:.\Generated_Source\PSoC4/ADC.c **** }
 381              		.loc 1 454 0
 382              		@ sp needed
 383 001c 7047     		bx	lr
 384              	.L35:
 385 001e C046     		.align	2
 386              	.L34:
 387 0020 10021A40 		.word	1075446288
 388              		.cfi_endproc
 389              	.LFE6:
 390              		.size	ADC_IsEndConversion, .-ADC_IsEndConversion
 391              		.section	.text.ADC_GetResult16,"ax",%progbits
 392              		.align	1
 393              		.global	ADC_GetResult16
 394              		.code	16
 395              		.thumb_func
 396              		.type	ADC_GetResult16, %function
 397              	ADC_GetResult16:
 398              	.LFB7:
 455:.\Generated_Source\PSoC4/ADC.c **** 
 456:.\Generated_Source\PSoC4/ADC.c **** 
 457:.\Generated_Source\PSoC4/ADC.c **** /*******************************************************************************
 458:.\Generated_Source\PSoC4/ADC.c **** * Function Name: ADC_GetResult16
 459:.\Generated_Source\PSoC4/ADC.c **** ********************************************************************************
 460:.\Generated_Source\PSoC4/ADC.c **** *
 461:.\Generated_Source\PSoC4/ADC.c **** * Summary:
 462:.\Generated_Source\PSoC4/ADC.c **** *  Gets the data available in the SAR DATA register.
 463:.\Generated_Source\PSoC4/ADC.c **** *
 464:.\Generated_Source\PSoC4/ADC.c **** * Parameters:
 465:.\Generated_Source\PSoC4/ADC.c **** *  chan: The ADC channel in which to return the result. The first channel
 466:.\Generated_Source\PSoC4/ADC.c **** *  is 0 and the injection channel if enabled is the number of valid channels.
 467:.\Generated_Source\PSoC4/ADC.c **** *
 468:.\Generated_Source\PSoC4/ADC.c **** * Return:
 469:.\Generated_Source\PSoC4/ADC.c **** *  Returns converted data as a signed 16-bit integer
 470:.\Generated_Source\PSoC4/ADC.c **** *
 471:.\Generated_Source\PSoC4/ADC.c **** *******************************************************************************/
 472:.\Generated_Source\PSoC4/ADC.c **** int16 ADC_GetResult16(uint32 chan)
 473:.\Generated_Source\PSoC4/ADC.c **** {
 399              		.loc 1 473 0
 400              		.cfi_startproc
 401              	.LVL16:
 474:.\Generated_Source\PSoC4/ADC.c ****     uint32 result;
 475:.\Generated_Source\PSoC4/ADC.c **** 
 476:.\Generated_Source\PSoC4/ADC.c ****     /* Halt CPU in debug mode if channel is out of valid range */
ARM GAS  C:\Users\Pablo\AppData\Local\Temp\cctY477n.s 			page 17


 477:.\Generated_Source\PSoC4/ADC.c ****     CYASSERT(chan < ADC_TOTAL_CHANNELS_NUM);
 478:.\Generated_Source\PSoC4/ADC.c **** 
 479:.\Generated_Source\PSoC4/ADC.c ****     if(chan < ADC_SEQUENCED_CHANNELS_NUM)
 480:.\Generated_Source\PSoC4/ADC.c ****     {
 481:.\Generated_Source\PSoC4/ADC.c ****         result = CY_GET_REG32((reg32 *)(ADC_SAR_CHAN_RESULT_IND + (uint32)(chan << 2u))) &
 482:.\Generated_Source\PSoC4/ADC.c ****                 ADC_RESULT_MASK;
 483:.\Generated_Source\PSoC4/ADC.c ****     }
 484:.\Generated_Source\PSoC4/ADC.c ****     else
 485:.\Generated_Source\PSoC4/ADC.c ****     {
 486:.\Generated_Source\PSoC4/ADC.c ****         #if(ADC_INJ_CHANNEL_ENABLED)
 487:.\Generated_Source\PSoC4/ADC.c ****             result = ADC_SAR_INJ_RESULT_REG & ADC_RESULT_MASK;
 488:.\Generated_Source\PSoC4/ADC.c ****         #else
 489:.\Generated_Source\PSoC4/ADC.c ****             result = 0u;
 402              		.loc 1 489 0
 403 0000 0023     		mov	r3, #0
 479:.\Generated_Source\PSoC4/ADC.c ****     if(chan < ADC_SEQUENCED_CHANNELS_NUM)
 404              		.loc 1 479 0
 405 0002 9842     		cmp	r0, r3
 406 0004 02D1     		bne	.L37
 481:.\Generated_Source\PSoC4/ADC.c ****         result = CY_GET_REG32((reg32 *)(ADC_SAR_CHAN_RESULT_IND + (uint32)(chan << 2u))) &
 407              		.loc 1 481 0
 408 0006 024B     		ldr	r3, .L39
 409 0008 1B68     		ldr	r3, [r3]
 410 000a 9BB2     		uxth	r3, r3
 411              	.LVL17:
 412              	.L37:
 490:.\Generated_Source\PSoC4/ADC.c ****         #endif /* ADC_INJ_CHANNEL_ENABLED */
 491:.\Generated_Source\PSoC4/ADC.c ****     }
 492:.\Generated_Source\PSoC4/ADC.c **** 
 493:.\Generated_Source\PSoC4/ADC.c ****     return ( (int16)result );
 413              		.loc 1 493 0
 414 000c 18B2     		sxth	r0, r3
 415              	.LVL18:
 494:.\Generated_Source\PSoC4/ADC.c **** }
 416              		.loc 1 494 0
 417              		@ sp needed
 418 000e 7047     		bx	lr
 419              	.L40:
 420              		.align	2
 421              	.L39:
 422 0010 80011A40 		.word	1075446144
 423              		.cfi_endproc
 424              	.LFE7:
 425              		.size	ADC_GetResult16, .-ADC_GetResult16
 426              		.section	.text.ADC_SetChanMask,"ax",%progbits
 427              		.align	1
 428              		.global	ADC_SetChanMask
 429              		.code	16
 430              		.thumb_func
 431              		.type	ADC_SetChanMask, %function
 432              	ADC_SetChanMask:
 433              	.LFB8:
 495:.\Generated_Source\PSoC4/ADC.c **** 
 496:.\Generated_Source\PSoC4/ADC.c **** 
 497:.\Generated_Source\PSoC4/ADC.c **** /*******************************************************************************
 498:.\Generated_Source\PSoC4/ADC.c **** * Function Name: ADC_SetChanMask
 499:.\Generated_Source\PSoC4/ADC.c **** ********************************************************************************
ARM GAS  C:\Users\Pablo\AppData\Local\Temp\cctY477n.s 			page 18


 500:.\Generated_Source\PSoC4/ADC.c **** *
 501:.\Generated_Source\PSoC4/ADC.c **** * Summary:
 502:.\Generated_Source\PSoC4/ADC.c **** *  Sets the channel enable mask.
 503:.\Generated_Source\PSoC4/ADC.c **** *
 504:.\Generated_Source\PSoC4/ADC.c **** * Parameters:
 505:.\Generated_Source\PSoC4/ADC.c **** *  mask: Sets which channels that will be
 506:.\Generated_Source\PSoC4/ADC.c **** *  scanned. Setting bits for channels that do not exist will have no
 507:.\Generated_Source\PSoC4/ADC.c **** *  effect. For example, if only 6 channels were enabled, setting a
 508:.\Generated_Source\PSoC4/ADC.c **** *  mask of 0x0103 would only enable the last two channels (0 and 1).
 509:.\Generated_Source\PSoC4/ADC.c **** *  This API will not enable the injection channel.
 510:.\Generated_Source\PSoC4/ADC.c **** *  Examples: If the component is setup to sequence through 8
 511:.\Generated_Source\PSoC4/ADC.c **** *  channels, a mask of 0x000F would enable channels 0, 1, 2, and 3.
 512:.\Generated_Source\PSoC4/ADC.c **** *
 513:.\Generated_Source\PSoC4/ADC.c **** * Return:
 514:.\Generated_Source\PSoC4/ADC.c **** *  None.
 515:.\Generated_Source\PSoC4/ADC.c **** *
 516:.\Generated_Source\PSoC4/ADC.c **** *******************************************************************************/
 517:.\Generated_Source\PSoC4/ADC.c **** void ADC_SetChanMask(uint32 mask)
 518:.\Generated_Source\PSoC4/ADC.c **** {
 434              		.loc 1 518 0
 435              		.cfi_startproc
 436              	.LVL19:
 519:.\Generated_Source\PSoC4/ADC.c ****     ADC_SAR_CHAN_EN_REG = mask & ADC_MAX_CHANNELS_EN_MASK;
 437              		.loc 1 519 0
 438 0000 0123     		mov	r3, #1
 439 0002 1840     		and	r0, r3
 440              	.LVL20:
 441 0004 014B     		ldr	r3, .L42
 520:.\Generated_Source\PSoC4/ADC.c **** }
 442              		.loc 1 520 0
 443              		@ sp needed
 519:.\Generated_Source\PSoC4/ADC.c ****     ADC_SAR_CHAN_EN_REG = mask & ADC_MAX_CHANNELS_EN_MASK;
 444              		.loc 1 519 0
 445 0006 1860     		str	r0, [r3]
 446              		.loc 1 520 0
 447 0008 7047     		bx	lr
 448              	.L43:
 449 000a C046     		.align	2
 450              	.L42:
 451 000c 20001A40 		.word	1075445792
 452              		.cfi_endproc
 453              	.LFE8:
 454              		.size	ADC_SetChanMask, .-ADC_SetChanMask
 455              		.section	.text.ADC_SetLowLimit,"ax",%progbits
 456              		.align	1
 457              		.global	ADC_SetLowLimit
 458              		.code	16
 459              		.thumb_func
 460              		.type	ADC_SetLowLimit, %function
 461              	ADC_SetLowLimit:
 462              	.LFB9:
 521:.\Generated_Source\PSoC4/ADC.c **** 
 522:.\Generated_Source\PSoC4/ADC.c **** #if(ADC_INJ_CHANNEL_ENABLED)
 523:.\Generated_Source\PSoC4/ADC.c **** 
 524:.\Generated_Source\PSoC4/ADC.c **** 
 525:.\Generated_Source\PSoC4/ADC.c ****     /*******************************************************************************
 526:.\Generated_Source\PSoC4/ADC.c ****     * Function Name: ADC_EnableInjection
ARM GAS  C:\Users\Pablo\AppData\Local\Temp\cctY477n.s 			page 19


 527:.\Generated_Source\PSoC4/ADC.c ****     ********************************************************************************
 528:.\Generated_Source\PSoC4/ADC.c ****     *
 529:.\Generated_Source\PSoC4/ADC.c ****     * Summary:
 530:.\Generated_Source\PSoC4/ADC.c ****     *  Enables the injection channel for the next scan only.
 531:.\Generated_Source\PSoC4/ADC.c ****     *
 532:.\Generated_Source\PSoC4/ADC.c ****     * Parameters:
 533:.\Generated_Source\PSoC4/ADC.c ****     *  None.
 534:.\Generated_Source\PSoC4/ADC.c ****     *
 535:.\Generated_Source\PSoC4/ADC.c ****     * Return:
 536:.\Generated_Source\PSoC4/ADC.c ****     *  None.
 537:.\Generated_Source\PSoC4/ADC.c ****     *
 538:.\Generated_Source\PSoC4/ADC.c ****     *******************************************************************************/
 539:.\Generated_Source\PSoC4/ADC.c ****     void ADC_EnableInjection(void)
 540:.\Generated_Source\PSoC4/ADC.c ****     {
 541:.\Generated_Source\PSoC4/ADC.c ****         ADC_SAR_INJ_CHAN_CONFIG_REG |= ADC_INJ_CHAN_EN;
 542:.\Generated_Source\PSoC4/ADC.c ****     }
 543:.\Generated_Source\PSoC4/ADC.c **** 
 544:.\Generated_Source\PSoC4/ADC.c **** #endif /* ADC_INJ_CHANNEL_ENABLED */
 545:.\Generated_Source\PSoC4/ADC.c **** 
 546:.\Generated_Source\PSoC4/ADC.c **** 
 547:.\Generated_Source\PSoC4/ADC.c **** /*******************************************************************************
 548:.\Generated_Source\PSoC4/ADC.c **** * Function Name: ADC_SetLowLimit
 549:.\Generated_Source\PSoC4/ADC.c **** ********************************************************************************
 550:.\Generated_Source\PSoC4/ADC.c **** *
 551:.\Generated_Source\PSoC4/ADC.c **** * Summary:
 552:.\Generated_Source\PSoC4/ADC.c **** *  Sets the low limit parameter for a limit condition.
 553:.\Generated_Source\PSoC4/ADC.c **** *
 554:.\Generated_Source\PSoC4/ADC.c **** * Parameters:
 555:.\Generated_Source\PSoC4/ADC.c **** *  lowLimit: The low limit for a limit condition.
 556:.\Generated_Source\PSoC4/ADC.c **** *
 557:.\Generated_Source\PSoC4/ADC.c **** * Return:
 558:.\Generated_Source\PSoC4/ADC.c **** *  None.
 559:.\Generated_Source\PSoC4/ADC.c **** *
 560:.\Generated_Source\PSoC4/ADC.c **** *******************************************************************************/
 561:.\Generated_Source\PSoC4/ADC.c **** void ADC_SetLowLimit(uint32 lowLimit)
 562:.\Generated_Source\PSoC4/ADC.c **** {
 463              		.loc 1 562 0
 464              		.cfi_startproc
 465              	.LVL21:
 563:.\Generated_Source\PSoC4/ADC.c ****     ADC_SAR_RANGE_THRES_REG &= (uint32)(~ADC_RANGE_LOW_MASK);
 466              		.loc 1 563 0
 467 0000 044B     		ldr	r3, .L45
 564:.\Generated_Source\PSoC4/ADC.c ****     ADC_SAR_RANGE_THRES_REG |= lowLimit & ADC_RANGE_LOW_MASK;
 468              		.loc 1 564 0
 469 0002 80B2     		uxth	r0, r0
 470              	.LVL22:
 563:.\Generated_Source\PSoC4/ADC.c ****     ADC_SAR_RANGE_THRES_REG &= (uint32)(~ADC_RANGE_LOW_MASK);
 471              		.loc 1 563 0
 472 0004 1A68     		ldr	r2, [r3]
 565:.\Generated_Source\PSoC4/ADC.c **** }
 473              		.loc 1 565 0
 474              		@ sp needed
 563:.\Generated_Source\PSoC4/ADC.c ****     ADC_SAR_RANGE_THRES_REG &= (uint32)(~ADC_RANGE_LOW_MASK);
 475              		.loc 1 563 0
 476 0006 120C     		lsr	r2, r2, #16
 477 0008 1204     		lsl	r2, r2, #16
 478 000a 1A60     		str	r2, [r3]
ARM GAS  C:\Users\Pablo\AppData\Local\Temp\cctY477n.s 			page 20


 564:.\Generated_Source\PSoC4/ADC.c ****     ADC_SAR_RANGE_THRES_REG |= lowLimit & ADC_RANGE_LOW_MASK;
 479              		.loc 1 564 0
 480 000c 1A68     		ldr	r2, [r3]
 481 000e 1043     		orr	r0, r2
 482 0010 1860     		str	r0, [r3]
 483              		.loc 1 565 0
 484 0012 7047     		bx	lr
 485              	.L46:
 486              		.align	2
 487              	.L45:
 488 0014 18001A40 		.word	1075445784
 489              		.cfi_endproc
 490              	.LFE9:
 491              		.size	ADC_SetLowLimit, .-ADC_SetLowLimit
 492              		.section	.text.ADC_SetHighLimit,"ax",%progbits
 493              		.align	1
 494              		.global	ADC_SetHighLimit
 495              		.code	16
 496              		.thumb_func
 497              		.type	ADC_SetHighLimit, %function
 498              	ADC_SetHighLimit:
 499              	.LFB10:
 566:.\Generated_Source\PSoC4/ADC.c **** 
 567:.\Generated_Source\PSoC4/ADC.c **** 
 568:.\Generated_Source\PSoC4/ADC.c **** /*******************************************************************************
 569:.\Generated_Source\PSoC4/ADC.c **** * Function Name: ADC_SetHighLimit
 570:.\Generated_Source\PSoC4/ADC.c **** ********************************************************************************
 571:.\Generated_Source\PSoC4/ADC.c **** *
 572:.\Generated_Source\PSoC4/ADC.c **** * Summary:
 573:.\Generated_Source\PSoC4/ADC.c **** *  Sets the low limit parameter for a limit condition.
 574:.\Generated_Source\PSoC4/ADC.c **** *
 575:.\Generated_Source\PSoC4/ADC.c **** * Parameters:
 576:.\Generated_Source\PSoC4/ADC.c **** *  highLimit: The high limit for a limit condition.
 577:.\Generated_Source\PSoC4/ADC.c **** *
 578:.\Generated_Source\PSoC4/ADC.c **** * Return:
 579:.\Generated_Source\PSoC4/ADC.c **** *  None.
 580:.\Generated_Source\PSoC4/ADC.c **** *
 581:.\Generated_Source\PSoC4/ADC.c **** *******************************************************************************/
 582:.\Generated_Source\PSoC4/ADC.c **** void ADC_SetHighLimit(uint32 highLimit)
 583:.\Generated_Source\PSoC4/ADC.c **** {
 500              		.loc 1 583 0
 501              		.cfi_startproc
 502              	.LVL23:
 584:.\Generated_Source\PSoC4/ADC.c ****     ADC_SAR_RANGE_THRES_REG &= (uint32)(~ADC_RANGE_HIGH_MASK);
 503              		.loc 1 584 0
 504 0000 044B     		ldr	r3, .L48
 585:.\Generated_Source\PSoC4/ADC.c ****     ADC_SAR_RANGE_THRES_REG |= (uint32)(highLimit << ADC_RANGE_HIGH_OFFSET);
 505              		.loc 1 585 0
 506 0002 0004     		lsl	r0, r0, #16
 507              	.LVL24:
 584:.\Generated_Source\PSoC4/ADC.c ****     ADC_SAR_RANGE_THRES_REG &= (uint32)(~ADC_RANGE_HIGH_MASK);
 508              		.loc 1 584 0
 509 0004 1A68     		ldr	r2, [r3]
 586:.\Generated_Source\PSoC4/ADC.c **** }
 510              		.loc 1 586 0
 511              		@ sp needed
 584:.\Generated_Source\PSoC4/ADC.c ****     ADC_SAR_RANGE_THRES_REG &= (uint32)(~ADC_RANGE_HIGH_MASK);
ARM GAS  C:\Users\Pablo\AppData\Local\Temp\cctY477n.s 			page 21


 512              		.loc 1 584 0
 513 0006 92B2     		uxth	r2, r2
 514 0008 1A60     		str	r2, [r3]
 585:.\Generated_Source\PSoC4/ADC.c ****     ADC_SAR_RANGE_THRES_REG |= (uint32)(highLimit << ADC_RANGE_HIGH_OFFSET);
 515              		.loc 1 585 0
 516 000a 1A68     		ldr	r2, [r3]
 517 000c 1043     		orr	r0, r2
 518 000e 1860     		str	r0, [r3]
 519              		.loc 1 586 0
 520 0010 7047     		bx	lr
 521              	.L49:
 522 0012 C046     		.align	2
 523              	.L48:
 524 0014 18001A40 		.word	1075445784
 525              		.cfi_endproc
 526              	.LFE10:
 527              		.size	ADC_SetHighLimit, .-ADC_SetHighLimit
 528              		.section	.text.ADC_SetLimitMask,"ax",%progbits
 529              		.align	1
 530              		.global	ADC_SetLimitMask
 531              		.code	16
 532              		.thumb_func
 533              		.type	ADC_SetLimitMask, %function
 534              	ADC_SetLimitMask:
 535              	.LFB11:
 587:.\Generated_Source\PSoC4/ADC.c **** 
 588:.\Generated_Source\PSoC4/ADC.c **** 
 589:.\Generated_Source\PSoC4/ADC.c **** /*******************************************************************************
 590:.\Generated_Source\PSoC4/ADC.c **** * Function Name: ADC_SetLimitMask
 591:.\Generated_Source\PSoC4/ADC.c **** ********************************************************************************
 592:.\Generated_Source\PSoC4/ADC.c **** *
 593:.\Generated_Source\PSoC4/ADC.c **** * Summary:
 594:.\Generated_Source\PSoC4/ADC.c **** *  Sets the channel limit condition mask.
 595:.\Generated_Source\PSoC4/ADC.c **** *
 596:.\Generated_Source\PSoC4/ADC.c **** * Parameters:
 597:.\Generated_Source\PSoC4/ADC.c **** *  mask: Sets which channels that may cause a
 598:.\Generated_Source\PSoC4/ADC.c **** *  limit condition interrupt. Setting bits for channels that do not exist
 599:.\Generated_Source\PSoC4/ADC.c **** *  will have no effect. For example, if only 6 channels were enabled,
 600:.\Generated_Source\PSoC4/ADC.c **** *  setting a mask of 0x0103 would only enable the last two channels (0 and 1).
 601:.\Generated_Source\PSoC4/ADC.c **** *
 602:.\Generated_Source\PSoC4/ADC.c **** * Return:
 603:.\Generated_Source\PSoC4/ADC.c **** *  None.
 604:.\Generated_Source\PSoC4/ADC.c **** *
 605:.\Generated_Source\PSoC4/ADC.c **** *******************************************************************************/
 606:.\Generated_Source\PSoC4/ADC.c **** void ADC_SetLimitMask(uint32 mask)
 607:.\Generated_Source\PSoC4/ADC.c **** {
 536              		.loc 1 607 0
 537              		.cfi_startproc
 538              	.LVL25:
 608:.\Generated_Source\PSoC4/ADC.c ****     ADC_SAR_RANGE_INTR_MASK_REG = mask & ADC_MAX_CHANNELS_EN_MASK;
 539              		.loc 1 608 0
 540 0000 0123     		mov	r3, #1
 541 0002 1840     		and	r0, r3
 542              	.LVL26:
 543 0004 014B     		ldr	r3, .L51
 609:.\Generated_Source\PSoC4/ADC.c **** }
 544              		.loc 1 609 0
ARM GAS  C:\Users\Pablo\AppData\Local\Temp\cctY477n.s 			page 22


 545              		@ sp needed
 608:.\Generated_Source\PSoC4/ADC.c ****     ADC_SAR_RANGE_INTR_MASK_REG = mask & ADC_MAX_CHANNELS_EN_MASK;
 546              		.loc 1 608 0
 547 0006 1860     		str	r0, [r3]
 548              		.loc 1 609 0
 549 0008 7047     		bx	lr
 550              	.L52:
 551 000a C046     		.align	2
 552              	.L51:
 553 000c 38021A40 		.word	1075446328
 554              		.cfi_endproc
 555              	.LFE11:
 556              		.size	ADC_SetLimitMask, .-ADC_SetLimitMask
 557              		.section	.text.ADC_SetSatMask,"ax",%progbits
 558              		.align	1
 559              		.global	ADC_SetSatMask
 560              		.code	16
 561              		.thumb_func
 562              		.type	ADC_SetSatMask, %function
 563              	ADC_SetSatMask:
 564              	.LFB12:
 610:.\Generated_Source\PSoC4/ADC.c **** 
 611:.\Generated_Source\PSoC4/ADC.c **** 
 612:.\Generated_Source\PSoC4/ADC.c **** /*******************************************************************************
 613:.\Generated_Source\PSoC4/ADC.c **** * Function Name: ADC_SetSatMask
 614:.\Generated_Source\PSoC4/ADC.c **** ********************************************************************************
 615:.\Generated_Source\PSoC4/ADC.c **** *
 616:.\Generated_Source\PSoC4/ADC.c **** * Summary:
 617:.\Generated_Source\PSoC4/ADC.c **** *  Sets the channel saturation event mask.
 618:.\Generated_Source\PSoC4/ADC.c **** *
 619:.\Generated_Source\PSoC4/ADC.c **** * Parameters:
 620:.\Generated_Source\PSoC4/ADC.c **** *  mask: Sets which channels that may cause a
 621:.\Generated_Source\PSoC4/ADC.c **** *  saturation event interrupt. Setting bits for channels that do not exist
 622:.\Generated_Source\PSoC4/ADC.c **** *  will have no effect. For example, if only 8 channels were enabled,
 623:.\Generated_Source\PSoC4/ADC.c **** *  setting a mask of 0x01C0 would only enable two channels (6 and 7).
 624:.\Generated_Source\PSoC4/ADC.c **** *
 625:.\Generated_Source\PSoC4/ADC.c **** * Return:
 626:.\Generated_Source\PSoC4/ADC.c **** *  None.
 627:.\Generated_Source\PSoC4/ADC.c **** *
 628:.\Generated_Source\PSoC4/ADC.c **** *******************************************************************************/
 629:.\Generated_Source\PSoC4/ADC.c **** void ADC_SetSatMask(uint32 mask)
 630:.\Generated_Source\PSoC4/ADC.c **** {
 565              		.loc 1 630 0
 566              		.cfi_startproc
 567              	.LVL27:
 631:.\Generated_Source\PSoC4/ADC.c ****     ADC_SAR_SATURATE_INTR_MASK_REG = mask & ADC_MAX_CHANNELS_EN_MASK;
 568              		.loc 1 631 0
 569 0000 0123     		mov	r3, #1
 570 0002 1840     		and	r0, r3
 571              	.LVL28:
 572 0004 014B     		ldr	r3, .L54
 632:.\Generated_Source\PSoC4/ADC.c **** }
 573              		.loc 1 632 0
 574              		@ sp needed
 631:.\Generated_Source\PSoC4/ADC.c ****     ADC_SAR_SATURATE_INTR_MASK_REG = mask & ADC_MAX_CHANNELS_EN_MASK;
 575              		.loc 1 631 0
 576 0006 1860     		str	r0, [r3]
ARM GAS  C:\Users\Pablo\AppData\Local\Temp\cctY477n.s 			page 23


 577              		.loc 1 632 0
 578 0008 7047     		bx	lr
 579              	.L55:
 580 000a C046     		.align	2
 581              	.L54:
 582 000c 28021A40 		.word	1075446312
 583              		.cfi_endproc
 584              	.LFE12:
 585              		.size	ADC_SetSatMask, .-ADC_SetSatMask
 586              		.section	.text.ADC_SetOffset,"ax",%progbits
 587              		.align	1
 588              		.global	ADC_SetOffset
 589              		.code	16
 590              		.thumb_func
 591              		.type	ADC_SetOffset, %function
 592              	ADC_SetOffset:
 593              	.LFB13:
 633:.\Generated_Source\PSoC4/ADC.c **** 
 634:.\Generated_Source\PSoC4/ADC.c **** 
 635:.\Generated_Source\PSoC4/ADC.c **** /*******************************************************************************
 636:.\Generated_Source\PSoC4/ADC.c **** * Function Name: ADC_SetOffset
 637:.\Generated_Source\PSoC4/ADC.c **** ********************************************************************************
 638:.\Generated_Source\PSoC4/ADC.c **** *
 639:.\Generated_Source\PSoC4/ADC.c **** * Summary:
 640:.\Generated_Source\PSoC4/ADC.c **** *   Description: Sets the ADC offset which is used by the functions
 641:.\Generated_Source\PSoC4/ADC.c **** *   ADC_CountsTo_uVolts, ADC_CountsTo_mVolts and ADC_CountsTo_Volts
 642:.\Generated_Source\PSoC4/ADC.c **** *   to substract the offset from the given reading
 643:.\Generated_Source\PSoC4/ADC.c **** *   before calculating the voltage conversion.
 644:.\Generated_Source\PSoC4/ADC.c **** *
 645:.\Generated_Source\PSoC4/ADC.c **** * Parameters:
 646:.\Generated_Source\PSoC4/ADC.c **** *  chan: ADC channel number.
 647:.\Generated_Source\PSoC4/ADC.c **** *  offset: This value is a measured value when the
 648:.\Generated_Source\PSoC4/ADC.c **** *          inputs are shorted or connected to the same input voltage.
 649:.\Generated_Source\PSoC4/ADC.c **** *
 650:.\Generated_Source\PSoC4/ADC.c **** * Return:
 651:.\Generated_Source\PSoC4/ADC.c **** *  None.
 652:.\Generated_Source\PSoC4/ADC.c **** *
 653:.\Generated_Source\PSoC4/ADC.c **** * Global variables:
 654:.\Generated_Source\PSoC4/ADC.c **** *  ADC_Offset:  Modified to set the user provided offset.
 655:.\Generated_Source\PSoC4/ADC.c **** *
 656:.\Generated_Source\PSoC4/ADC.c **** *******************************************************************************/
 657:.\Generated_Source\PSoC4/ADC.c **** void ADC_SetOffset(uint32 chan, int16 offset)
 658:.\Generated_Source\PSoC4/ADC.c **** {
 594              		.loc 1 658 0
 595              		.cfi_startproc
 596              	.LVL29:
 659:.\Generated_Source\PSoC4/ADC.c ****     /* Halt CPU in debug mode if channel is out of valid range */
 660:.\Generated_Source\PSoC4/ADC.c ****     CYASSERT(chan < ADC_TOTAL_CHANNELS_NUM);
 661:.\Generated_Source\PSoC4/ADC.c **** 
 662:.\Generated_Source\PSoC4/ADC.c ****     ADC_offset[chan] = offset;
 597              		.loc 1 662 0
 598 0000 014B     		ldr	r3, .L57
 599 0002 4000     		lsl	r0, r0, #1
 600              	.LVL30:
 601 0004 C152     		strh	r1, [r0, r3]
 663:.\Generated_Source\PSoC4/ADC.c **** }
 602              		.loc 1 663 0
ARM GAS  C:\Users\Pablo\AppData\Local\Temp\cctY477n.s 			page 24


 603              		@ sp needed
 604 0006 7047     		bx	lr
 605              	.L58:
 606              		.align	2
 607              	.L57:
 608 0008 00000000 		.word	ADC_offset
 609              		.cfi_endproc
 610              	.LFE13:
 611              		.size	ADC_SetOffset, .-ADC_SetOffset
 612              		.section	.text.ADC_SetGain,"ax",%progbits
 613              		.align	1
 614              		.global	ADC_SetGain
 615              		.code	16
 616              		.thumb_func
 617              		.type	ADC_SetGain, %function
 618              	ADC_SetGain:
 619              	.LFB14:
 664:.\Generated_Source\PSoC4/ADC.c **** 
 665:.\Generated_Source\PSoC4/ADC.c **** 
 666:.\Generated_Source\PSoC4/ADC.c **** /*******************************************************************************
 667:.\Generated_Source\PSoC4/ADC.c **** * Function Name: ADC_SetGain
 668:.\Generated_Source\PSoC4/ADC.c **** ********************************************************************************
 669:.\Generated_Source\PSoC4/ADC.c **** *
 670:.\Generated_Source\PSoC4/ADC.c **** * Summary:
 671:.\Generated_Source\PSoC4/ADC.c **** *  Description: Sets the ADC gain in counts per 10 volt for the voltage
 672:.\Generated_Source\PSoC4/ADC.c **** *  conversion functions below. This value is set by default by the
 673:.\Generated_Source\PSoC4/ADC.c **** *  reference and input range settings. It should only be used to further
 674:.\Generated_Source\PSoC4/ADC.c **** *  calibrate the ADC with a known input or if an external reference is
 675:.\Generated_Source\PSoC4/ADC.c **** *  used. Affects the ADC_CountsTo_uVolts, ADC_CountsTo_mVolts
 676:.\Generated_Source\PSoC4/ADC.c **** *  and ADC_CountsTo_Volts functions by supplying the correct
 677:.\Generated_Source\PSoC4/ADC.c **** *  conversion between ADC counts and voltage.
 678:.\Generated_Source\PSoC4/ADC.c **** *
 679:.\Generated_Source\PSoC4/ADC.c **** * Parameters:
 680:.\Generated_Source\PSoC4/ADC.c **** *  chan: ADC channel number.
 681:.\Generated_Source\PSoC4/ADC.c **** *  adcGain: ADC gain in counts per 10 volts.
 682:.\Generated_Source\PSoC4/ADC.c **** *
 683:.\Generated_Source\PSoC4/ADC.c **** * Return:
 684:.\Generated_Source\PSoC4/ADC.c **** *  None.
 685:.\Generated_Source\PSoC4/ADC.c **** *
 686:.\Generated_Source\PSoC4/ADC.c **** * Global variables:
 687:.\Generated_Source\PSoC4/ADC.c **** *  ADC_CountsPer10Volt:  modified to set the ADC gain in counts
 688:.\Generated_Source\PSoC4/ADC.c **** *   per 10 volt.
 689:.\Generated_Source\PSoC4/ADC.c **** *
 690:.\Generated_Source\PSoC4/ADC.c **** *******************************************************************************/
 691:.\Generated_Source\PSoC4/ADC.c **** void ADC_SetGain(uint32 chan, int32 adcGain)
 692:.\Generated_Source\PSoC4/ADC.c **** {
 620              		.loc 1 692 0
 621              		.cfi_startproc
 622              	.LVL31:
 693:.\Generated_Source\PSoC4/ADC.c ****     /* Halt CPU in debug mode if channel is out of valid range */
 694:.\Generated_Source\PSoC4/ADC.c ****     CYASSERT(chan < ADC_TOTAL_CHANNELS_NUM);
 695:.\Generated_Source\PSoC4/ADC.c **** 
 696:.\Generated_Source\PSoC4/ADC.c ****     ADC_countsPer10Volt[chan] = adcGain;
 623              		.loc 1 696 0
 624 0000 014B     		ldr	r3, .L60
 625 0002 8000     		lsl	r0, r0, #2
 626              	.LVL32:
ARM GAS  C:\Users\Pablo\AppData\Local\Temp\cctY477n.s 			page 25


 627 0004 C150     		str	r1, [r0, r3]
 697:.\Generated_Source\PSoC4/ADC.c **** }
 628              		.loc 1 697 0
 629              		@ sp needed
 630 0006 7047     		bx	lr
 631              	.L61:
 632              		.align	2
 633              	.L60:
 634 0008 00000000 		.word	ADC_countsPer10Volt
 635              		.cfi_endproc
 636              	.LFE14:
 637              		.size	ADC_SetGain, .-ADC_SetGain
 638              		.global	__aeabi_idiv
 639              		.section	.text.ADC_CountsTo_mVolts,"ax",%progbits
 640              		.align	1
 641              		.global	ADC_CountsTo_mVolts
 642              		.code	16
 643              		.thumb_func
 644              		.type	ADC_CountsTo_mVolts, %function
 645              	ADC_CountsTo_mVolts:
 646              	.LFB15:
 698:.\Generated_Source\PSoC4/ADC.c **** 
 699:.\Generated_Source\PSoC4/ADC.c **** 
 700:.\Generated_Source\PSoC4/ADC.c **** #if(ADC_DEFAULT_JUSTIFICATION_SEL == ADC__RIGHT)
 701:.\Generated_Source\PSoC4/ADC.c **** 
 702:.\Generated_Source\PSoC4/ADC.c **** 
 703:.\Generated_Source\PSoC4/ADC.c ****     /*******************************************************************************
 704:.\Generated_Source\PSoC4/ADC.c ****     * Function Name: ADC_CountsTo_mVolts
 705:.\Generated_Source\PSoC4/ADC.c ****     ********************************************************************************
 706:.\Generated_Source\PSoC4/ADC.c ****     *
 707:.\Generated_Source\PSoC4/ADC.c ****     * Summary:
 708:.\Generated_Source\PSoC4/ADC.c ****     *  This function converts ADC counts to mVolts
 709:.\Generated_Source\PSoC4/ADC.c ****     *  This function is not available when left data format justification selected.
 710:.\Generated_Source\PSoC4/ADC.c ****     *
 711:.\Generated_Source\PSoC4/ADC.c ****     * Parameters:
 712:.\Generated_Source\PSoC4/ADC.c ****     *  chan: The ADC channel number.
 713:.\Generated_Source\PSoC4/ADC.c ****     *  adcCounts: Result from the ADC conversion
 714:.\Generated_Source\PSoC4/ADC.c ****     *
 715:.\Generated_Source\PSoC4/ADC.c ****     * Return:
 716:.\Generated_Source\PSoC4/ADC.c ****     *  Results in mVolts
 717:.\Generated_Source\PSoC4/ADC.c ****     *
 718:.\Generated_Source\PSoC4/ADC.c ****     * Global variables:
 719:.\Generated_Source\PSoC4/ADC.c ****     *  ADC_countsPer10Volt:  used to convert ADC counts to mVolts.
 720:.\Generated_Source\PSoC4/ADC.c ****     *  ADC_Offset:  Used as the offset while converting ADC counts
 721:.\Generated_Source\PSoC4/ADC.c ****     *   to mVolts.
 722:.\Generated_Source\PSoC4/ADC.c ****     *
 723:.\Generated_Source\PSoC4/ADC.c ****     *******************************************************************************/
 724:.\Generated_Source\PSoC4/ADC.c ****     int16 ADC_CountsTo_mVolts(uint32 chan, int16 adcCounts)
 725:.\Generated_Source\PSoC4/ADC.c ****     {
 647              		.loc 1 725 0
 648              		.cfi_startproc
 649              	.LVL33:
 726:.\Generated_Source\PSoC4/ADC.c ****         int16 mVolts;
 727:.\Generated_Source\PSoC4/ADC.c **** 
 728:.\Generated_Source\PSoC4/ADC.c ****         /* Halt CPU in debug mode if channel is out of valid range */
 729:.\Generated_Source\PSoC4/ADC.c ****         CYASSERT(chan < ADC_TOTAL_CHANNELS_NUM);
 730:.\Generated_Source\PSoC4/ADC.c **** 
ARM GAS  C:\Users\Pablo\AppData\Local\Temp\cctY477n.s 			page 26


 731:.\Generated_Source\PSoC4/ADC.c ****         /* Divide the adcCount when accumulate averaging mode selected */
 732:.\Generated_Source\PSoC4/ADC.c ****         #if(ADC_DEFAULT_AVG_MODE == ADC__ACCUMULATE)
 733:.\Generated_Source\PSoC4/ADC.c ****             if((ADC_channelsConfig[chan] & ADC_AVERAGING_EN) != 0u)
 734:.\Generated_Source\PSoC4/ADC.c ****             {
 735:.\Generated_Source\PSoC4/ADC.c ****                 adcCounts /= ADC_DEFAULT_AVG_SAMPLES_DIV;
 736:.\Generated_Source\PSoC4/ADC.c ****             }
 737:.\Generated_Source\PSoC4/ADC.c ****         #endif /* ADC_DEFAULT_AVG_MODE == ADC__ACCUMULATE */
 738:.\Generated_Source\PSoC4/ADC.c **** 
 739:.\Generated_Source\PSoC4/ADC.c ****         /* Subtract ADC offset */
 740:.\Generated_Source\PSoC4/ADC.c ****         adcCounts -= ADC_offset[chan];
 650              		.loc 1 740 0
 651 0000 0D4B     		ldr	r3, .L65
 652 0002 4200     		lsl	r2, r0, #1
 653 0004 D35A     		ldrh	r3, [r2, r3]
 725:.\Generated_Source\PSoC4/ADC.c ****     {
 654              		.loc 1 725 0
 655 0006 10B5     		push	{r4, lr}
 656              		.cfi_def_cfa_offset 8
 657              		.cfi_offset 4, -8
 658              		.cfi_offset 14, -4
 659              		.loc 1 740 0
 660 0008 C91A     		sub	r1, r1, r3
 661              	.LVL34:
 741:.\Generated_Source\PSoC4/ADC.c **** 
 742:.\Generated_Source\PSoC4/ADC.c ****         mVolts = (int16)((((int32)adcCounts * ADC_10MV_COUNTS) + ( (adcCounts > 0) ?
 662              		.loc 1 742 0
 663 000a 0C4C     		ldr	r4, .L65+4
 740:.\Generated_Source\PSoC4/ADC.c ****         adcCounts -= ADC_offset[chan];
 664              		.loc 1 740 0
 665 000c 09B2     		sxth	r1, r1
 666              	.LVL35:
 667              		.loc 1 742 0
 668 000e 4C43     		mul	r4, r1
 669 0010 0B4A     		ldr	r2, .L65+8
 670 0012 8300     		lsl	r3, r0, #2
 743:.\Generated_Source\PSoC4/ADC.c ****                  (ADC_countsPer10Volt[chan] / 2) : (-(ADC_countsPer10Volt[chan] / 2)) ))
 671              		.loc 1 743 0
 672 0014 0029     		cmp	r1, #0
 673 0016 04DD     		ble	.L63
 674              		.loc 1 743 0 is_stmt 0 discriminator 1
 675 0018 D158     		ldr	r1, [r2, r3]
 676              	.LVL36:
 677 001a C80F     		lsr	r0, r1, #31
 678              	.LVL37:
 679 001c 4018     		add	r0, r0, r1
 680 001e 4010     		asr	r0, r0, #1
 681 0020 04E0     		b	.L64
 682              	.LVL38:
 683              	.L63:
 684              		.loc 1 743 0 discriminator 2
 685 0022 D158     		ldr	r1, [r2, r3]
 686              	.LVL39:
 687 0024 C80F     		lsr	r0, r1, #31
 688              	.LVL40:
 689 0026 4018     		add	r0, r0, r1
 690 0028 4010     		asr	r0, r0, #1
 691 002a 4042     		neg	r0, r0
ARM GAS  C:\Users\Pablo\AppData\Local\Temp\cctY477n.s 			page 27


 692              	.L64:
 744:.\Generated_Source\PSoC4/ADC.c ****                  / ADC_countsPer10Volt[chan]);
 693              		.loc 1 744 0 is_stmt 1
 694 002c D158     		ldr	r1, [r2, r3]
 695              	.LVL41:
 742:.\Generated_Source\PSoC4/ADC.c ****         mVolts = (int16)((((int32)adcCounts * ADC_10MV_COUNTS) + ( (adcCounts > 0) ?
 696              		.loc 1 742 0
 697 002e 2018     		add	r0, r4, r0
 698              	.LVL42:
 699              		.loc 1 744 0
 700 0030 FFF7FEFF 		bl	__aeabi_idiv
 701              	.LVL43:
 745:.\Generated_Source\PSoC4/ADC.c **** 
 746:.\Generated_Source\PSoC4/ADC.c ****         return( mVolts );
 747:.\Generated_Source\PSoC4/ADC.c ****     }
 702              		.loc 1 747 0
 703              		@ sp needed
 746:.\Generated_Source\PSoC4/ADC.c ****         return( mVolts );
 704              		.loc 1 746 0
 705 0034 00B2     		sxth	r0, r0
 706              		.loc 1 747 0
 707 0036 10BD     		pop	{r4, pc}
 708              	.L66:
 709              		.align	2
 710              	.L65:
 711 0038 00000000 		.word	ADC_offset
 712 003c 10270000 		.word	10000
 713 0040 00000000 		.word	ADC_countsPer10Volt
 714              		.cfi_endproc
 715              	.LFE15:
 716              		.size	ADC_CountsTo_mVolts, .-ADC_CountsTo_mVolts
 717              		.global	__aeabi_lmul
 718              		.global	__aeabi_ldivmod
 719              		.section	.text.ADC_CountsTo_uVolts,"ax",%progbits
 720              		.align	1
 721              		.global	ADC_CountsTo_uVolts
 722              		.code	16
 723              		.thumb_func
 724              		.type	ADC_CountsTo_uVolts, %function
 725              	ADC_CountsTo_uVolts:
 726              	.LFB16:
 748:.\Generated_Source\PSoC4/ADC.c **** 
 749:.\Generated_Source\PSoC4/ADC.c **** 
 750:.\Generated_Source\PSoC4/ADC.c ****     /*******************************************************************************
 751:.\Generated_Source\PSoC4/ADC.c ****     * Function Name: ADC_CountsTo_uVolts
 752:.\Generated_Source\PSoC4/ADC.c ****     ********************************************************************************
 753:.\Generated_Source\PSoC4/ADC.c ****     *
 754:.\Generated_Source\PSoC4/ADC.c ****     * Summary:
 755:.\Generated_Source\PSoC4/ADC.c ****     *  This function converts ADC counts to micro Volts
 756:.\Generated_Source\PSoC4/ADC.c ****     *  This function is not available when left data format justification selected.
 757:.\Generated_Source\PSoC4/ADC.c ****     *
 758:.\Generated_Source\PSoC4/ADC.c ****     * Parameters:
 759:.\Generated_Source\PSoC4/ADC.c ****     *  chan: The ADC channel number.
 760:.\Generated_Source\PSoC4/ADC.c ****     *  adcCounts: Result from the ADC conversion
 761:.\Generated_Source\PSoC4/ADC.c ****     *
 762:.\Generated_Source\PSoC4/ADC.c ****     * Return:
 763:.\Generated_Source\PSoC4/ADC.c ****     *  Results in uVolts
ARM GAS  C:\Users\Pablo\AppData\Local\Temp\cctY477n.s 			page 28


 764:.\Generated_Source\PSoC4/ADC.c ****     *
 765:.\Generated_Source\PSoC4/ADC.c ****     * Global variables:
 766:.\Generated_Source\PSoC4/ADC.c ****     *  ADC_countsPer10Volt:  used to convert ADC counts to uVolts.
 767:.\Generated_Source\PSoC4/ADC.c ****     *  ADC_Offset:  Used as the offset while converting ADC counts
 768:.\Generated_Source\PSoC4/ADC.c ****     *   to mVolts.
 769:.\Generated_Source\PSoC4/ADC.c ****     *
 770:.\Generated_Source\PSoC4/ADC.c ****     * Theory:
 771:.\Generated_Source\PSoC4/ADC.c ****     *  Care must be taken to not exceed the maximum value for a 31 bit signed
 772:.\Generated_Source\PSoC4/ADC.c ****     *  number in the conversion to uVolts and at the same time not loose
 773:.\Generated_Source\PSoC4/ADC.c ****     *  resolution.
 774:.\Generated_Source\PSoC4/ADC.c ****     *  To convert adcCounts to microVolts it is required to be multiplied
 775:.\Generated_Source\PSoC4/ADC.c ****     *  on 10 million and later divide on gain in counts per 10V.
 776:.\Generated_Source\PSoC4/ADC.c ****     *
 777:.\Generated_Source\PSoC4/ADC.c ****     *******************************************************************************/
 778:.\Generated_Source\PSoC4/ADC.c ****     int32 ADC_CountsTo_uVolts(uint32 chan, int16 adcCounts)
 779:.\Generated_Source\PSoC4/ADC.c ****     {
 727              		.loc 1 779 0
 728              		.cfi_startproc
 729              	.LVL44:
 780:.\Generated_Source\PSoC4/ADC.c ****         int64 uVolts;
 781:.\Generated_Source\PSoC4/ADC.c **** 
 782:.\Generated_Source\PSoC4/ADC.c ****         /* Halt CPU in debug mode if channel is out of valid range */
 783:.\Generated_Source\PSoC4/ADC.c ****         CYASSERT(chan < ADC_TOTAL_CHANNELS_NUM);
 784:.\Generated_Source\PSoC4/ADC.c **** 
 785:.\Generated_Source\PSoC4/ADC.c ****         /* Divide the adcCount when accumulate averaging mode selected */
 786:.\Generated_Source\PSoC4/ADC.c ****         #if(ADC_DEFAULT_AVG_MODE == ADC__ACCUMULATE)
 787:.\Generated_Source\PSoC4/ADC.c ****             if((ADC_channelsConfig[chan] & ADC_AVERAGING_EN) != 0u)
 788:.\Generated_Source\PSoC4/ADC.c ****             {
 789:.\Generated_Source\PSoC4/ADC.c ****                 adcCounts /= ADC_DEFAULT_AVG_SAMPLES_DIV;
 790:.\Generated_Source\PSoC4/ADC.c ****             }
 791:.\Generated_Source\PSoC4/ADC.c ****         #endif /* ADC_DEFAULT_AVG_MODE == ADC__ACCUMULATE */
 792:.\Generated_Source\PSoC4/ADC.c **** 
 793:.\Generated_Source\PSoC4/ADC.c ****         /* Subtract ADC offset */
 794:.\Generated_Source\PSoC4/ADC.c ****         adcCounts -= ADC_offset[chan];
 730              		.loc 1 794 0
 731 0000 0B4B     		ldr	r3, .L68+8
 732 0002 4200     		lsl	r2, r0, #1
 733 0004 D35A     		ldrh	r3, [r2, r3]
 779:.\Generated_Source\PSoC4/ADC.c ****     {
 734              		.loc 1 779 0
 735 0006 10B5     		push	{r4, lr}
 736              		.cfi_def_cfa_offset 8
 737              		.cfi_offset 4, -8
 738              		.cfi_offset 14, -4
 739              		.loc 1 794 0
 740 0008 C91A     		sub	r1, r1, r3
 741              	.LVL45:
 795:.\Generated_Source\PSoC4/ADC.c **** 
 796:.\Generated_Source\PSoC4/ADC.c ****         uVolts = ((int64)adcCounts * ADC_10UV_COUNTS) / ADC_countsPer10Volt[chan];
 742              		.loc 1 796 0
 743 000a 0A4B     		ldr	r3, .L68+12
 744 000c 8000     		lsl	r0, r0, #2
 745              	.LVL46:
 746 000e C458     		ldr	r4, [r0, r3]
 747              	.LVL47:
 748 0010 08B2     		sxth	r0, r1
 749 0012 064B     		ldr	r3, .L68+4
ARM GAS  C:\Users\Pablo\AppData\Local\Temp\cctY477n.s 			page 29


 750 0014 044A     		ldr	r2, .L68
 751 0016 C117     		asr	r1, r0, #31
 752              	.LVL48:
 753 0018 FFF7FEFF 		bl	__aeabi_lmul
 754              	.LVL49:
 755 001c E317     		asr	r3, r4, #31
 756 001e 221C     		mov	r2, r4
 757 0020 FFF7FEFF 		bl	__aeabi_ldivmod
 758              	.LVL50:
 797:.\Generated_Source\PSoC4/ADC.c **** 
 798:.\Generated_Source\PSoC4/ADC.c ****         return( (int32)uVolts );
 799:.\Generated_Source\PSoC4/ADC.c ****     }
 759              		.loc 1 799 0
 760              		@ sp needed
 761 0024 10BD     		pop	{r4, pc}
 762              	.L69:
 763 0026 C046     		.align	3
 764              	.L68:
 765 0028 80969800 		.word	10000000
 766 002c 00000000 		.word	0
 767 0030 00000000 		.word	ADC_offset
 768 0034 00000000 		.word	ADC_countsPer10Volt
 769              		.cfi_endproc
 770              	.LFE16:
 771              		.size	ADC_CountsTo_uVolts, .-ADC_CountsTo_uVolts
 772              		.global	__aeabi_i2f
 773              		.global	__aeabi_fmul
 774              		.global	__aeabi_fdiv
 775              		.section	.text.ADC_CountsTo_Volts,"ax",%progbits
 776              		.align	1
 777              		.global	ADC_CountsTo_Volts
 778              		.code	16
 779              		.thumb_func
 780              		.type	ADC_CountsTo_Volts, %function
 781              	ADC_CountsTo_Volts:
 782              	.LFB17:
 800:.\Generated_Source\PSoC4/ADC.c **** 
 801:.\Generated_Source\PSoC4/ADC.c **** 
 802:.\Generated_Source\PSoC4/ADC.c ****     /*******************************************************************************
 803:.\Generated_Source\PSoC4/ADC.c ****     * Function Name: ADC_CountsTo_Volts
 804:.\Generated_Source\PSoC4/ADC.c ****     ********************************************************************************
 805:.\Generated_Source\PSoC4/ADC.c ****     *
 806:.\Generated_Source\PSoC4/ADC.c ****     * Summary:
 807:.\Generated_Source\PSoC4/ADC.c ****     *  Converts the ADC output to Volts as a floating point number.
 808:.\Generated_Source\PSoC4/ADC.c ****     *  This function is not available when left data format justification selected.
 809:.\Generated_Source\PSoC4/ADC.c ****     *
 810:.\Generated_Source\PSoC4/ADC.c ****     * Parameters:
 811:.\Generated_Source\PSoC4/ADC.c ****     *  chan: The ADC channel number.
 812:.\Generated_Source\PSoC4/ADC.c ****     *  Result from the ADC conversion
 813:.\Generated_Source\PSoC4/ADC.c ****     *
 814:.\Generated_Source\PSoC4/ADC.c ****     * Return:
 815:.\Generated_Source\PSoC4/ADC.c ****     *  Results in Volts
 816:.\Generated_Source\PSoC4/ADC.c ****     *
 817:.\Generated_Source\PSoC4/ADC.c ****     * Global variables:
 818:.\Generated_Source\PSoC4/ADC.c ****     *  ADC_countsPer10Volt:  used to convert ADC counts to Volts.
 819:.\Generated_Source\PSoC4/ADC.c ****     *  ADC_Offset:  Used as the offset while converting ADC counts
 820:.\Generated_Source\PSoC4/ADC.c ****     *   to mVolts.
ARM GAS  C:\Users\Pablo\AppData\Local\Temp\cctY477n.s 			page 30


 821:.\Generated_Source\PSoC4/ADC.c ****     *
 822:.\Generated_Source\PSoC4/ADC.c ****     *******************************************************************************/
 823:.\Generated_Source\PSoC4/ADC.c ****     float32 ADC_CountsTo_Volts(uint32 chan, int16 adcCounts)
 824:.\Generated_Source\PSoC4/ADC.c ****     {
 783              		.loc 1 824 0
 784              		.cfi_startproc
 785              	.LVL51:
 786 0000 38B5     		push	{r3, r4, r5, lr}
 787              		.cfi_def_cfa_offset 16
 788              		.cfi_offset 3, -16
 789              		.cfi_offset 4, -12
 790              		.cfi_offset 5, -8
 791              		.cfi_offset 14, -4
 825:.\Generated_Source\PSoC4/ADC.c ****         float32 volts;
 826:.\Generated_Source\PSoC4/ADC.c **** 
 827:.\Generated_Source\PSoC4/ADC.c ****         /* Halt CPU in debug mode if channel is out of valid range */
 828:.\Generated_Source\PSoC4/ADC.c ****         CYASSERT(chan < ADC_TOTAL_CHANNELS_NUM);
 829:.\Generated_Source\PSoC4/ADC.c **** 
 830:.\Generated_Source\PSoC4/ADC.c ****         /* Divide the adcCount when accumulate averaging mode selected */
 831:.\Generated_Source\PSoC4/ADC.c ****         #if(ADC_DEFAULT_AVG_MODE == ADC__ACCUMULATE)
 832:.\Generated_Source\PSoC4/ADC.c ****             if((ADC_channelsConfig[chan] & ADC_AVERAGING_EN) != 0u)
 833:.\Generated_Source\PSoC4/ADC.c ****             {
 834:.\Generated_Source\PSoC4/ADC.c ****                 adcCounts /= ADC_DEFAULT_AVG_SAMPLES_DIV;
 835:.\Generated_Source\PSoC4/ADC.c ****             }
 836:.\Generated_Source\PSoC4/ADC.c ****         #endif /* ADC_DEFAULT_AVG_MODE == ADC__ACCUMULATE */
 837:.\Generated_Source\PSoC4/ADC.c **** 
 838:.\Generated_Source\PSoC4/ADC.c ****         /* Subtract ADC offset */
 839:.\Generated_Source\PSoC4/ADC.c ****         adcCounts -= ADC_offset[chan];
 792              		.loc 1 839 0
 793 0002 0B4B     		ldr	r3, .L71
 794 0004 4200     		lsl	r2, r0, #1
 795 0006 D35A     		ldrh	r3, [r2, r3]
 840:.\Generated_Source\PSoC4/ADC.c **** 
 841:.\Generated_Source\PSoC4/ADC.c ****         volts = ((float32)adcCounts * ADC_10V_COUNTS) / (float32)ADC_countsPer10Volt[chan];
 796              		.loc 1 841 0
 797 0008 8000     		lsl	r0, r0, #2
 798              	.LVL52:
 839:.\Generated_Source\PSoC4/ADC.c ****         adcCounts -= ADC_offset[chan];
 799              		.loc 1 839 0
 800 000a C91A     		sub	r1, r1, r3
 801              	.LVL53:
 802              		.loc 1 841 0
 803 000c 094B     		ldr	r3, .L71+4
 842:.\Generated_Source\PSoC4/ADC.c **** 
 843:.\Generated_Source\PSoC4/ADC.c ****         return( volts );
 844:.\Generated_Source\PSoC4/ADC.c ****     }
 804              		.loc 1 844 0
 805              		@ sp needed
 841:.\Generated_Source\PSoC4/ADC.c ****         volts = ((float32)adcCounts * ADC_10V_COUNTS) / (float32)ADC_countsPer10Volt[chan];
 806              		.loc 1 841 0
 807 000e C558     		ldr	r5, [r0, r3]
 808              	.LVL54:
 809 0010 08B2     		sxth	r0, r1
 810 0012 FFF7FEFF 		bl	__aeabi_i2f
 811              	.LVL55:
 812 0016 0849     		ldr	r1, .L71+8
 813 0018 FFF7FEFF 		bl	__aeabi_fmul
ARM GAS  C:\Users\Pablo\AppData\Local\Temp\cctY477n.s 			page 31


 814              	.LVL56:
 815 001c 041C     		add	r4, r0, #0
 816 001e 281C     		mov	r0, r5
 817 0020 FFF7FEFF 		bl	__aeabi_i2f
 818              	.LVL57:
 819 0024 011C     		add	r1, r0, #0
 820 0026 201C     		add	r0, r4, #0
 821 0028 FFF7FEFF 		bl	__aeabi_fdiv
 822              	.LVL58:
 823              		.loc 1 844 0
 824 002c 38BD     		pop	{r3, r4, r5, pc}
 825              	.L72:
 826 002e C046     		.align	2
 827              	.L71:
 828 0030 00000000 		.word	ADC_offset
 829 0034 00000000 		.word	ADC_countsPer10Volt
 830 0038 00002041 		.word	1092616192
 831              		.cfi_endproc
 832              	.LFE17:
 833              		.size	ADC_CountsTo_Volts, .-ADC_CountsTo_Volts
 834              		.comm	ADC_countsPer10Volt,4,4
 835              		.comm	ADC_offset,2,2
 836              		.global	ADC_initVar
 837              		.bss
 838              		.set	.LANCHOR0,. + 0
 839              		.type	ADC_initVar, %object
 840              		.size	ADC_initVar, 1
 841              	ADC_initVar:
 842 0000 00       		.space	1
 843              		.text
 844              	.Letext0:
 845              		.file 2 ".\\Generated_Source\\PSoC4\\cytypes.h"
 846              		.file 3 ".\\Generated_Source\\PSoC4\\CyLib.h"