ARM GAS  C:\Users\Pablo\AppData\Local\Temp\cccUpg8i.s 			page 1


   1              		.cpu cortex-m0
   2              		.fpu softvfp
   3              		.eabi_attribute 20, 1
   4              		.eabi_attribute 21, 1
   5              		.eabi_attribute 23, 3
   6              		.eabi_attribute 24, 1
   7              		.eabi_attribute 25, 1
   8              		.eabi_attribute 26, 1
   9              		.eabi_attribute 30, 4
  10              		.eabi_attribute 34, 0
  11              		.eabi_attribute 18, 4
  12              		.code	16
  13              		.file	"cyfitter_cfg.c"
  14              		.text
  15              	.Ltext0:
  16              		.cfi_sections	.debug_frame
  17              		.section	.text.SetAnalogRoutingPumps,"ax",%progbits
  18              		.align	1
  19              		.global	SetAnalogRoutingPumps
  20              		.code	16
  21              		.thumb_func
  22              		.type	SetAnalogRoutingPumps, %function
  23              	SetAnalogRoutingPumps:
  24              	.LFB7:
  25              		.file 1 ".\\Generated_Source\\PSoC4\\cyfitter_cfg.c"
   1:.\Generated_Source\PSoC4/cyfitter_cfg.c **** /*******************************************************************************
   2:.\Generated_Source\PSoC4/cyfitter_cfg.c **** * FILENAME: cyfitter_cfg.c
   3:.\Generated_Source\PSoC4/cyfitter_cfg.c **** * PSoC Creator  3.1 SP2
   4:.\Generated_Source\PSoC4/cyfitter_cfg.c **** *
   5:.\Generated_Source\PSoC4/cyfitter_cfg.c **** * Description:
   6:.\Generated_Source\PSoC4/cyfitter_cfg.c **** * This file is automatically generated by PSoC Creator with device 
   7:.\Generated_Source\PSoC4/cyfitter_cfg.c **** * initialization code.  Except for the user defined sections in
   8:.\Generated_Source\PSoC4/cyfitter_cfg.c **** * CyClockStartupError(), this file should not be modified.
   9:.\Generated_Source\PSoC4/cyfitter_cfg.c **** *
  10:.\Generated_Source\PSoC4/cyfitter_cfg.c **** ********************************************************************************
  11:.\Generated_Source\PSoC4/cyfitter_cfg.c **** * Copyright 2013, Cypress Semiconductor Corporation.  All rights reserved.
  12:.\Generated_Source\PSoC4/cyfitter_cfg.c **** * You may use this file only in accordance with the license, terms, conditions, 
  13:.\Generated_Source\PSoC4/cyfitter_cfg.c **** * disclaimers, and limitations in the end user license agreement accompanying 
  14:.\Generated_Source\PSoC4/cyfitter_cfg.c **** * the software package with which this file was provided.
  15:.\Generated_Source\PSoC4/cyfitter_cfg.c **** ********************************************************************************/
  16:.\Generated_Source\PSoC4/cyfitter_cfg.c **** 
  17:.\Generated_Source\PSoC4/cyfitter_cfg.c **** #include <string.h>
  18:.\Generated_Source\PSoC4/cyfitter_cfg.c **** #include <cytypes.h>
  19:.\Generated_Source\PSoC4/cyfitter_cfg.c **** #include <cydevice_trm.h>
  20:.\Generated_Source\PSoC4/cyfitter_cfg.c **** #include <cyfitter.h>
  21:.\Generated_Source\PSoC4/cyfitter_cfg.c **** #include <CyLib.h>
  22:.\Generated_Source\PSoC4/cyfitter_cfg.c **** #include <cyfitter_cfg.h>
  23:.\Generated_Source\PSoC4/cyfitter_cfg.c **** 
  24:.\Generated_Source\PSoC4/cyfitter_cfg.c **** 
  25:.\Generated_Source\PSoC4/cyfitter_cfg.c **** #if defined(__GNUC__) || defined(__ARMCC_VERSION)
  26:.\Generated_Source\PSoC4/cyfitter_cfg.c ****     #define CYPACKED 
  27:.\Generated_Source\PSoC4/cyfitter_cfg.c ****     #define CYPACKED_ATTR __attribute__ ((packed))
  28:.\Generated_Source\PSoC4/cyfitter_cfg.c ****     #define CYALIGNED __attribute__ ((aligned))
  29:.\Generated_Source\PSoC4/cyfitter_cfg.c ****     #define CY_CFG_UNUSED __attribute__ ((unused))
  30:.\Generated_Source\PSoC4/cyfitter_cfg.c ****     #define CY_CFG_SECTION __attribute__ ((section(".psocinit")))
  31:.\Generated_Source\PSoC4/cyfitter_cfg.c ****     
  32:.\Generated_Source\PSoC4/cyfitter_cfg.c ****     #if defined(__ARMCC_VERSION)
ARM GAS  C:\Users\Pablo\AppData\Local\Temp\cccUpg8i.s 			page 2


  33:.\Generated_Source\PSoC4/cyfitter_cfg.c ****         #define CY_CFG_MEMORY_BARRIER() __memory_changed()
  34:.\Generated_Source\PSoC4/cyfitter_cfg.c ****     #else
  35:.\Generated_Source\PSoC4/cyfitter_cfg.c ****         #define CY_CFG_MEMORY_BARRIER() __sync_synchronize()
  36:.\Generated_Source\PSoC4/cyfitter_cfg.c ****     #endif
  37:.\Generated_Source\PSoC4/cyfitter_cfg.c ****     
  38:.\Generated_Source\PSoC4/cyfitter_cfg.c **** #elif defined(__ICCARM__)
  39:.\Generated_Source\PSoC4/cyfitter_cfg.c ****     #include <intrinsics.h>
  40:.\Generated_Source\PSoC4/cyfitter_cfg.c **** 
  41:.\Generated_Source\PSoC4/cyfitter_cfg.c ****     #define CYPACKED __packed
  42:.\Generated_Source\PSoC4/cyfitter_cfg.c ****     #define CYPACKED_ATTR 
  43:.\Generated_Source\PSoC4/cyfitter_cfg.c ****     #define CYALIGNED _Pragma("data_alignment=4")
  44:.\Generated_Source\PSoC4/cyfitter_cfg.c ****     #define CY_CFG_UNUSED _Pragma("diag_suppress=Pe177")
  45:.\Generated_Source\PSoC4/cyfitter_cfg.c ****     #define CY_CFG_SECTION _Pragma("location=\".psocinit\"")
  46:.\Generated_Source\PSoC4/cyfitter_cfg.c ****     
  47:.\Generated_Source\PSoC4/cyfitter_cfg.c ****     #define CY_CFG_MEMORY_BARRIER() __DMB()
  48:.\Generated_Source\PSoC4/cyfitter_cfg.c ****     
  49:.\Generated_Source\PSoC4/cyfitter_cfg.c **** #else
  50:.\Generated_Source\PSoC4/cyfitter_cfg.c ****     #error Unsupported toolchain
  51:.\Generated_Source\PSoC4/cyfitter_cfg.c **** #endif
  52:.\Generated_Source\PSoC4/cyfitter_cfg.c **** 
  53:.\Generated_Source\PSoC4/cyfitter_cfg.c **** 
  54:.\Generated_Source\PSoC4/cyfitter_cfg.c **** CY_CFG_UNUSED
  55:.\Generated_Source\PSoC4/cyfitter_cfg.c **** static void CYMEMZERO(void *s, size_t n);
  56:.\Generated_Source\PSoC4/cyfitter_cfg.c **** CY_CFG_UNUSED
  57:.\Generated_Source\PSoC4/cyfitter_cfg.c **** static void CYMEMZERO(void *s, size_t n)
  58:.\Generated_Source\PSoC4/cyfitter_cfg.c **** {
  59:.\Generated_Source\PSoC4/cyfitter_cfg.c **** 	(void)memset(s, 0, n);
  60:.\Generated_Source\PSoC4/cyfitter_cfg.c **** }
  61:.\Generated_Source\PSoC4/cyfitter_cfg.c **** CY_CFG_UNUSED
  62:.\Generated_Source\PSoC4/cyfitter_cfg.c **** static void CYCONFIGCPY(void *dest, const void *src, size_t n);
  63:.\Generated_Source\PSoC4/cyfitter_cfg.c **** CY_CFG_UNUSED
  64:.\Generated_Source\PSoC4/cyfitter_cfg.c **** static void CYCONFIGCPY(void *dest, const void *src, size_t n)
  65:.\Generated_Source\PSoC4/cyfitter_cfg.c **** {
  66:.\Generated_Source\PSoC4/cyfitter_cfg.c **** 	(void)memcpy(dest, src, n);
  67:.\Generated_Source\PSoC4/cyfitter_cfg.c **** }
  68:.\Generated_Source\PSoC4/cyfitter_cfg.c **** CY_CFG_UNUSED
  69:.\Generated_Source\PSoC4/cyfitter_cfg.c **** static void CYCONFIGCPYCODE(void *dest, const void *src, size_t n);
  70:.\Generated_Source\PSoC4/cyfitter_cfg.c **** CY_CFG_UNUSED
  71:.\Generated_Source\PSoC4/cyfitter_cfg.c **** static void CYCONFIGCPYCODE(void *dest, const void *src, size_t n)
  72:.\Generated_Source\PSoC4/cyfitter_cfg.c **** {
  73:.\Generated_Source\PSoC4/cyfitter_cfg.c **** 	(void)memcpy(dest, src, n);
  74:.\Generated_Source\PSoC4/cyfitter_cfg.c **** }
  75:.\Generated_Source\PSoC4/cyfitter_cfg.c **** 
  76:.\Generated_Source\PSoC4/cyfitter_cfg.c **** 
  77:.\Generated_Source\PSoC4/cyfitter_cfg.c **** 
  78:.\Generated_Source\PSoC4/cyfitter_cfg.c **** /* Clock startup error codes                                                   */
  79:.\Generated_Source\PSoC4/cyfitter_cfg.c **** #define CYCLOCKSTART_NO_ERROR    0u
  80:.\Generated_Source\PSoC4/cyfitter_cfg.c **** #define CYCLOCKSTART_XTAL_ERROR  1u
  81:.\Generated_Source\PSoC4/cyfitter_cfg.c **** #define CYCLOCKSTART_32KHZ_ERROR 2u
  82:.\Generated_Source\PSoC4/cyfitter_cfg.c **** #define CYCLOCKSTART_PLL_ERROR   3u
  83:.\Generated_Source\PSoC4/cyfitter_cfg.c **** 
  84:.\Generated_Source\PSoC4/cyfitter_cfg.c **** #ifdef CY_NEED_CYCLOCKSTARTUPERROR
  85:.\Generated_Source\PSoC4/cyfitter_cfg.c **** /*******************************************************************************
  86:.\Generated_Source\PSoC4/cyfitter_cfg.c **** * Function Name: CyClockStartupError
  87:.\Generated_Source\PSoC4/cyfitter_cfg.c **** ********************************************************************************
  88:.\Generated_Source\PSoC4/cyfitter_cfg.c **** * Summary:
  89:.\Generated_Source\PSoC4/cyfitter_cfg.c **** *  If an error is encountered during clock configuration (crystal startup error,
ARM GAS  C:\Users\Pablo\AppData\Local\Temp\cccUpg8i.s 			page 3


  90:.\Generated_Source\PSoC4/cyfitter_cfg.c **** *  PLL lock error, etc.), the system will end up here.  Unless reimplemented by
  91:.\Generated_Source\PSoC4/cyfitter_cfg.c **** *  the customer, this function will stop in an infinite loop.
  92:.\Generated_Source\PSoC4/cyfitter_cfg.c **** *
  93:.\Generated_Source\PSoC4/cyfitter_cfg.c **** * Parameters:
  94:.\Generated_Source\PSoC4/cyfitter_cfg.c **** *   void
  95:.\Generated_Source\PSoC4/cyfitter_cfg.c **** *
  96:.\Generated_Source\PSoC4/cyfitter_cfg.c **** * Return:
  97:.\Generated_Source\PSoC4/cyfitter_cfg.c **** *   void
  98:.\Generated_Source\PSoC4/cyfitter_cfg.c **** *
  99:.\Generated_Source\PSoC4/cyfitter_cfg.c **** *******************************************************************************/
 100:.\Generated_Source\PSoC4/cyfitter_cfg.c **** CY_CFG_UNUSED
 101:.\Generated_Source\PSoC4/cyfitter_cfg.c **** static void CyClockStartupError(uint8 errorCode);
 102:.\Generated_Source\PSoC4/cyfitter_cfg.c **** CY_CFG_UNUSED
 103:.\Generated_Source\PSoC4/cyfitter_cfg.c **** static void CyClockStartupError(uint8 errorCode)
 104:.\Generated_Source\PSoC4/cyfitter_cfg.c **** {
 105:.\Generated_Source\PSoC4/cyfitter_cfg.c ****     /* To remove the compiler warning if errorCode not used.                */
 106:.\Generated_Source\PSoC4/cyfitter_cfg.c ****     errorCode = errorCode;
 107:.\Generated_Source\PSoC4/cyfitter_cfg.c **** 
 108:.\Generated_Source\PSoC4/cyfitter_cfg.c ****     /* `#START CyClockStartupError` */
 109:.\Generated_Source\PSoC4/cyfitter_cfg.c **** 
 110:.\Generated_Source\PSoC4/cyfitter_cfg.c ****     /* If we have a clock startup error (bad MHz crystal, PLL lock, etc.),  */
 111:.\Generated_Source\PSoC4/cyfitter_cfg.c ****     /* we will end up here to allow the customer to implement something to  */
 112:.\Generated_Source\PSoC4/cyfitter_cfg.c ****     /* deal with the clock condition.                                       */
 113:.\Generated_Source\PSoC4/cyfitter_cfg.c **** 
 114:.\Generated_Source\PSoC4/cyfitter_cfg.c ****     /* `#END` */
 115:.\Generated_Source\PSoC4/cyfitter_cfg.c **** 
 116:.\Generated_Source\PSoC4/cyfitter_cfg.c ****     /* If nothing else, stop here since the clocks have not started         */
 117:.\Generated_Source\PSoC4/cyfitter_cfg.c ****     /* correctly.                                                           */
 118:.\Generated_Source\PSoC4/cyfitter_cfg.c ****     while(1) {}
 119:.\Generated_Source\PSoC4/cyfitter_cfg.c **** }
 120:.\Generated_Source\PSoC4/cyfitter_cfg.c **** #endif
 121:.\Generated_Source\PSoC4/cyfitter_cfg.c **** 
 122:.\Generated_Source\PSoC4/cyfitter_cfg.c **** #define CY_CFG_BASE_ADDR_COUNT 6u
 123:.\Generated_Source\PSoC4/cyfitter_cfg.c **** CYPACKED typedef struct
 124:.\Generated_Source\PSoC4/cyfitter_cfg.c **** {
 125:.\Generated_Source\PSoC4/cyfitter_cfg.c **** 	uint8 offset;
 126:.\Generated_Source\PSoC4/cyfitter_cfg.c **** 	uint8 value;
 127:.\Generated_Source\PSoC4/cyfitter_cfg.c **** } CYPACKED_ATTR cy_cfg_addrvalue_t;
 128:.\Generated_Source\PSoC4/cyfitter_cfg.c **** 
 129:.\Generated_Source\PSoC4/cyfitter_cfg.c **** 
 130:.\Generated_Source\PSoC4/cyfitter_cfg.c **** 
 131:.\Generated_Source\PSoC4/cyfitter_cfg.c **** /*******************************************************************************
 132:.\Generated_Source\PSoC4/cyfitter_cfg.c **** * Function Name: cfg_write_bytes32
 133:.\Generated_Source\PSoC4/cyfitter_cfg.c **** ********************************************************************************
 134:.\Generated_Source\PSoC4/cyfitter_cfg.c **** * Summary:
 135:.\Generated_Source\PSoC4/cyfitter_cfg.c **** *  This function is used for setting up the chip configuration areas that
 136:.\Generated_Source\PSoC4/cyfitter_cfg.c **** *  contain relatively sparse data.
 137:.\Generated_Source\PSoC4/cyfitter_cfg.c **** *
 138:.\Generated_Source\PSoC4/cyfitter_cfg.c **** * Parameters:
 139:.\Generated_Source\PSoC4/cyfitter_cfg.c **** *   void
 140:.\Generated_Source\PSoC4/cyfitter_cfg.c **** *
 141:.\Generated_Source\PSoC4/cyfitter_cfg.c **** * Return:
 142:.\Generated_Source\PSoC4/cyfitter_cfg.c **** *   void
 143:.\Generated_Source\PSoC4/cyfitter_cfg.c **** *
 144:.\Generated_Source\PSoC4/cyfitter_cfg.c **** *******************************************************************************/
 145:.\Generated_Source\PSoC4/cyfitter_cfg.c **** static void cfg_write_bytes32(const uint32 addr_table[], const cy_cfg_addrvalue_t data_table[]);
 146:.\Generated_Source\PSoC4/cyfitter_cfg.c **** static void cfg_write_bytes32(const uint32 addr_table[], const cy_cfg_addrvalue_t data_table[])
ARM GAS  C:\Users\Pablo\AppData\Local\Temp\cccUpg8i.s 			page 4


 147:.\Generated_Source\PSoC4/cyfitter_cfg.c **** {
 148:.\Generated_Source\PSoC4/cyfitter_cfg.c **** 	/* For 32-bit little-endian architectures */
 149:.\Generated_Source\PSoC4/cyfitter_cfg.c **** 	uint32 i, j = 0u;
 150:.\Generated_Source\PSoC4/cyfitter_cfg.c **** 	for (i = 0u; i < CY_CFG_BASE_ADDR_COUNT; i++)
 151:.\Generated_Source\PSoC4/cyfitter_cfg.c **** 	{
 152:.\Generated_Source\PSoC4/cyfitter_cfg.c **** 		uint32 baseAddr = addr_table[i];
 153:.\Generated_Source\PSoC4/cyfitter_cfg.c **** 		uint8 count = (uint8)baseAddr;
 154:.\Generated_Source\PSoC4/cyfitter_cfg.c **** 		baseAddr &= 0xFFFFFF00u;
 155:.\Generated_Source\PSoC4/cyfitter_cfg.c **** 		while (count != 0u)
 156:.\Generated_Source\PSoC4/cyfitter_cfg.c **** 		{
 157:.\Generated_Source\PSoC4/cyfitter_cfg.c **** 			CY_SET_XTND_REG8((void CYFAR *)(baseAddr + data_table[j].offset), data_table[j].value);
 158:.\Generated_Source\PSoC4/cyfitter_cfg.c **** 			j++;
 159:.\Generated_Source\PSoC4/cyfitter_cfg.c **** 			count--;
 160:.\Generated_Source\PSoC4/cyfitter_cfg.c **** 		}
 161:.\Generated_Source\PSoC4/cyfitter_cfg.c **** 	}
 162:.\Generated_Source\PSoC4/cyfitter_cfg.c **** }
 163:.\Generated_Source\PSoC4/cyfitter_cfg.c **** 
 164:.\Generated_Source\PSoC4/cyfitter_cfg.c **** /*******************************************************************************
 165:.\Generated_Source\PSoC4/cyfitter_cfg.c **** * Function Name: SetIMOBGTrims
 166:.\Generated_Source\PSoC4/cyfitter_cfg.c **** ********************************************************************************
 167:.\Generated_Source\PSoC4/cyfitter_cfg.c **** *
 168:.\Generated_Source\PSoC4/cyfitter_cfg.c **** * Summary:
 169:.\Generated_Source\PSoC4/cyfitter_cfg.c **** *   Performs the configuration of the bandgap trim for the IMO based on the given
 170:.\Generated_Source\PSoC4/cyfitter_cfg.c **** *   expected frequency of the IMO. 
 171:.\Generated_Source\PSoC4/cyfitter_cfg.c **** *
 172:.\Generated_Source\PSoC4/cyfitter_cfg.c **** * Parameters:
 173:.\Generated_Source\PSoC4/cyfitter_cfg.c **** *   imoFreq: Frequency for operation of the IMO.
 174:.\Generated_Source\PSoC4/cyfitter_cfg.c **** *
 175:.\Generated_Source\PSoC4/cyfitter_cfg.c **** * Return:
 176:.\Generated_Source\PSoC4/cyfitter_cfg.c **** *   void
 177:.\Generated_Source\PSoC4/cyfitter_cfg.c **** *
 178:.\Generated_Source\PSoC4/cyfitter_cfg.c **** *******************************************************************************/
 179:.\Generated_Source\PSoC4/cyfitter_cfg.c **** static void SetIMOBGTrims(uint8 imoFreq);
 180:.\Generated_Source\PSoC4/cyfitter_cfg.c **** CY_CFG_SECTION
 181:.\Generated_Source\PSoC4/cyfitter_cfg.c **** static void SetIMOBGTrims(uint8 imoFreq)
 182:.\Generated_Source\PSoC4/cyfitter_cfg.c **** {
 183:.\Generated_Source\PSoC4/cyfitter_cfg.c **** 	CYPACKED typedef struct {
 184:.\Generated_Source\PSoC4/cyfitter_cfg.c **** 		uint8 freq;
 185:.\Generated_Source\PSoC4/cyfitter_cfg.c **** 		uint8 absolute;
 186:.\Generated_Source\PSoC4/cyfitter_cfg.c **** 		uint8 tmpco;
 187:.\Generated_Source\PSoC4/cyfitter_cfg.c **** 	} CYPACKED_ATTR imo_trim_entry_t;
 188:.\Generated_Source\PSoC4/cyfitter_cfg.c **** 
 189:.\Generated_Source\PSoC4/cyfitter_cfg.c **** 	CYPACKED typedef struct {
 190:.\Generated_Source\PSoC4/cyfitter_cfg.c **** 		imo_trim_entry_t entries[4];
 191:.\Generated_Source\PSoC4/cyfitter_cfg.c **** 	} CYPACKED_ATTR imo_trim_table_t;
 192:.\Generated_Source\PSoC4/cyfitter_cfg.c **** 
 193:.\Generated_Source\PSoC4/cyfitter_cfg.c **** 	static const imo_trim_table_t *imo_trim_table = (const imo_trim_table_t *)CYREG_SFLASH_IMO_MAXF0;
 194:.\Generated_Source\PSoC4/cyfitter_cfg.c **** 	static const uint32 IMO_TRIM_FREQ_TABLE_ENTRIES = sizeof(imo_trim_table->entries)/sizeof(imo_trim_
 195:.\Generated_Source\PSoC4/cyfitter_cfg.c **** 
 196:.\Generated_Source\PSoC4/cyfitter_cfg.c **** 	int32 imoTrimIndex;
 197:.\Generated_Source\PSoC4/cyfitter_cfg.c **** 	uint8 setAbs;
 198:.\Generated_Source\PSoC4/cyfitter_cfg.c **** 	uint8 setTmpCo;
 199:.\Generated_Source\PSoC4/cyfitter_cfg.c **** 
 200:.\Generated_Source\PSoC4/cyfitter_cfg.c **** 	/* Traverse the SFLASH IMO frequency-dependent bandgap trim table to
 201:.\Generated_Source\PSoC4/cyfitter_cfg.c **** 	 * locate the appropriate value to trim the IMO bandgap based on freq. */
 202:.\Generated_Source\PSoC4/cyfitter_cfg.c **** 	setAbs = CY_GET_REG8((const void *)CYREG_SFLASH_IMO_ABS4);
 203:.\Generated_Source\PSoC4/cyfitter_cfg.c **** 	setTmpCo = CY_GET_REG8((const void *)CYREG_SFLASH_IMO_TMPCO4);
ARM GAS  C:\Users\Pablo\AppData\Local\Temp\cccUpg8i.s 			page 5


 204:.\Generated_Source\PSoC4/cyfitter_cfg.c **** 	for (imoTrimIndex = ((int32)IMO_TRIM_FREQ_TABLE_ENTRIES)-1;
 205:.\Generated_Source\PSoC4/cyfitter_cfg.c **** 	     (imoTrimIndex >= 0) && (imoFreq <= imo_trim_table->entries[imoTrimIndex].freq);
 206:.\Generated_Source\PSoC4/cyfitter_cfg.c **** 	     imoTrimIndex--)
 207:.\Generated_Source\PSoC4/cyfitter_cfg.c **** 	{
 208:.\Generated_Source\PSoC4/cyfitter_cfg.c **** 		setAbs = imo_trim_table->entries[imoTrimIndex].absolute;
 209:.\Generated_Source\PSoC4/cyfitter_cfg.c **** 		setTmpCo = imo_trim_table->entries[imoTrimIndex].tmpco;
 210:.\Generated_Source\PSoC4/cyfitter_cfg.c **** 	}
 211:.\Generated_Source\PSoC4/cyfitter_cfg.c **** 
 212:.\Generated_Source\PSoC4/cyfitter_cfg.c **** 	CY_SET_REG32((void *)CYREG_PWR_BG_TRIM4, setAbs);
 213:.\Generated_Source\PSoC4/cyfitter_cfg.c **** 	CY_SET_REG32((void *)CYREG_PWR_BG_TRIM5, setTmpCo);
 214:.\Generated_Source\PSoC4/cyfitter_cfg.c **** }
 215:.\Generated_Source\PSoC4/cyfitter_cfg.c **** 
 216:.\Generated_Source\PSoC4/cyfitter_cfg.c **** 
 217:.\Generated_Source\PSoC4/cyfitter_cfg.c **** 
 218:.\Generated_Source\PSoC4/cyfitter_cfg.c **** /*******************************************************************************
 219:.\Generated_Source\PSoC4/cyfitter_cfg.c **** * Function Name: ClockSetup
 220:.\Generated_Source\PSoC4/cyfitter_cfg.c **** ********************************************************************************
 221:.\Generated_Source\PSoC4/cyfitter_cfg.c **** *
 222:.\Generated_Source\PSoC4/cyfitter_cfg.c **** * Summary:
 223:.\Generated_Source\PSoC4/cyfitter_cfg.c **** *   Performs the initialization of all of the clocks in the device based on the
 224:.\Generated_Source\PSoC4/cyfitter_cfg.c **** *   settings in the Clock tab of the DWR.  This includes enabling the requested
 225:.\Generated_Source\PSoC4/cyfitter_cfg.c **** *   clocks and setting the necessary dividers to produce the desired frequency. 
 226:.\Generated_Source\PSoC4/cyfitter_cfg.c **** *
 227:.\Generated_Source\PSoC4/cyfitter_cfg.c **** * Parameters:
 228:.\Generated_Source\PSoC4/cyfitter_cfg.c **** *   void
 229:.\Generated_Source\PSoC4/cyfitter_cfg.c **** *
 230:.\Generated_Source\PSoC4/cyfitter_cfg.c **** * Return:
 231:.\Generated_Source\PSoC4/cyfitter_cfg.c **** *   void
 232:.\Generated_Source\PSoC4/cyfitter_cfg.c **** *
 233:.\Generated_Source\PSoC4/cyfitter_cfg.c **** *******************************************************************************/
 234:.\Generated_Source\PSoC4/cyfitter_cfg.c **** static void ClockSetup(void);
 235:.\Generated_Source\PSoC4/cyfitter_cfg.c **** CY_CFG_SECTION
 236:.\Generated_Source\PSoC4/cyfitter_cfg.c **** static void ClockSetup(void)
 237:.\Generated_Source\PSoC4/cyfitter_cfg.c **** {
 238:.\Generated_Source\PSoC4/cyfitter_cfg.c **** 	/* Enable HALF_EN before trimming for the flash accelerator. */
 239:.\Generated_Source\PSoC4/cyfitter_cfg.c **** 	CY_SET_REG32((void CYXDATA *)(CYREG_CLK_SELECT), (CY_GET_REG32((void *)CYREG_CLK_SELECT) | 0x00040
 240:.\Generated_Source\PSoC4/cyfitter_cfg.c **** 
 241:.\Generated_Source\PSoC4/cyfitter_cfg.c **** 	/* Trim IMO BG based on desired frequency. */
 242:.\Generated_Source\PSoC4/cyfitter_cfg.c **** 	SetIMOBGTrims(24u);
 243:.\Generated_Source\PSoC4/cyfitter_cfg.c **** 
 244:.\Generated_Source\PSoC4/cyfitter_cfg.c **** 	/* Going less than or equal to 24MHz, so update the clock speed then adjust trim value. */
 245:.\Generated_Source\PSoC4/cyfitter_cfg.c **** 	CY_SET_REG32((void CYXDATA *)(CYREG_CLK_IMO_TRIM2), (25u));
 246:.\Generated_Source\PSoC4/cyfitter_cfg.c **** 	CyDelayCycles(5u);
 247:.\Generated_Source\PSoC4/cyfitter_cfg.c **** 	CY_SET_REG32((void CYXDATA *)(CYREG_CLK_IMO_TRIM1), (CY_GET_REG8((void *)CYREG_SFLASH_IMO_TRIM21))
 248:.\Generated_Source\PSoC4/cyfitter_cfg.c **** 	CyDelayUs(5u);
 249:.\Generated_Source\PSoC4/cyfitter_cfg.c **** 
 250:.\Generated_Source\PSoC4/cyfitter_cfg.c **** 	/* Disable HALF_EN since it is not required at this IMO frequency. */
 251:.\Generated_Source\PSoC4/cyfitter_cfg.c **** 	CY_SET_REG32((void CYXDATA *)(CYREG_CLK_SELECT), (CY_GET_REG32((void *)CYREG_CLK_SELECT) & 0xFFFBF
 252:.\Generated_Source\PSoC4/cyfitter_cfg.c **** 	/* CYDEV_CLK_ILO_CONFIG Starting address: CYDEV_CLK_ILO_CONFIG */
 253:.\Generated_Source\PSoC4/cyfitter_cfg.c **** 	CY_SET_XTND_REG32((void CYFAR *)(CYREG_CLK_ILO_CONFIG), 0x80000006u);
 254:.\Generated_Source\PSoC4/cyfitter_cfg.c **** 
 255:.\Generated_Source\PSoC4/cyfitter_cfg.c **** 
 256:.\Generated_Source\PSoC4/cyfitter_cfg.c **** 	/* CYDEV_CLK_SELECT00 Starting address: CYDEV_CLK_SELECT00 */
 257:.\Generated_Source\PSoC4/cyfitter_cfg.c **** 	CY_SET_XTND_REG32((void CYFAR *)(CYREG_CLK_SELECT02), 0x00000020u);
 258:.\Generated_Source\PSoC4/cyfitter_cfg.c **** 	CY_SET_XTND_REG32((void CYFAR *)(CYREG_CLK_SELECT07), 0x00000010u);
 259:.\Generated_Source\PSoC4/cyfitter_cfg.c **** 
 260:.\Generated_Source\PSoC4/cyfitter_cfg.c **** 	/* CYDEV_CLK_IMO_CONFIG Starting address: CYDEV_CLK_IMO_CONFIG */
ARM GAS  C:\Users\Pablo\AppData\Local\Temp\cccUpg8i.s 			page 6


 261:.\Generated_Source\PSoC4/cyfitter_cfg.c **** 	CY_SET_XTND_REG32((void CYFAR *)(CYREG_CLK_IMO_CONFIG), 0x82000000u);
 262:.\Generated_Source\PSoC4/cyfitter_cfg.c **** 
 263:.\Generated_Source\PSoC4/cyfitter_cfg.c **** 	/* CYDEV_CLK_DIVIDER_A00 Starting address: CYDEV_CLK_DIVIDER_A00 */
 264:.\Generated_Source\PSoC4/cyfitter_cfg.c **** 	CY_SET_XTND_REG32((void CYFAR *)(CYREG_CLK_DIVIDER_A00), 0x80000004u);
 265:.\Generated_Source\PSoC4/cyfitter_cfg.c **** 
 266:.\Generated_Source\PSoC4/cyfitter_cfg.c **** 	/* CYDEV_CLK_DIVIDER_B00 Starting address: CYDEV_CLK_DIVIDER_B00 */
 267:.\Generated_Source\PSoC4/cyfitter_cfg.c **** 	CY_SET_XTND_REG32((void CYFAR *)(CYREG_CLK_DIVIDER_B00), 0x800000CFu);
 268:.\Generated_Source\PSoC4/cyfitter_cfg.c **** 
 269:.\Generated_Source\PSoC4/cyfitter_cfg.c **** }
 270:.\Generated_Source\PSoC4/cyfitter_cfg.c **** 
 271:.\Generated_Source\PSoC4/cyfitter_cfg.c **** 
 272:.\Generated_Source\PSoC4/cyfitter_cfg.c **** /* Analog API Functions */
 273:.\Generated_Source\PSoC4/cyfitter_cfg.c **** 
 274:.\Generated_Source\PSoC4/cyfitter_cfg.c **** 
 275:.\Generated_Source\PSoC4/cyfitter_cfg.c **** /*******************************************************************************
 276:.\Generated_Source\PSoC4/cyfitter_cfg.c **** * Function Name: AnalogSetDefault
 277:.\Generated_Source\PSoC4/cyfitter_cfg.c **** ********************************************************************************
 278:.\Generated_Source\PSoC4/cyfitter_cfg.c **** *
 279:.\Generated_Source\PSoC4/cyfitter_cfg.c **** * Summary:
 280:.\Generated_Source\PSoC4/cyfitter_cfg.c **** *  Sets up the analog portions of the chip to default values based on chip
 281:.\Generated_Source\PSoC4/cyfitter_cfg.c **** *  configuration options from the project.
 282:.\Generated_Source\PSoC4/cyfitter_cfg.c **** *
 283:.\Generated_Source\PSoC4/cyfitter_cfg.c **** * Parameters:
 284:.\Generated_Source\PSoC4/cyfitter_cfg.c **** *  void
 285:.\Generated_Source\PSoC4/cyfitter_cfg.c **** *
 286:.\Generated_Source\PSoC4/cyfitter_cfg.c **** * Return:
 287:.\Generated_Source\PSoC4/cyfitter_cfg.c **** *  void
 288:.\Generated_Source\PSoC4/cyfitter_cfg.c **** *
 289:.\Generated_Source\PSoC4/cyfitter_cfg.c **** *******************************************************************************/
 290:.\Generated_Source\PSoC4/cyfitter_cfg.c **** static void AnalogSetDefault(void);
 291:.\Generated_Source\PSoC4/cyfitter_cfg.c **** static void AnalogSetDefault(void)
 292:.\Generated_Source\PSoC4/cyfitter_cfg.c **** {
 293:.\Generated_Source\PSoC4/cyfitter_cfg.c **** 	CY_SET_XTND_REG32((void CYFAR *)CYREG_CTBM_OA0_SW, 0x00204001u);
 294:.\Generated_Source\PSoC4/cyfitter_cfg.c **** 	CY_SET_XTND_REG32((void CYFAR *)CYREG_SAR_MUX_SWITCH0, 0x00080000u);
 295:.\Generated_Source\PSoC4/cyfitter_cfg.c **** 	SetAnalogRoutingPumps(1);
 296:.\Generated_Source\PSoC4/cyfitter_cfg.c **** }
 297:.\Generated_Source\PSoC4/cyfitter_cfg.c **** 
 298:.\Generated_Source\PSoC4/cyfitter_cfg.c **** 
 299:.\Generated_Source\PSoC4/cyfitter_cfg.c **** /*******************************************************************************
 300:.\Generated_Source\PSoC4/cyfitter_cfg.c **** * Function Name: SetAnalogRoutingPumps
 301:.\Generated_Source\PSoC4/cyfitter_cfg.c **** ********************************************************************************
 302:.\Generated_Source\PSoC4/cyfitter_cfg.c **** *
 303:.\Generated_Source\PSoC4/cyfitter_cfg.c **** * Summary:
 304:.\Generated_Source\PSoC4/cyfitter_cfg.c **** * Enables or disables the analog pumps feeding analog routing switches.
 305:.\Generated_Source\PSoC4/cyfitter_cfg.c **** * Intended to be called at startup, based on the Vdda system configuration;
 306:.\Generated_Source\PSoC4/cyfitter_cfg.c **** * may be called during operation when the user informs us that the Vdda voltage crossed the pump th
 307:.\Generated_Source\PSoC4/cyfitter_cfg.c **** *
 308:.\Generated_Source\PSoC4/cyfitter_cfg.c **** * Parameters:
 309:.\Generated_Source\PSoC4/cyfitter_cfg.c **** *  enabled - 1 to enable the pumps, 0 to disable the pumps
 310:.\Generated_Source\PSoC4/cyfitter_cfg.c **** *
 311:.\Generated_Source\PSoC4/cyfitter_cfg.c **** * Return:
 312:.\Generated_Source\PSoC4/cyfitter_cfg.c **** *  void
 313:.\Generated_Source\PSoC4/cyfitter_cfg.c **** *
 314:.\Generated_Source\PSoC4/cyfitter_cfg.c **** *******************************************************************************/
 315:.\Generated_Source\PSoC4/cyfitter_cfg.c **** void SetAnalogRoutingPumps(uint8 enabled)
 316:.\Generated_Source\PSoC4/cyfitter_cfg.c **** {
  26              		.loc 1 316 0
ARM GAS  C:\Users\Pablo\AppData\Local\Temp\cccUpg8i.s 			page 7


  27              		.cfi_startproc
  28              	.LVL0:
 317:.\Generated_Source\PSoC4/cyfitter_cfg.c **** 	uint32 regValue = CY_GET_XTND_REG32((void *)(CYREG_SAR_PUMP_CTRL));
  29              		.loc 1 317 0
  30 0000 064B     		ldr	r3, .L5
  31 0002 1A68     		ldr	r2, [r3]
  32              	.LVL1:
  33 0004 191C     		mov	r1, r3
 318:.\Generated_Source\PSoC4/cyfitter_cfg.c **** 	if (enabled != 0u)
  34              		.loc 1 318 0
  35 0006 0028     		cmp	r0, #0
  36 0008 03D0     		beq	.L2
 319:.\Generated_Source\PSoC4/cyfitter_cfg.c **** 	{
 320:.\Generated_Source\PSoC4/cyfitter_cfg.c **** 		regValue |= 0x80000000u;
  37              		.loc 1 320 0
  38 000a 8023     		mov	r3, #128
  39 000c 1B06     		lsl	r3, r3, #24
  40 000e 1343     		orr	r3, r2
  41              	.LVL2:
  42 0010 01E0     		b	.L3
  43              	.LVL3:
  44              	.L2:
 321:.\Generated_Source\PSoC4/cyfitter_cfg.c **** 	}
 322:.\Generated_Source\PSoC4/cyfitter_cfg.c **** 	else
 323:.\Generated_Source\PSoC4/cyfitter_cfg.c **** 	{
 324:.\Generated_Source\PSoC4/cyfitter_cfg.c **** 		regValue &= ~0x80000000u;
  45              		.loc 1 324 0
  46 0012 5300     		lsl	r3, r2, #1
  47 0014 5B08     		lsr	r3, r3, #1
  48              	.LVL4:
  49              	.L3:
 325:.\Generated_Source\PSoC4/cyfitter_cfg.c **** 	}
 326:.\Generated_Source\PSoC4/cyfitter_cfg.c **** 	CY_SET_XTND_REG32((void *)(CYREG_SAR_PUMP_CTRL), regValue);
  50              		.loc 1 326 0
  51 0016 0B60     		str	r3, [r1]
 327:.\Generated_Source\PSoC4/cyfitter_cfg.c **** }
  52              		.loc 1 327 0
  53              		@ sp needed
  54 0018 7047     		bx	lr
  55              	.L6:
  56 001a C046     		.align	2
  57              	.L5:
  58 001c 80031A40 		.word	1075446656
  59              		.cfi_endproc
  60              	.LFE7:
  61              		.size	SetAnalogRoutingPumps, .-SetAnalogRoutingPumps
  62              		.section	.text.AMux_DisconnectAll,"ax",%progbits
  63              		.align	1
  64              		.global	AMux_DisconnectAll
  65              		.code	16
  66              		.thumb_func
  67              		.type	AMux_DisconnectAll, %function
  68              	AMux_DisconnectAll:
  69              	.LFB8:
 328:.\Generated_Source\PSoC4/cyfitter_cfg.c **** 
 329:.\Generated_Source\PSoC4/cyfitter_cfg.c **** #define CY_AMUX_UNUSED CYREG_CM0_ROM_DWT
 330:.\Generated_Source\PSoC4/cyfitter_cfg.c **** int8 AMux_curChannel = -1;
ARM GAS  C:\Users\Pablo\AppData\Local\Temp\cccUpg8i.s 			page 8


 331:.\Generated_Source\PSoC4/cyfitter_cfg.c **** 
 332:.\Generated_Source\PSoC4/cyfitter_cfg.c **** void AMux_DisconnectAll(void)
 333:.\Generated_Source\PSoC4/cyfitter_cfg.c **** {
  70              		.loc 1 333 0
  71              		.cfi_startproc
 334:.\Generated_Source\PSoC4/cyfitter_cfg.c **** 	AMux_curChannel = -1;
  72              		.loc 1 334 0
  73 0000 0C4B     		ldr	r3, .L8
  74 0002 FF22     		mov	r2, #255
  75 0004 1A70     		strb	r2, [r3]
 335:.\Generated_Source\PSoC4/cyfitter_cfg.c **** 	CY_SET_REG32((void CYXDATA *)CYREG_HSIOM_PORT_SEL2, (CY_GET_REG32((void CYXDATA *)CYREG_HSIOM_PORT
  76              		.loc 1 335 0
  77 0006 0C4B     		ldr	r3, .L8+4
  78 0008 0C4A     		ldr	r2, .L8+8
  79 000a 1968     		ldr	r1, [r3]
 336:.\Generated_Source\PSoC4/cyfitter_cfg.c **** 	CY_SET_REG32((void CYXDATA *)CYREG_HSIOM_PORT_SEL2, (CY_GET_REG32((void CYXDATA *)CYREG_HSIOM_PORT
 337:.\Generated_Source\PSoC4/cyfitter_cfg.c **** 	CY_SET_REG32((void CYXDATA *)CYREG_HSIOM_PORT_SEL2, (CY_GET_REG32((void CYXDATA *)CYREG_HSIOM_PORT
 338:.\Generated_Source\PSoC4/cyfitter_cfg.c **** 	CY_SET_REG32((void CYXDATA *)CYREG_HSIOM_PORT_SEL2, (CY_GET_REG32((void CYXDATA *)CYREG_HSIOM_PORT
 339:.\Generated_Source\PSoC4/cyfitter_cfg.c **** 	CY_SET_REG32((void CYXDATA *)CYREG_HSIOM_PORT_SEL2, (CY_GET_REG32((void CYXDATA *)CYREG_HSIOM_PORT
 340:.\Generated_Source\PSoC4/cyfitter_cfg.c **** }
  80              		.loc 1 340 0
  81              		@ sp needed
 335:.\Generated_Source\PSoC4/cyfitter_cfg.c **** 	CY_SET_REG32((void CYXDATA *)CYREG_HSIOM_PORT_SEL2, (CY_GET_REG32((void CYXDATA *)CYREG_HSIOM_PORT
  82              		.loc 1 335 0
  83 000c 0A40     		and	r2, r1
  84 000e 1A60     		str	r2, [r3]
 336:.\Generated_Source\PSoC4/cyfitter_cfg.c **** 	CY_SET_REG32((void CYXDATA *)CYREG_HSIOM_PORT_SEL2, (CY_GET_REG32((void CYXDATA *)CYREG_HSIOM_PORT
  85              		.loc 1 336 0
  86 0010 1968     		ldr	r1, [r3]
  87 0012 0B4A     		ldr	r2, .L8+12
  88 0014 0A40     		and	r2, r1
  89 0016 1A60     		str	r2, [r3]
 337:.\Generated_Source\PSoC4/cyfitter_cfg.c **** 	CY_SET_REG32((void CYXDATA *)CYREG_HSIOM_PORT_SEL2, (CY_GET_REG32((void CYXDATA *)CYREG_HSIOM_PORT
  90              		.loc 1 337 0
  91 0018 1968     		ldr	r1, [r3]
  92 001a 0A4A     		ldr	r2, .L8+16
  93 001c 0A40     		and	r2, r1
  94 001e 1A60     		str	r2, [r3]
 338:.\Generated_Source\PSoC4/cyfitter_cfg.c **** 	CY_SET_REG32((void CYXDATA *)CYREG_HSIOM_PORT_SEL2, (CY_GET_REG32((void CYXDATA *)CYREG_HSIOM_PORT
  95              		.loc 1 338 0
  96 0020 1968     		ldr	r1, [r3]
  97 0022 094A     		ldr	r2, .L8+20
  98 0024 0A40     		and	r2, r1
  99 0026 1A60     		str	r2, [r3]
 339:.\Generated_Source\PSoC4/cyfitter_cfg.c **** 	CY_SET_REG32((void CYXDATA *)CYREG_HSIOM_PORT_SEL2, (CY_GET_REG32((void CYXDATA *)CYREG_HSIOM_PORT
 100              		.loc 1 339 0
 101 0028 1968     		ldr	r1, [r3]
 102 002a 084A     		ldr	r2, .L8+24
 103 002c 0A40     		and	r2, r1
 104 002e 1A60     		str	r2, [r3]
 105              		.loc 1 340 0
 106 0030 7047     		bx	lr
 107              	.L9:
 108 0032 C046     		.align	2
 109              	.L8:
 110 0034 00000000 		.word	.LANCHOR0
 111 0038 08000140 		.word	1073807368
ARM GAS  C:\Users\Pablo\AppData\Local\Temp\cccUpg8i.s 			page 9


 112 003c FFF9FFFF 		.word	-1537
 113 0040 FF9FFFFF 		.word	-24577
 114 0044 FFFFF9FF 		.word	-393217
 115 0048 FFFF9FFF 		.word	-6291457
 116 004c FFFFFFF9 		.word	-100663297
 117              		.cfi_endproc
 118              	.LFE8:
 119              		.size	AMux_DisconnectAll, .-AMux_DisconnectAll
 120              		.section	.text.AMux_Next,"ax",%progbits
 121              		.align	1
 122              		.global	AMux_Next
 123              		.code	16
 124              		.thumb_func
 125              		.type	AMux_Next, %function
 126              	AMux_Next:
 127              	.LFB9:
 341:.\Generated_Source\PSoC4/cyfitter_cfg.c **** 
 342:.\Generated_Source\PSoC4/cyfitter_cfg.c **** void AMux_Next(void)
 343:.\Generated_Source\PSoC4/cyfitter_cfg.c **** {
 128              		.loc 1 343 0
 129              		.cfi_startproc
 130 0000 00B5     		push	{lr}
 131              		.cfi_def_cfa_offset 4
 132              		.cfi_offset 14, -4
 344:.\Generated_Source\PSoC4/cyfitter_cfg.c **** 	AMux_curChannel++;
 133              		.loc 1 344 0
 134 0002 1D4A     		ldr	r2, .L20
 135 0004 1D4B     		ldr	r3, .L20+4
 136 0006 1078     		ldrb	r0, [r2]
 137 0008 0130     		add	r0, r0, #1
 138 000a C0B2     		uxtb	r0, r0
 139 000c 1070     		strb	r0, [r2]
 345:.\Generated_Source\PSoC4/cyfitter_cfg.c **** 	switch (AMux_curChannel)
 140              		.loc 1 345 0
 141 000e 40B2     		sxtb	r0, r0
 142 0010 0428     		cmp	r0, #4
 143 0012 04D8     		bhi	.L11
 144 0014 FFF7FEFF 		bl	__gnu_thumb1_case_uqi
 145              	.L13:
 146 0018 05       		.byte	(.L12-.L13)/2
 147 0019 0D       		.byte	(.L14-.L13)/2
 148 001a 15       		.byte	(.L15-.L13)/2
 149 001b 1D       		.byte	(.L16-.L13)/2
 150 001c 25       		.byte	(.L17-.L13)/2
 151 001d 00       		.p2align 1
 152              	.L11:
 346:.\Generated_Source\PSoC4/cyfitter_cfg.c **** 	{
 347:.\Generated_Source\PSoC4/cyfitter_cfg.c **** 	case 6: /* to force jump table (not executed) */
 348:.\Generated_Source\PSoC4/cyfitter_cfg.c **** 		AMux_curChannel = 6;
 349:.\Generated_Source\PSoC4/cyfitter_cfg.c **** 	case 7: /* to force jump table (not executed) */
 350:.\Generated_Source\PSoC4/cyfitter_cfg.c **** 		AMux_curChannel = 7;
 351:.\Generated_Source\PSoC4/cyfitter_cfg.c **** 	case 5:
 352:.\Generated_Source\PSoC4/cyfitter_cfg.c **** 	default:
 353:.\Generated_Source\PSoC4/cyfitter_cfg.c **** 		AMux_curChannel = 0;
 153              		.loc 1 353 0
 154 001e 0021     		mov	r1, #0
 155 0020 1170     		strb	r1, [r2]
ARM GAS  C:\Users\Pablo\AppData\Local\Temp\cccUpg8i.s 			page 10


 156              	.L12:
 354:.\Generated_Source\PSoC4/cyfitter_cfg.c **** 	case 0:
 355:.\Generated_Source\PSoC4/cyfitter_cfg.c **** 		CY_SET_REG32((void CYXDATA *)CYREG_HSIOM_PORT_SEL2, (CY_GET_REG32((void CYXDATA *)CYREG_HSIOM_POR
 157              		.loc 1 355 0
 158 0022 1968     		ldr	r1, [r3]
 159 0024 164A     		ldr	r2, .L20+8
 160 0026 0A40     		and	r2, r1
 161 0028 1A60     		str	r2, [r3]
 356:.\Generated_Source\PSoC4/cyfitter_cfg.c **** 		CY_SET_REG32((void CYXDATA *)CYREG_HSIOM_PORT_SEL2, (CY_GET_REG32((void CYXDATA *)CYREG_HSIOM_POR
 162              		.loc 1 356 0
 163 002a C022     		mov	r2, #192
 164 002c 1968     		ldr	r1, [r3]
 165 002e D200     		lsl	r2, r2, #3
 166 0030 1EE0     		b	.L19
 167              	.L14:
 357:.\Generated_Source\PSoC4/cyfitter_cfg.c **** 		break;
 358:.\Generated_Source\PSoC4/cyfitter_cfg.c **** 	case 1:
 359:.\Generated_Source\PSoC4/cyfitter_cfg.c **** 		CY_SET_REG32((void CYXDATA *)CYREG_HSIOM_PORT_SEL2, (CY_GET_REG32((void CYXDATA *)CYREG_HSIOM_POR
 168              		.loc 1 359 0
 169 0032 1968     		ldr	r1, [r3]
 170 0034 134A     		ldr	r2, .L20+12
 171 0036 0A40     		and	r2, r1
 172 0038 1A60     		str	r2, [r3]
 360:.\Generated_Source\PSoC4/cyfitter_cfg.c **** 		CY_SET_REG32((void CYXDATA *)CYREG_HSIOM_PORT_SEL2, (CY_GET_REG32((void CYXDATA *)CYREG_HSIOM_POR
 173              		.loc 1 360 0
 174 003a C022     		mov	r2, #192
 175 003c 1968     		ldr	r1, [r3]
 176 003e D201     		lsl	r2, r2, #7
 177 0040 16E0     		b	.L19
 178              	.L15:
 361:.\Generated_Source\PSoC4/cyfitter_cfg.c **** 		break;
 362:.\Generated_Source\PSoC4/cyfitter_cfg.c **** 	case 2:
 363:.\Generated_Source\PSoC4/cyfitter_cfg.c **** 		CY_SET_REG32((void CYXDATA *)CYREG_HSIOM_PORT_SEL2, (CY_GET_REG32((void CYXDATA *)CYREG_HSIOM_POR
 179              		.loc 1 363 0
 180 0042 1968     		ldr	r1, [r3]
 181 0044 104A     		ldr	r2, .L20+16
 182 0046 0A40     		and	r2, r1
 183 0048 1A60     		str	r2, [r3]
 364:.\Generated_Source\PSoC4/cyfitter_cfg.c **** 		CY_SET_REG32((void CYXDATA *)CYREG_HSIOM_PORT_SEL2, (CY_GET_REG32((void CYXDATA *)CYREG_HSIOM_POR
 184              		.loc 1 364 0
 185 004a C022     		mov	r2, #192
 186 004c 1968     		ldr	r1, [r3]
 187 004e D202     		lsl	r2, r2, #11
 188 0050 0EE0     		b	.L19
 189              	.L16:
 365:.\Generated_Source\PSoC4/cyfitter_cfg.c **** 		break;
 366:.\Generated_Source\PSoC4/cyfitter_cfg.c **** 	case 3:
 367:.\Generated_Source\PSoC4/cyfitter_cfg.c **** 		CY_SET_REG32((void CYXDATA *)CYREG_HSIOM_PORT_SEL2, (CY_GET_REG32((void CYXDATA *)CYREG_HSIOM_POR
 190              		.loc 1 367 0
 191 0052 1968     		ldr	r1, [r3]
 192 0054 0D4A     		ldr	r2, .L20+20
 193 0056 0A40     		and	r2, r1
 194 0058 1A60     		str	r2, [r3]
 368:.\Generated_Source\PSoC4/cyfitter_cfg.c **** 		CY_SET_REG32((void CYXDATA *)CYREG_HSIOM_PORT_SEL2, (CY_GET_REG32((void CYXDATA *)CYREG_HSIOM_POR
 195              		.loc 1 368 0
 196 005a C022     		mov	r2, #192
 197 005c 1968     		ldr	r1, [r3]
ARM GAS  C:\Users\Pablo\AppData\Local\Temp\cccUpg8i.s 			page 11


 198 005e D203     		lsl	r2, r2, #15
 199 0060 06E0     		b	.L19
 200              	.L17:
 369:.\Generated_Source\PSoC4/cyfitter_cfg.c **** 		break;
 370:.\Generated_Source\PSoC4/cyfitter_cfg.c **** 	case 4:
 371:.\Generated_Source\PSoC4/cyfitter_cfg.c **** 		CY_SET_REG32((void CYXDATA *)CYREG_HSIOM_PORT_SEL2, (CY_GET_REG32((void CYXDATA *)CYREG_HSIOM_POR
 201              		.loc 1 371 0
 202 0062 1968     		ldr	r1, [r3]
 203 0064 0A4A     		ldr	r2, .L20+24
 204 0066 0A40     		and	r2, r1
 205 0068 1A60     		str	r2, [r3]
 372:.\Generated_Source\PSoC4/cyfitter_cfg.c **** 		CY_SET_REG32((void CYXDATA *)CYREG_HSIOM_PORT_SEL2, (CY_GET_REG32((void CYXDATA *)CYREG_HSIOM_POR
 206              		.loc 1 372 0
 207 006a 1968     		ldr	r1, [r3]
 208 006c C022     		mov	r2, #192
 209 006e D204     		lsl	r2, r2, #19
 210              	.L19:
 211 0070 0A43     		orr	r2, r1
 212 0072 1A60     		str	r2, [r3]
 373:.\Generated_Source\PSoC4/cyfitter_cfg.c **** 		break;
 374:.\Generated_Source\PSoC4/cyfitter_cfg.c **** 	}
 375:.\Generated_Source\PSoC4/cyfitter_cfg.c **** }
 213              		.loc 1 375 0
 214              		@ sp needed
 215 0074 00BD     		pop	{pc}
 216              	.L21:
 217 0076 C046     		.align	2
 218              	.L20:
 219 0078 00000000 		.word	.LANCHOR0
 220 007c 08000140 		.word	1073807368
 221 0080 FFFFFFF9 		.word	-100663297
 222 0084 FFF9FFFF 		.word	-1537
 223 0088 FF9FFFFF 		.word	-24577
 224 008c FFFFF9FF 		.word	-393217
 225 0090 FFFF9FFF 		.word	-6291457
 226              		.cfi_endproc
 227              	.LFE9:
 228              		.size	AMux_Next, .-AMux_Next
 229              		.section	.psocinit,"ax",%progbits
 230              		.align	1
 231              		.global	cyfitter_cfg
 232              		.code	16
 233              		.thumb_func
 234              		.type	cyfitter_cfg, %function
 235              	cyfitter_cfg:
 236              	.LFB10:
 376:.\Generated_Source\PSoC4/cyfitter_cfg.c **** 
 377:.\Generated_Source\PSoC4/cyfitter_cfg.c **** 
 378:.\Generated_Source\PSoC4/cyfitter_cfg.c **** 
 379:.\Generated_Source\PSoC4/cyfitter_cfg.c **** /*******************************************************************************
 380:.\Generated_Source\PSoC4/cyfitter_cfg.c **** * Function Name: cyfitter_cfg
 381:.\Generated_Source\PSoC4/cyfitter_cfg.c **** ********************************************************************************
 382:.\Generated_Source\PSoC4/cyfitter_cfg.c **** * Summary:
 383:.\Generated_Source\PSoC4/cyfitter_cfg.c **** *  This function is called by the start-up code for the selected device. It
 384:.\Generated_Source\PSoC4/cyfitter_cfg.c **** *  performs all of the necessary device configuration based on the design
 385:.\Generated_Source\PSoC4/cyfitter_cfg.c **** *  settings.  This includes settings from the Design Wide Resources (DWR) such
 386:.\Generated_Source\PSoC4/cyfitter_cfg.c **** *  as Clocks and Pins as well as any component configuration that is necessary.
ARM GAS  C:\Users\Pablo\AppData\Local\Temp\cccUpg8i.s 			page 12


 387:.\Generated_Source\PSoC4/cyfitter_cfg.c **** *
 388:.\Generated_Source\PSoC4/cyfitter_cfg.c **** * Parameters:  
 389:.\Generated_Source\PSoC4/cyfitter_cfg.c **** *   void
 390:.\Generated_Source\PSoC4/cyfitter_cfg.c **** *
 391:.\Generated_Source\PSoC4/cyfitter_cfg.c **** * Return:
 392:.\Generated_Source\PSoC4/cyfitter_cfg.c **** *   void
 393:.\Generated_Source\PSoC4/cyfitter_cfg.c **** *
 394:.\Generated_Source\PSoC4/cyfitter_cfg.c **** *******************************************************************************/
 395:.\Generated_Source\PSoC4/cyfitter_cfg.c **** CY_CFG_SECTION
 396:.\Generated_Source\PSoC4/cyfitter_cfg.c **** void cyfitter_cfg(void)
 397:.\Generated_Source\PSoC4/cyfitter_cfg.c **** {
 237              		.loc 1 397 0
 238              		.cfi_startproc
 239 0000 F7B5     		push	{r0, r1, r2, r4, r5, r6, r7, lr}
 240              		.cfi_def_cfa_offset 32
 241              		.cfi_offset 0, -32
 242              		.cfi_offset 1, -28
 243              		.cfi_offset 2, -24
 244              		.cfi_offset 4, -20
 245              		.cfi_offset 5, -16
 246              		.cfi_offset 6, -12
 247              		.cfi_offset 7, -8
 248              		.cfi_offset 14, -4
 398:.\Generated_Source\PSoC4/cyfitter_cfg.c **** 	/* Disable interrupts by default. Let user enable if/when they want. */
 399:.\Generated_Source\PSoC4/cyfitter_cfg.c **** 	CyGlobalIntDisable;
 249              		.loc 1 399 0
 250              	@ 399 ".\Generated_Source\PSoC4\cyfitter_cfg.c" 1
 251 0002 72B6     		CPSID   i
 252              	@ 0 "" 2
 253              	.LVL5:
 254              		.code	16
 255              	.LBB16:
 256              	.LBB17:
 257              	.LBB18:
 258              	.LBB19:
  59:.\Generated_Source\PSoC4/cyfitter_cfg.c **** 	(void)memset(s, 0, n);
 259              		.loc 1 59 0
 260 0004 8022     		mov	r2, #128
 261 0006 0021     		mov	r1, #0
 262 0008 D200     		lsl	r2, r2, #3
 263 000a 5B48     		ldr	r0, .L31
 264 000c FFF7FEFF 		bl	memset
 265              	.LVL6:
 266 0010 8022     		mov	r2, #128
 267 0012 0021     		mov	r1, #0
 268 0014 5948     		ldr	r0, .L31+4
 269 0016 D200     		lsl	r2, r2, #3
 270 0018 FFF7FEFF 		bl	memset
 271              	.LVL7:
 272 001c 0023     		mov	r3, #0
 273 001e 191C     		mov	r1, r3
 274              	.LVL8:
 275              	.L26:
 276              	.LBE19:
 277              	.LBE18:
 278              	.LBE17:
 279              	.LBB20:
ARM GAS  C:\Users\Pablo\AppData\Local\Temp\cccUpg8i.s 			page 13


 280              	.LBB21:
 281              	.LBB22:
 152:.\Generated_Source\PSoC4/cyfitter_cfg.c **** 		uint32 baseAddr = addr_table[i];
 282              		.loc 1 152 0
 283 0020 574C     		ldr	r4, .L31+8
 284 0022 1859     		ldr	r0, [r3, r4]
 285              	.LVL9:
 286 0024 1834     		add	r4, r4, #24
 153:.\Generated_Source\PSoC4/cyfitter_cfg.c **** 		uint8 count = (uint8)baseAddr;
 287              		.loc 1 153 0
 288 0026 C2B2     		uxtb	r2, r0
 289 0028 0192     		str	r2, [sp, #4]
 290              	.LVL10:
 154:.\Generated_Source\PSoC4/cyfitter_cfg.c **** 		baseAddr &= 0xFFFFFF00u;
 291              		.loc 1 154 0
 292 002a 071C     		mov	r7, r0
 293 002c FF22     		mov	r2, #255
 294 002e 9743     		bic	r7, r2
 295              	.LVL11:
 296 0030 4A00     		lsl	r2, r1, #1
 297 0032 A418     		add	r4, r4, r2
 298 0034 0022     		mov	r2, #0
 299              	.LVL12:
 300              	.L23:
 155:.\Generated_Source\PSoC4/cyfitter_cfg.c **** 		while (count != 0u)
 301              		.loc 1 155 0
 302 0036 019E     		ldr	r6, [sp, #4]
 303 0038 D5B2     		uxtb	r5, r2
 304 003a AE42     		cmp	r6, r5
 305 003c 09D0     		beq	.L30
 306 003e 5500     		lsl	r5, r2, #1
 157:.\Generated_Source\PSoC4/cyfitter_cfg.c **** 			CY_SET_XTND_REG8((void CYFAR *)(baseAddr + data_table[j].offset), data_table[j].value);
 307              		.loc 1 157 0
 308 0040 665D     		ldrb	r6, [r4, r5]
 309 0042 6519     		add	r5, r4, r5
 310 0044 B446     		mov	ip, r6
 311 0046 BC44     		add	ip, ip, r7
 312 0048 6D78     		ldrb	r5, [r5, #1]
 313 004a 6646     		mov	r6, ip
 314 004c 3570     		strb	r5, [r6]
 315              	.LVL13:
 316 004e 0132     		add	r2, r2, #1
 317              	.LVL14:
 318 0050 F1E7     		b	.L23
 319              	.LVL15:
 320              	.L30:
 321 0052 C0B2     		uxtb	r0, r0
 322              	.LVL16:
 323 0054 0433     		add	r3, r3, #4
 324              	.LVL17:
 325 0056 0918     		add	r1, r1, r0
 326              	.LVL18:
 327              	.LBE22:
 150:.\Generated_Source\PSoC4/cyfitter_cfg.c **** 	for (i = 0u; i < CY_CFG_BASE_ADDR_COUNT; i++)
 328              		.loc 1 150 0
 329 0058 182B     		cmp	r3, #24
 330 005a E1D1     		bne	.L26
ARM GAS  C:\Users\Pablo\AppData\Local\Temp\cccUpg8i.s 			page 14


 331              	.LBE21:
 332              	.LBE20:
 400:.\Generated_Source\PSoC4/cyfitter_cfg.c **** 
 401:.\Generated_Source\PSoC4/cyfitter_cfg.c **** 	{
 402:.\Generated_Source\PSoC4/cyfitter_cfg.c **** 		static const uint32 CYCODE cy_cfg_addr_table[] = {
 403:.\Generated_Source\PSoC4/cyfitter_cfg.c **** 			0x400F3004u, /* Base address: 0x400F3000 Count: 4 */
 404:.\Generated_Source\PSoC4/cyfitter_cfg.c **** 			0x400F3101u, /* Base address: 0x400F3100 Count: 1 */
 405:.\Generated_Source\PSoC4/cyfitter_cfg.c **** 			0x400F3303u, /* Base address: 0x400F3300 Count: 3 */
 406:.\Generated_Source\PSoC4/cyfitter_cfg.c **** 			0x400F4104u, /* Base address: 0x400F4100 Count: 4 */
 407:.\Generated_Source\PSoC4/cyfitter_cfg.c **** 			0x400F4205u, /* Base address: 0x400F4200 Count: 5 */
 408:.\Generated_Source\PSoC4/cyfitter_cfg.c **** 			0x400F4302u, /* Base address: 0x400F4300 Count: 2 */
 409:.\Generated_Source\PSoC4/cyfitter_cfg.c **** 		};
 410:.\Generated_Source\PSoC4/cyfitter_cfg.c **** 
 411:.\Generated_Source\PSoC4/cyfitter_cfg.c **** 		static const cy_cfg_addrvalue_t CYCODE cy_cfg_data_table[] = {
 412:.\Generated_Source\PSoC4/cyfitter_cfg.c **** 			{0x34u, 0x01u},
 413:.\Generated_Source\PSoC4/cyfitter_cfg.c **** 			{0x3Eu, 0x10u},
 414:.\Generated_Source\PSoC4/cyfitter_cfg.c **** 			{0x58u, 0x04u},
 415:.\Generated_Source\PSoC4/cyfitter_cfg.c **** 			{0x5Fu, 0x01u},
 416:.\Generated_Source\PSoC4/cyfitter_cfg.c **** 			{0x18u, 0x08u},
 417:.\Generated_Source\PSoC4/cyfitter_cfg.c **** 			{0x80u, 0x04u},
 418:.\Generated_Source\PSoC4/cyfitter_cfg.c **** 			{0x90u, 0x08u},
 419:.\Generated_Source\PSoC4/cyfitter_cfg.c **** 			{0xE4u, 0x01u},
 420:.\Generated_Source\PSoC4/cyfitter_cfg.c **** 			{0x5Cu, 0x10u},
 421:.\Generated_Source\PSoC4/cyfitter_cfg.c **** 			{0x80u, 0x10u},
 422:.\Generated_Source\PSoC4/cyfitter_cfg.c **** 			{0xD6u, 0x20u},
 423:.\Generated_Source\PSoC4/cyfitter_cfg.c **** 			{0xE6u, 0x80u},
 424:.\Generated_Source\PSoC4/cyfitter_cfg.c **** 			{0x56u, 0x80u},
 425:.\Generated_Source\PSoC4/cyfitter_cfg.c **** 			{0x5Cu, 0x02u},
 426:.\Generated_Source\PSoC4/cyfitter_cfg.c **** 			{0x66u, 0x80u},
 427:.\Generated_Source\PSoC4/cyfitter_cfg.c **** 			{0xD4u, 0x02u},
 428:.\Generated_Source\PSoC4/cyfitter_cfg.c **** 			{0xD6u, 0x01u},
 429:.\Generated_Source\PSoC4/cyfitter_cfg.c **** 			{0x80u, 0x02u},
 430:.\Generated_Source\PSoC4/cyfitter_cfg.c **** 			{0x9Cu, 0x02u},
 431:.\Generated_Source\PSoC4/cyfitter_cfg.c **** 		};
 432:.\Generated_Source\PSoC4/cyfitter_cfg.c **** 
 433:.\Generated_Source\PSoC4/cyfitter_cfg.c **** 
 434:.\Generated_Source\PSoC4/cyfitter_cfg.c **** 
 435:.\Generated_Source\PSoC4/cyfitter_cfg.c **** 		CYPACKED typedef struct {
 436:.\Generated_Source\PSoC4/cyfitter_cfg.c **** 			void CYFAR *address;
 437:.\Generated_Source\PSoC4/cyfitter_cfg.c **** 			uint16 size;
 438:.\Generated_Source\PSoC4/cyfitter_cfg.c **** 		} CYPACKED_ATTR cfg_memset_t;
 439:.\Generated_Source\PSoC4/cyfitter_cfg.c **** 
 440:.\Generated_Source\PSoC4/cyfitter_cfg.c **** 		static const cfg_memset_t CYCODE cfg_memset_list [] = {
 441:.\Generated_Source\PSoC4/cyfitter_cfg.c **** 			/* address, size */
 442:.\Generated_Source\PSoC4/cyfitter_cfg.c **** 			{(void CYFAR *)(CYDEV_UDB_P0_U0_BASE), 1024u},
 443:.\Generated_Source\PSoC4/cyfitter_cfg.c **** 			{(void CYFAR *)(CYDEV_UDB_DSI0_BASE), 1024u},
 444:.\Generated_Source\PSoC4/cyfitter_cfg.c **** 		};
 445:.\Generated_Source\PSoC4/cyfitter_cfg.c **** 
 446:.\Generated_Source\PSoC4/cyfitter_cfg.c **** 		uint8 CYDATA i;
 447:.\Generated_Source\PSoC4/cyfitter_cfg.c **** 
 448:.\Generated_Source\PSoC4/cyfitter_cfg.c **** 		/* Zero out critical memory blocks before beginning configuration */
 449:.\Generated_Source\PSoC4/cyfitter_cfg.c **** 		for (i = 0u; i < (sizeof(cfg_memset_list)/sizeof(cfg_memset_list[0])); i++)
 450:.\Generated_Source\PSoC4/cyfitter_cfg.c **** 		{
 451:.\Generated_Source\PSoC4/cyfitter_cfg.c **** 			const cfg_memset_t CYCODE * CYDATA ms = &cfg_memset_list[i];
 452:.\Generated_Source\PSoC4/cyfitter_cfg.c **** 			CYMEMZERO(ms->address, (size_t)(uint32)(ms->size));
 453:.\Generated_Source\PSoC4/cyfitter_cfg.c **** 		}
 454:.\Generated_Source\PSoC4/cyfitter_cfg.c **** 
ARM GAS  C:\Users\Pablo\AppData\Local\Temp\cccUpg8i.s 			page 15


 455:.\Generated_Source\PSoC4/cyfitter_cfg.c **** 		cfg_write_bytes32(cy_cfg_addr_table, cy_cfg_data_table);
 456:.\Generated_Source\PSoC4/cyfitter_cfg.c **** 
 457:.\Generated_Source\PSoC4/cyfitter_cfg.c **** 		/* HSIOM Starting address: CYDEV_HSIOM_BASE */
 458:.\Generated_Source\PSoC4/cyfitter_cfg.c **** 		CY_SET_XTND_REG32((void CYFAR *)(CYREG_HSIOM_PORT_SEL1), 0x00000007u);
 333              		.loc 1 458 0
 334 005c 494B     		ldr	r3, .L31+12
 335              	.LVL19:
 336 005e 0722     		mov	r2, #7
 337 0060 1A60     		str	r2, [r3]
 459:.\Generated_Source\PSoC4/cyfitter_cfg.c **** 		CY_SET_XTND_REG32((void CYFAR *)(CYREG_HSIOM_PORT_SEL3), 0x0000EE00u);
 338              		.loc 1 459 0
 339 0062 494B     		ldr	r3, .L31+16
 340 0064 EE22     		mov	r2, #238
 341 0066 1202     		lsl	r2, r2, #8
 342 0068 1A60     		str	r2, [r3]
 460:.\Generated_Source\PSoC4/cyfitter_cfg.c **** 		CY_SET_XTND_REG32((void CYFAR *)(CYREG_HSIOM_PORT_SEL4), 0x00000099u);
 343              		.loc 1 460 0
 344 006a 484B     		ldr	r3, .L31+20
 345 006c 9922     		mov	r2, #153
 346 006e 1A60     		str	r2, [r3]
 461:.\Generated_Source\PSoC4/cyfitter_cfg.c **** 
 462:.\Generated_Source\PSoC4/cyfitter_cfg.c **** 		/* IOPINS0_1 Starting address: CYDEV_PRT1_DR */
 463:.\Generated_Source\PSoC4/cyfitter_cfg.c **** 		CY_SET_XTND_REG32((void CYFAR *)(CYREG_PRT1_DR), 0x00000005u);
 347              		.loc 1 463 0
 348 0070 474B     		ldr	r3, .L31+24
 349 0072 0522     		mov	r2, #5
 350 0074 1A60     		str	r2, [r3]
 464:.\Generated_Source\PSoC4/cyfitter_cfg.c **** 		CY_SET_XTND_REG32((void CYFAR *)(CYREG_PRT1_PC2), 0x00000085u);
 351              		.loc 1 464 0
 352 0076 474B     		ldr	r3, .L31+28
 353 0078 8522     		mov	r2, #133
 354 007a 1A60     		str	r2, [r3]
 465:.\Generated_Source\PSoC4/cyfitter_cfg.c **** 
 466:.\Generated_Source\PSoC4/cyfitter_cfg.c **** 		/* IOPINS0_2 Starting address: CYDEV_PRT2_DR */
 467:.\Generated_Source\PSoC4/cyfitter_cfg.c **** 		CY_SET_XTND_REG32((void CYFAR *)(CYREG_PRT2_DR), 0x0000007Cu);
 355              		.loc 1 467 0
 356 007c 464A     		ldr	r2, .L31+32
 357 007e 7C23     		mov	r3, #124
 358 0080 1360     		str	r3, [r2]
 468:.\Generated_Source\PSoC4/cyfitter_cfg.c **** 		CY_SET_XTND_REG32((void CYFAR *)(CYREG_PRT2_PC), 0x00C00000u);
 359              		.loc 1 468 0
 360 0082 C021     		mov	r1, #192
 361              	.LVL20:
 362 0084 454A     		ldr	r2, .L31+36
 363 0086 0904     		lsl	r1, r1, #16
 364 0088 1160     		str	r1, [r2]
 469:.\Generated_Source\PSoC4/cyfitter_cfg.c **** 		CY_SET_XTND_REG32((void CYFAR *)(CYREG_PRT2_PC2), 0x0000007Cu);
 365              		.loc 1 469 0
 366 008a 454A     		ldr	r2, .L31+40
 470:.\Generated_Source\PSoC4/cyfitter_cfg.c **** 
 471:.\Generated_Source\PSoC4/cyfitter_cfg.c **** 		/* IOPINS0_3 Starting address: CYDEV_PRT3_DR */
 472:.\Generated_Source\PSoC4/cyfitter_cfg.c **** 		CY_SET_XTND_REG32((void CYFAR *)(CYREG_PRT3_PC), 0x00000D80u);
 473:.\Generated_Source\PSoC4/cyfitter_cfg.c **** 
 474:.\Generated_Source\PSoC4/cyfitter_cfg.c **** 		/* IOPINS0_4 Starting address: CYDEV_PRT4_DR */
 475:.\Generated_Source\PSoC4/cyfitter_cfg.c **** 		CY_SET_XTND_REG32((void CYFAR *)(CYREG_PRT4_DR), 0x00000002u);
 476:.\Generated_Source\PSoC4/cyfitter_cfg.c **** 		CY_SET_XTND_REG32((void CYFAR *)(CYREG_PRT4_PC), 0x00000031u);
 367              		.loc 1 476 0
ARM GAS  C:\Users\Pablo\AppData\Local\Temp\cccUpg8i.s 			page 16


 368 008c 3121     		mov	r1, #49
 469:.\Generated_Source\PSoC4/cyfitter_cfg.c **** 		CY_SET_XTND_REG32((void CYFAR *)(CYREG_PRT2_PC2), 0x0000007Cu);
 369              		.loc 1 469 0
 370 008e 1360     		str	r3, [r2]
 472:.\Generated_Source\PSoC4/cyfitter_cfg.c **** 		CY_SET_XTND_REG32((void CYFAR *)(CYREG_PRT3_PC), 0x00000D80u);
 371              		.loc 1 472 0
 372 0090 444B     		ldr	r3, .L31+44
 373 0092 D822     		mov	r2, #216
 374 0094 1201     		lsl	r2, r2, #4
 375 0096 1A60     		str	r2, [r3]
 475:.\Generated_Source\PSoC4/cyfitter_cfg.c **** 		CY_SET_XTND_REG32((void CYFAR *)(CYREG_PRT4_DR), 0x00000002u);
 376              		.loc 1 475 0
 377 0098 434B     		ldr	r3, .L31+48
 378 009a 0222     		mov	r2, #2
 379 009c 1A60     		str	r2, [r3]
 380              		.loc 1 476 0
 381 009e 434B     		ldr	r3, .L31+52
 477:.\Generated_Source\PSoC4/cyfitter_cfg.c **** 		CY_SET_XTND_REG32((void CYFAR *)(CYREG_PRT4_PC2), 0x00000002u);
 478:.\Generated_Source\PSoC4/cyfitter_cfg.c **** 
 479:.\Generated_Source\PSoC4/cyfitter_cfg.c **** 		/* UDB_PA_1 Starting address: CYDEV_UDB_PA1_BASE */
 480:.\Generated_Source\PSoC4/cyfitter_cfg.c **** 		CY_SET_XTND_REG32((void CYFAR *)(CYDEV_UDB_PA1_BASE), 0x00990000u);
 481:.\Generated_Source\PSoC4/cyfitter_cfg.c **** 		CY_SET_XTND_REG32((void CYFAR *)(CYREG_UDB_PA1_CFG8), 0x00030000u);
 382              		.loc 1 481 0
 383 00a0 C020     		mov	r0, #192
 476:.\Generated_Source\PSoC4/cyfitter_cfg.c **** 		CY_SET_XTND_REG32((void CYFAR *)(CYREG_PRT4_PC), 0x00000031u);
 384              		.loc 1 476 0
 385 00a2 1960     		str	r1, [r3]
 477:.\Generated_Source\PSoC4/cyfitter_cfg.c **** 		CY_SET_XTND_REG32((void CYFAR *)(CYREG_PRT4_PC2), 0x00000002u);
 386              		.loc 1 477 0
 387 00a4 424B     		ldr	r3, .L31+56
 480:.\Generated_Source\PSoC4/cyfitter_cfg.c **** 		CY_SET_XTND_REG32((void CYFAR *)(CYDEV_UDB_PA1_BASE), 0x00990000u);
 388              		.loc 1 480 0
 389 00a6 4349     		ldr	r1, .L31+60
 477:.\Generated_Source\PSoC4/cyfitter_cfg.c **** 		CY_SET_XTND_REG32((void CYFAR *)(CYREG_PRT4_PC2), 0x00000002u);
 390              		.loc 1 477 0
 391 00a8 1A60     		str	r2, [r3]
 480:.\Generated_Source\PSoC4/cyfitter_cfg.c **** 		CY_SET_XTND_REG32((void CYFAR *)(CYDEV_UDB_PA1_BASE), 0x00990000u);
 392              		.loc 1 480 0
 393 00aa 9923     		mov	r3, #153
 394 00ac 1B04     		lsl	r3, r3, #16
 395 00ae 0B60     		str	r3, [r1]
 396              		.loc 1 481 0
 397 00b0 4149     		ldr	r1, .L31+64
 398 00b2 8002     		lsl	r0, r0, #10
 399 00b4 0860     		str	r0, [r1]
 482:.\Generated_Source\PSoC4/cyfitter_cfg.c **** 
 483:.\Generated_Source\PSoC4/cyfitter_cfg.c **** 		/* UDB_PA_2 Starting address: CYDEV_UDB_PA2_BASE */
 484:.\Generated_Source\PSoC4/cyfitter_cfg.c **** 		CY_SET_XTND_REG32((void CYFAR *)(CYDEV_UDB_PA2_BASE), 0x00990000u);
 400              		.loc 1 484 0
 401 00b6 4149     		ldr	r1, .L31+68
 485:.\Generated_Source\PSoC4/cyfitter_cfg.c **** 		CY_SET_XTND_REG32((void CYFAR *)(CYREG_UDB_PA2_CFG8), 0x15500000u);
 402              		.loc 1 485 0
 403 00b8 4148     		ldr	r0, .L31+72
 484:.\Generated_Source\PSoC4/cyfitter_cfg.c **** 		CY_SET_XTND_REG32((void CYFAR *)(CYDEV_UDB_PA2_BASE), 0x00990000u);
 404              		.loc 1 484 0
 405 00ba 0B60     		str	r3, [r1]
 406              		.loc 1 485 0
ARM GAS  C:\Users\Pablo\AppData\Local\Temp\cccUpg8i.s 			page 17


 407 00bc 4149     		ldr	r1, .L31+76
 408 00be 0860     		str	r0, [r1]
 486:.\Generated_Source\PSoC4/cyfitter_cfg.c **** 
 487:.\Generated_Source\PSoC4/cyfitter_cfg.c **** 		/* UDB_PA_3 Starting address: CYDEV_UDB_PA3_BASE */
 488:.\Generated_Source\PSoC4/cyfitter_cfg.c **** 		CY_SET_XTND_REG32((void CYFAR *)(CYDEV_UDB_PA3_BASE), 0x00990000u);
 409              		.loc 1 488 0
 410 00c0 4149     		ldr	r1, .L31+80
 489:.\Generated_Source\PSoC4/cyfitter_cfg.c **** 
 490:.\Generated_Source\PSoC4/cyfitter_cfg.c **** 		/* Enable digital routing */
 491:.\Generated_Source\PSoC4/cyfitter_cfg.c **** 		CY_SET_XTND_REG8((void *)CYREG_UDB_UDBIF_BANK_CTL, CY_GET_XTND_REG8((void *)CYREG_UDB_UDBIF_BANK_
 492:.\Generated_Source\PSoC4/cyfitter_cfg.c **** 
 493:.\Generated_Source\PSoC4/cyfitter_cfg.c **** 		/* Enable UDB array */
 494:.\Generated_Source\PSoC4/cyfitter_cfg.c **** 		CY_SET_XTND_REG8((void *)CYREG_UDB_UDBIF_WAIT_CFG, (uint8)((CY_GET_XTND_REG8((void *)CYREG_UDB_UD
 411              		.loc 1 494 0
 412 00c2 3C20     		mov	r0, #60
 488:.\Generated_Source\PSoC4/cyfitter_cfg.c **** 		CY_SET_XTND_REG32((void CYFAR *)(CYDEV_UDB_PA3_BASE), 0x00990000u);
 413              		.loc 1 488 0
 414 00c4 0B60     		str	r3, [r1]
 491:.\Generated_Source\PSoC4/cyfitter_cfg.c **** 		CY_SET_XTND_REG8((void *)CYREG_UDB_UDBIF_BANK_CTL, CY_GET_XTND_REG8((void *)CYREG_UDB_UDBIF_BANK_
 415              		.loc 1 491 0
 416 00c6 414B     		ldr	r3, .L31+84
 417 00c8 1978     		ldrb	r1, [r3]
 418 00ca 0A43     		orr	r2, r1
 419 00cc 1A70     		strb	r2, [r3]
 420              		.loc 1 494 0
 421 00ce 404A     		ldr	r2, .L31+88
 422 00d0 1178     		ldrb	r1, [r2]
 423 00d2 8143     		bic	r1, r0
 424 00d4 1420     		mov	r0, #20
 425 00d6 0143     		orr	r1, r0
 426 00d8 1170     		strb	r1, [r2]
 495:.\Generated_Source\PSoC4/cyfitter_cfg.c **** 		CY_SET_XTND_REG8((void *)CYREG_UDB_UDBIF_BANK_CTL, (uint8)(CY_GET_XTND_REG8((void *)CYREG_UDB_UDB
 427              		.loc 1 495 0
 428 00da 1A78     		ldrb	r2, [r3]
 429 00dc 1621     		mov	r1, #22
 430 00de 0A43     		orr	r2, r1
 431 00e0 1A70     		strb	r2, [r3]
 432              	.LBE16:
 433              	.LBB23:
 434              	.LBB24:
 239:.\Generated_Source\PSoC4/cyfitter_cfg.c **** 	CY_SET_REG32((void CYXDATA *)(CYREG_CLK_SELECT), (CY_GET_REG32((void *)CYREG_CLK_SELECT) | 0x00040
 435              		.loc 1 239 0
 436 00e2 3C4A     		ldr	r2, .L31+92
 437 00e4 8023     		mov	r3, #128
 438 00e6 1168     		ldr	r1, [r2]
 439 00e8 DB02     		lsl	r3, r3, #11
 440 00ea 0B43     		orr	r3, r1
 441 00ec 1360     		str	r3, [r2]
 442              	.LVL21:
 443              	.LBB25:
 444              	.LBB26:
 202:.\Generated_Source\PSoC4/cyfitter_cfg.c **** 	setAbs = CY_GET_REG8((const void *)CYREG_SFLASH_IMO_ABS4);
 445              		.loc 1 202 0
 446 00ee 3A4B     		ldr	r3, .L31+96
 447 00f0 141C     		mov	r4, r2
 448 00f2 1878     		ldrb	r0, [r3]
 203:.\Generated_Source\PSoC4/cyfitter_cfg.c **** 	setTmpCo = CY_GET_REG8((const void *)CYREG_SFLASH_IMO_TMPCO4);
ARM GAS  C:\Users\Pablo\AppData\Local\Temp\cccUpg8i.s 			page 18


 449              		.loc 1 203 0
 450 00f4 394B     		ldr	r3, .L31+100
 202:.\Generated_Source\PSoC4/cyfitter_cfg.c **** 	setAbs = CY_GET_REG8((const void *)CYREG_SFLASH_IMO_ABS4);
 451              		.loc 1 202 0
 452 00f6 C0B2     		uxtb	r0, r0
 453              	.LVL22:
 203:.\Generated_Source\PSoC4/cyfitter_cfg.c **** 	setTmpCo = CY_GET_REG8((const void *)CYREG_SFLASH_IMO_TMPCO4);
 454              		.loc 1 203 0
 455 00f8 1978     		ldrb	r1, [r3]
 456 00fa 394B     		ldr	r3, .L31+104
 457 00fc C9B2     		uxtb	r1, r1
 458              	.LVL23:
 459              	.L27:
 205:.\Generated_Source\PSoC4/cyfitter_cfg.c **** 	     (imoTrimIndex >= 0) && (imoFreq <= imo_trim_table->entries[imoTrimIndex].freq);
 460              		.loc 1 205 0
 461 00fe 1A78     		ldrb	r2, [r3]
 462 0100 172A     		cmp	r2, #23
 463 0102 05D9     		bls	.L28
 204:.\Generated_Source\PSoC4/cyfitter_cfg.c **** 	for (imoTrimIndex = ((int32)IMO_TRIM_FREQ_TABLE_ENTRIES)-1;
 464              		.loc 1 204 0
 465 0104 374A     		ldr	r2, .L31+108
 208:.\Generated_Source\PSoC4/cyfitter_cfg.c **** 		setAbs = imo_trim_table->entries[imoTrimIndex].absolute;
 466              		.loc 1 208 0
 467 0106 5878     		ldrb	r0, [r3, #1]
 468              	.LVL24:
 209:.\Generated_Source\PSoC4/cyfitter_cfg.c **** 		setTmpCo = imo_trim_table->entries[imoTrimIndex].tmpco;
 469              		.loc 1 209 0
 470 0108 9978     		ldrb	r1, [r3, #2]
 471              	.LVL25:
 472 010a 033B     		sub	r3, r3, #3
 473              	.LVL26:
 204:.\Generated_Source\PSoC4/cyfitter_cfg.c **** 	for (imoTrimIndex = ((int32)IMO_TRIM_FREQ_TABLE_ENTRIES)-1;
 474              		.loc 1 204 0
 475 010c 9342     		cmp	r3, r2
 476 010e F6D1     		bne	.L27
 477              	.LVL27:
 478              	.L28:
 212:.\Generated_Source\PSoC4/cyfitter_cfg.c **** 	CY_SET_REG32((void *)CYREG_PWR_BG_TRIM4, setAbs);
 479              		.loc 1 212 0
 480 0110 354B     		ldr	r3, .L31+112
 481              	.LBE26:
 482              	.LBE25:
 245:.\Generated_Source\PSoC4/cyfitter_cfg.c **** 	CY_SET_REG32((void CYXDATA *)(CYREG_CLK_IMO_TRIM2), (25u));
 483              		.loc 1 245 0
 484 0112 1922     		mov	r2, #25
 485              	.LBB29:
 486              	.LBB27:
 212:.\Generated_Source\PSoC4/cyfitter_cfg.c **** 	CY_SET_REG32((void *)CYREG_PWR_BG_TRIM4, setAbs);
 487              		.loc 1 212 0
 488 0114 1860     		str	r0, [r3]
 213:.\Generated_Source\PSoC4/cyfitter_cfg.c **** 	CY_SET_REG32((void *)CYREG_PWR_BG_TRIM5, setTmpCo);
 489              		.loc 1 213 0
 490 0116 354B     		ldr	r3, .L31+116
 491              	.LBE27:
 492              	.LBE29:
 246:.\Generated_Source\PSoC4/cyfitter_cfg.c **** 	CyDelayCycles(5u);
 493              		.loc 1 246 0
ARM GAS  C:\Users\Pablo\AppData\Local\Temp\cccUpg8i.s 			page 19


 494 0118 0520     		mov	r0, #5
 495              	.LBB30:
 496              	.LBB28:
 213:.\Generated_Source\PSoC4/cyfitter_cfg.c **** 	CY_SET_REG32((void *)CYREG_PWR_BG_TRIM5, setTmpCo);
 497              		.loc 1 213 0
 498 011a 1960     		str	r1, [r3]
 499              	.LBE28:
 500              	.LBE30:
 245:.\Generated_Source\PSoC4/cyfitter_cfg.c **** 	CY_SET_REG32((void CYXDATA *)(CYREG_CLK_IMO_TRIM2), (25u));
 501              		.loc 1 245 0
 502 011c 344B     		ldr	r3, .L31+120
 503              	.LBE24:
 504              	.LBE23:
 496:.\Generated_Source\PSoC4/cyfitter_cfg.c **** 	}
 497:.\Generated_Source\PSoC4/cyfitter_cfg.c **** 
 498:.\Generated_Source\PSoC4/cyfitter_cfg.c **** 	/* Setup clocks based on selections from Clock DWR */
 499:.\Generated_Source\PSoC4/cyfitter_cfg.c **** 	ClockSetup();
 500:.\Generated_Source\PSoC4/cyfitter_cfg.c **** 
 501:.\Generated_Source\PSoC4/cyfitter_cfg.c **** 	/* Perform basic analog initialization to defaults */
 502:.\Generated_Source\PSoC4/cyfitter_cfg.c **** 	AnalogSetDefault();
 503:.\Generated_Source\PSoC4/cyfitter_cfg.c **** 
 504:.\Generated_Source\PSoC4/cyfitter_cfg.c **** }
 505              		.loc 1 504 0
 506              		@ sp needed
 507              	.LBB33:
 508              	.LBB31:
 245:.\Generated_Source\PSoC4/cyfitter_cfg.c **** 	CY_SET_REG32((void CYXDATA *)(CYREG_CLK_IMO_TRIM2), (25u));
 509              		.loc 1 245 0
 510 011e 1A60     		str	r2, [r3]
 246:.\Generated_Source\PSoC4/cyfitter_cfg.c **** 	CyDelayCycles(5u);
 511              		.loc 1 246 0
 512 0120 FFF7FEFF 		bl	CyDelayCycles
 513              	.LVL28:
 247:.\Generated_Source\PSoC4/cyfitter_cfg.c **** 	CY_SET_REG32((void CYXDATA *)(CYREG_CLK_IMO_TRIM1), (CY_GET_REG8((void *)CYREG_SFLASH_IMO_TRIM21))
 514              		.loc 1 247 0
 515 0124 334B     		ldr	r3, .L31+124
 248:.\Generated_Source\PSoC4/cyfitter_cfg.c **** 	CyDelayUs(5u);
 516              		.loc 1 248 0
 517 0126 0520     		mov	r0, #5
 247:.\Generated_Source\PSoC4/cyfitter_cfg.c **** 	CY_SET_REG32((void CYXDATA *)(CYREG_CLK_IMO_TRIM1), (CY_GET_REG8((void *)CYREG_SFLASH_IMO_TRIM21))
 518              		.loc 1 247 0
 519 0128 1A78     		ldrb	r2, [r3]
 520 012a 334B     		ldr	r3, .L31+128
 521 012c D2B2     		uxtb	r2, r2
 522 012e 1A60     		str	r2, [r3]
 248:.\Generated_Source\PSoC4/cyfitter_cfg.c **** 	CyDelayUs(5u);
 523              		.loc 1 248 0
 524 0130 FFF7FEFF 		bl	CyDelayUs
 525              	.LVL29:
 251:.\Generated_Source\PSoC4/cyfitter_cfg.c **** 	CY_SET_REG32((void CYXDATA *)(CYREG_CLK_SELECT), (CY_GET_REG32((void *)CYREG_CLK_SELECT) & 0xFFFBF
 526              		.loc 1 251 0
 527 0134 2268     		ldr	r2, [r4]
 528 0136 314B     		ldr	r3, .L31+132
 529              	.LBE31:
 530              	.LBE33:
 531              	.LBB34:
 532              	.LBB35:
ARM GAS  C:\Users\Pablo\AppData\Local\Temp\cccUpg8i.s 			page 20


 295:.\Generated_Source\PSoC4/cyfitter_cfg.c **** 	SetAnalogRoutingPumps(1);
 533              		.loc 1 295 0
 534 0138 0120     		mov	r0, #1
 535              	.LBE35:
 536              	.LBE34:
 537              	.LBB37:
 538              	.LBB32:
 251:.\Generated_Source\PSoC4/cyfitter_cfg.c **** 	CY_SET_REG32((void CYXDATA *)(CYREG_CLK_SELECT), (CY_GET_REG32((void *)CYREG_CLK_SELECT) & 0xFFFBF
 539              		.loc 1 251 0
 540 013a 1340     		and	r3, r2
 541 013c 2360     		str	r3, [r4]
 253:.\Generated_Source\PSoC4/cyfitter_cfg.c **** 	CY_SET_XTND_REG32((void CYFAR *)(CYREG_CLK_ILO_CONFIG), 0x80000006u);
 542              		.loc 1 253 0
 543 013e 304A     		ldr	r2, .L31+136
 544 0140 304B     		ldr	r3, .L31+140
 545 0142 1A60     		str	r2, [r3]
 257:.\Generated_Source\PSoC4/cyfitter_cfg.c **** 	CY_SET_XTND_REG32((void CYFAR *)(CYREG_CLK_SELECT02), 0x00000020u);
 546              		.loc 1 257 0
 547 0144 304B     		ldr	r3, .L31+144
 548 0146 2022     		mov	r2, #32
 549 0148 1A60     		str	r2, [r3]
 258:.\Generated_Source\PSoC4/cyfitter_cfg.c **** 	CY_SET_XTND_REG32((void CYFAR *)(CYREG_CLK_SELECT07), 0x00000010u);
 550              		.loc 1 258 0
 551 014a 304B     		ldr	r3, .L31+148
 552 014c 1022     		mov	r2, #16
 553 014e 1A60     		str	r2, [r3]
 261:.\Generated_Source\PSoC4/cyfitter_cfg.c **** 	CY_SET_XTND_REG32((void CYFAR *)(CYREG_CLK_IMO_CONFIG), 0x82000000u);
 554              		.loc 1 261 0
 555 0150 2F4B     		ldr	r3, .L31+152
 556 0152 8222     		mov	r2, #130
 557 0154 1206     		lsl	r2, r2, #24
 558 0156 1A60     		str	r2, [r3]
 264:.\Generated_Source\PSoC4/cyfitter_cfg.c **** 	CY_SET_XTND_REG32((void CYFAR *)(CYREG_CLK_DIVIDER_A00), 0x80000004u);
 559              		.loc 1 264 0
 560 0158 2E4A     		ldr	r2, .L31+156
 561 015a 2F4B     		ldr	r3, .L31+160
 562 015c 1A60     		str	r2, [r3]
 267:.\Generated_Source\PSoC4/cyfitter_cfg.c **** 	CY_SET_XTND_REG32((void CYFAR *)(CYREG_CLK_DIVIDER_B00), 0x800000CFu);
 563              		.loc 1 267 0
 564 015e 2F4A     		ldr	r2, .L31+164
 565 0160 2F4B     		ldr	r3, .L31+168
 566 0162 1A60     		str	r2, [r3]
 567              	.LBE32:
 568              	.LBE37:
 569              	.LBB38:
 570              	.LBB36:
 293:.\Generated_Source\PSoC4/cyfitter_cfg.c **** 	CY_SET_XTND_REG32((void CYFAR *)CYREG_CTBM_OA0_SW, 0x00204001u);
 571              		.loc 1 293 0
 572 0164 2F4A     		ldr	r2, .L31+172
 573 0166 304B     		ldr	r3, .L31+176
 574 0168 1A60     		str	r2, [r3]
 294:.\Generated_Source\PSoC4/cyfitter_cfg.c **** 	CY_SET_XTND_REG32((void CYFAR *)CYREG_SAR_MUX_SWITCH0, 0x00080000u);
 575              		.loc 1 294 0
 576 016a 304B     		ldr	r3, .L31+180
 577 016c 8022     		mov	r2, #128
 578 016e 1203     		lsl	r2, r2, #12
 579 0170 1A60     		str	r2, [r3]
ARM GAS  C:\Users\Pablo\AppData\Local\Temp\cccUpg8i.s 			page 21


 295:.\Generated_Source\PSoC4/cyfitter_cfg.c **** 	SetAnalogRoutingPumps(1);
 580              		.loc 1 295 0
 581 0172 FFF7FEFF 		bl	SetAnalogRoutingPumps
 582              	.LVL30:
 583              	.LVL31:
 584              	.LBE36:
 585              	.LBE38:
 586              		.loc 1 504 0
 587 0176 F7BD     		pop	{r0, r1, r2, r4, r5, r6, r7, pc}
 588              	.L32:
 589              		.align	2
 590              	.L31:
 591 0178 00300F40 		.word	1074737152
 592 017c 00400F40 		.word	1074741248
 593 0180 00000000 		.word	.LANCHOR1
 594 0184 04000140 		.word	1073807364
 595 0188 0C000140 		.word	1073807372
 596 018c 10000140 		.word	1073807376
 597 0190 00010440 		.word	1074004224
 598 0194 18010440 		.word	1074004248
 599 0198 00020440 		.word	1074004480
 600 019c 08020440 		.word	1074004488
 601 01a0 18020440 		.word	1074004504
 602 01a4 08030440 		.word	1074004744
 603 01a8 00040440 		.word	1074004992
 604 01ac 08040440 		.word	1074005000
 605 01b0 18040440 		.word	1074005016
 606 01b4 10500F40 		.word	1074745360
 607 01b8 18500F40 		.word	1074745368
 608 01bc 20500F40 		.word	1074745376
 609 01c0 00005015 		.word	357564416
 610 01c4 28500F40 		.word	1074745384
 611 01c8 30500F40 		.word	1074745392
 612 01cc 00700F40 		.word	1074753536
 613 01d0 01700F40 		.word	1074753537
 614 01d4 00010B40 		.word	1074462976
 615 01d8 CCF1FF0F 		.word	268431820
 616 01dc CDF1FF0F 		.word	268431821
 617 01e0 C9F1FF0F 		.word	268431817
 618 01e4 BDF1FF0F 		.word	268431805
 619 01e8 1CFF0B40 		.word	1074528028
 620 01ec 20FF0B40 		.word	1074528032
 621 01f0 2CFF0B40 		.word	1074528044
 622 01f4 E5F1FF0F 		.word	268431845
 623 01f8 28FF0B40 		.word	1074528040
 624 01fc FFFFFBFF 		.word	-262145
 625 0200 06000080 		.word	-2147483642
 626 0204 04010B40 		.word	1074462980
 627 0208 08020240 		.word	1073873416
 628 020c 1C020240 		.word	1073873436
 629 0210 08010B40 		.word	1074462984
 630 0214 04000080 		.word	-2147483644
 631 0218 00000240 		.word	1073872896
 632 021c CF000080 		.word	-2147483441
 633 0220 40000240 		.word	1073872960
 634 0224 01402000 		.word	2113537
 635 0228 80001040 		.word	1074790528
ARM GAS  C:\Users\Pablo\AppData\Local\Temp\cccUpg8i.s 			page 22


 636 022c 00031A40 		.word	1075446528
 637              		.cfi_endproc
 638              	.LFE10:
 639              		.size	cyfitter_cfg, .-cyfitter_cfg
 640              		.global	AMux_curChannel
 641              		.section	.rodata
 642              		.align	2
 643              		.set	.LANCHOR1,. + 0
 644              		.type	cy_cfg_addr_table.4757, %object
 645              		.size	cy_cfg_addr_table.4757, 24
 646              	cy_cfg_addr_table.4757:
 647 0000 04300F40 		.word	1074737156
 648 0004 01310F40 		.word	1074737409
 649 0008 03330F40 		.word	1074737923
 650 000c 04410F40 		.word	1074741508
 651 0010 05420F40 		.word	1074741765
 652 0014 02430F40 		.word	1074742018
 653              		.type	cy_cfg_data_table.4758, %object
 654              		.size	cy_cfg_data_table.4758, 38
 655              	cy_cfg_data_table.4758:
 656 0018 34       		.byte	52
 657 0019 01       		.byte	1
 658 001a 3E       		.byte	62
 659 001b 10       		.byte	16
 660 001c 58       		.byte	88
 661 001d 04       		.byte	4
 662 001e 5F       		.byte	95
 663 001f 01       		.byte	1
 664 0020 18       		.byte	24
 665 0021 08       		.byte	8
 666 0022 80       		.byte	-128
 667 0023 04       		.byte	4
 668 0024 90       		.byte	-112
 669 0025 08       		.byte	8
 670 0026 E4       		.byte	-28
 671 0027 01       		.byte	1
 672 0028 5C       		.byte	92
 673 0029 10       		.byte	16
 674 002a 80       		.byte	-128
 675 002b 10       		.byte	16
 676 002c D6       		.byte	-42
 677 002d 20       		.byte	32
 678 002e E6       		.byte	-26
 679 002f 80       		.byte	-128
 680 0030 56       		.byte	86
 681 0031 80       		.byte	-128
 682 0032 5C       		.byte	92
 683 0033 02       		.byte	2
 684 0034 66       		.byte	102
 685 0035 80       		.byte	-128
 686 0036 D4       		.byte	-44
 687 0037 02       		.byte	2
 688 0038 D6       		.byte	-42
 689 0039 01       		.byte	1
 690 003a 80       		.byte	-128
 691 003b 02       		.byte	2
 692 003c 9C       		.byte	-100
ARM GAS  C:\Users\Pablo\AppData\Local\Temp\cccUpg8i.s 			page 23


 693 003d 02       		.byte	2
 694 003e 0000     		.data
 695              		.set	.LANCHOR0,. + 0
 696              		.type	AMux_curChannel, %object
 697              		.size	AMux_curChannel, 1
 698              	AMux_curChannel:
 699 0000 FF       		.byte	-1
 700              		.text
 701              	.Letext0:
 702              		.file 2 "c:\\program files (x86)\\cypress\\psoc creator\\3.1\\psoc creator\\import\\gnu_cs\\arm\\4
 703              		.file 3 ".\\Generated_Source\\PSoC4/cytypes.h"
 704              		.file 4 ".\\Generated_Source\\PSoC4/CyLib.h"