ARM GAS  C:\Users\Pablo\AppData\Local\Temp\ccDGsedh.s 			page 1


   1              		.cpu cortex-m0
   2              		.fpu softvfp
   3              		.eabi_attribute 20, 1
   4              		.eabi_attribute 21, 1
   5              		.eabi_attribute 23, 3
   6              		.eabi_attribute 24, 1
   7              		.eabi_attribute 25, 1
   8              		.eabi_attribute 26, 1
   9              		.eabi_attribute 30, 4
  10              		.eabi_attribute 34, 0
  11              		.eabi_attribute 18, 4
  12              		.code	16
  13              		.file	"CyLib.c"
  14              		.text
  15              	.Ltext0:
  16              		.cfi_sections	.debug_frame
  17              		.section	.text.CySysClkImoStart,"ax",%progbits
  18              		.align	1
  19              		.global	CySysClkImoStart
  20              		.code	16
  21              		.thumb_func
  22              		.type	CySysClkImoStart, %function
  23              	CySysClkImoStart:
  24              	.LFB0:
  25              		.file 1 ".\\Generated_Source\\PSoC4\\CyLib.c"
   1:.\Generated_Source\PSoC4/CyLib.c **** /*******************************************************************************
   2:.\Generated_Source\PSoC4/CyLib.c **** * File Name: CyLib.c
   3:.\Generated_Source\PSoC4/CyLib.c **** * Version 4.20
   4:.\Generated_Source\PSoC4/CyLib.c **** *
   5:.\Generated_Source\PSoC4/CyLib.c **** *  Description:
   6:.\Generated_Source\PSoC4/CyLib.c **** *   Provides a system API for the clocking, interrupts, and watchdog timer.
   7:.\Generated_Source\PSoC4/CyLib.c **** *
   8:.\Generated_Source\PSoC4/CyLib.c **** *  Note:
   9:.\Generated_Source\PSoC4/CyLib.c **** *   Documentation of the API's in this file is located in the
  10:.\Generated_Source\PSoC4/CyLib.c **** *   System Reference Guide provided with PSoC Creator.
  11:.\Generated_Source\PSoC4/CyLib.c **** *
  12:.\Generated_Source\PSoC4/CyLib.c **** ********************************************************************************
  13:.\Generated_Source\PSoC4/CyLib.c **** * Copyright 2010-2014, Cypress Semiconductor Corporation.  All rights reserved.
  14:.\Generated_Source\PSoC4/CyLib.c **** * You may use this file only in accordance with the license, terms, conditions,
  15:.\Generated_Source\PSoC4/CyLib.c **** * disclaimers, and limitations in the end user license agreement accompanying
  16:.\Generated_Source\PSoC4/CyLib.c **** * the software package with which this file was provided.
  17:.\Generated_Source\PSoC4/CyLib.c **** *******************************************************************************/
  18:.\Generated_Source\PSoC4/CyLib.c **** 
  19:.\Generated_Source\PSoC4/CyLib.c **** #include "CyLib.h"
  20:.\Generated_Source\PSoC4/CyLib.c **** 
  21:.\Generated_Source\PSoC4/CyLib.c **** 
  22:.\Generated_Source\PSoC4/CyLib.c **** /* Do not use these definitions directly in your application */
  23:.\Generated_Source\PSoC4/CyLib.c **** uint32 cydelayFreqHz  = CYDEV_BCLK__SYSCLK__HZ;
  24:.\Generated_Source\PSoC4/CyLib.c **** uint32 cydelayFreqKhz = (CYDEV_BCLK__SYSCLK__HZ + CY_DELAY_1K_MINUS_1_THRESHOLD) / CY_DELAY_1K_THRE
  25:.\Generated_Source\PSoC4/CyLib.c **** uint8  cydelayFreqMhz = (uint8)((CYDEV_BCLK__SYSCLK__HZ + CY_DELAY_1M_MINUS_1_THRESHOLD) / CY_DELAY
  26:.\Generated_Source\PSoC4/CyLib.c **** uint32 cydelay32kMs   = CY_DELAY_MS_OVERFLOW * ((CYDEV_BCLK__SYSCLK__HZ + CY_DELAY_1K_MINUS_1_THRES
  27:.\Generated_Source\PSoC4/CyLib.c ****                         CY_DELAY_1K_THRESHOLD);
  28:.\Generated_Source\PSoC4/CyLib.c **** 
  29:.\Generated_Source\PSoC4/CyLib.c **** #if (CY_IP_WCO)
  30:.\Generated_Source\PSoC4/CyLib.c ****     static uint32 CySysClkGetLfclkSource(void);
  31:.\Generated_Source\PSoC4/CyLib.c **** #endif /* (CY_IP_WCO) */
  32:.\Generated_Source\PSoC4/CyLib.c **** 
ARM GAS  C:\Users\Pablo\AppData\Local\Temp\ccDGsedh.s 			page 2


  33:.\Generated_Source\PSoC4/CyLib.c **** #if(CY_IP_SRSSV2)
  34:.\Generated_Source\PSoC4/CyLib.c ****     /* CySysClkLfclkPosedgeCatch() / CySysClkLfclkPosedgeRestore() */
  35:.\Generated_Source\PSoC4/CyLib.c ****     uint32 lfclkPosedgeWdtCounter0Enabled = 0u;
  36:.\Generated_Source\PSoC4/CyLib.c ****     uint32 lfclkPosedgeEnabledWdtCounter  = 0u;
  37:.\Generated_Source\PSoC4/CyLib.c ****     uint32 lfclkPosedgeWdtCounter0Mode    = CY_SYS_WDT_MODE_NONE;
  38:.\Generated_Source\PSoC4/CyLib.c **** 
  39:.\Generated_Source\PSoC4/CyLib.c ****     static void CySysClkLfclkPosedgeCatch(void);
  40:.\Generated_Source\PSoC4/CyLib.c ****     static void CySysClkLfclkPosedgeRestore(void);
  41:.\Generated_Source\PSoC4/CyLib.c **** 
  42:.\Generated_Source\PSoC4/CyLib.c ****     static uint32 CySysWdtLocked(void);
  43:.\Generated_Source\PSoC4/CyLib.c ****     static uint32 CySysClkIloEnabled(void);
  44:.\Generated_Source\PSoC4/CyLib.c ****     #if (CY_IP_WCO)
  45:.\Generated_Source\PSoC4/CyLib.c ****         static uint32 CySysClkWcoEnabled(void);
  46:.\Generated_Source\PSoC4/CyLib.c ****     #endif /* (CY_IP_WCO) */
  47:.\Generated_Source\PSoC4/CyLib.c **** #endif /* (CY_IP_SRSSV2) */
  48:.\Generated_Source\PSoC4/CyLib.c **** 
  49:.\Generated_Source\PSoC4/CyLib.c **** 
  50:.\Generated_Source\PSoC4/CyLib.c **** static cySysTickCallback CySysTickCallbacks[CY_SYS_SYST_NUM_OF_CALLBACKS];
  51:.\Generated_Source\PSoC4/CyLib.c **** static void CySysTickServiceCallbacks(void);
  52:.\Generated_Source\PSoC4/CyLib.c **** uint32 CySysTickInitVar = 0u;
  53:.\Generated_Source\PSoC4/CyLib.c **** 
  54:.\Generated_Source\PSoC4/CyLib.c **** 
  55:.\Generated_Source\PSoC4/CyLib.c **** #if(CY_IP_SRSSV2)
  56:.\Generated_Source\PSoC4/CyLib.c ****         /* Conversion between CySysClkWriteImoFreq() parameter and register's value */
  57:.\Generated_Source\PSoC4/CyLib.c ****         const uint8 cyImoFreqMhz2Reg[CY_SYS_CLK_IMO_FREQ_TABLE_SIZE] = {
  58:.\Generated_Source\PSoC4/CyLib.c ****             /*  3 MHz */ 0x03u,  /*  4 MHz */ 0x04u,  /*  5 MHz */ 0x05u,  /*  6 MHz */ 0x06u,
  59:.\Generated_Source\PSoC4/CyLib.c ****             /*  7 MHz */ 0x07u,  /*  8 MHz */ 0x08u,  /*  9 MHz */ 0x09u,  /* 10 MHz */ 0x0Au,
  60:.\Generated_Source\PSoC4/CyLib.c ****             /* 11 MHz */ 0x0Bu,  /* 12 MHz */ 0x0Cu,  /* 13 MHz */ 0x0Eu,  /* 14 MHz */ 0x0Fu,
  61:.\Generated_Source\PSoC4/CyLib.c ****             /* 15 MHz */ 0x10u,  /* 16 MHz */ 0x11u,  /* 17 MHz */ 0x12u,  /* 18 MHz */ 0x13u,
  62:.\Generated_Source\PSoC4/CyLib.c ****             /* 19 MHz */ 0x14u,  /* 20 MHz */ 0x15u,  /* 21 MHz */ 0x16u,  /* 22 MHz */ 0x17u,
  63:.\Generated_Source\PSoC4/CyLib.c ****             /* 23 MHz */ 0x18u,  /* 24 MHz */ 0x19u,  /* 25 MHz */ 0x1Bu,  /* 26 MHz */ 0x1Cu,
  64:.\Generated_Source\PSoC4/CyLib.c ****             /* 27 MHz */ 0x1Du,  /* 28 MHz */ 0x1Eu,  /* 29 MHz */ 0x1Fu,  /* 30 MHz */ 0x20u,
  65:.\Generated_Source\PSoC4/CyLib.c ****             /* 31 MHz */ 0x21u,  /* 32 MHz */ 0x22u,  /* 33 MHz */ 0x23u,  /* 34 MHz */ 0x25u,
  66:.\Generated_Source\PSoC4/CyLib.c ****             /* 35 MHz */ 0x26u,  /* 36 MHz */ 0x27u,  /* 37 MHz */ 0x28u,  /* 38 MHz */ 0x29u,
  67:.\Generated_Source\PSoC4/CyLib.c ****             /* 39 MHz */ 0x2Au,  /* 40 MHz */ 0x2Bu,  /* 41 MHz */ 0x2Eu,  /* 42 MHz */ 0x2Fu,
  68:.\Generated_Source\PSoC4/CyLib.c ****             /* 43 MHz */ 0x30u,  /* 44 MHz */ 0x31u,  /* 45 MHz */ 0x32u,  /* 46 MHz */ 0x33u,
  69:.\Generated_Source\PSoC4/CyLib.c ****             /* 47 MHz */ 0x34u,  /* 48 MHz */ 0x35u };
  70:.\Generated_Source\PSoC4/CyLib.c **** #endif /* (CY_IP_SRSSV2) */
  71:.\Generated_Source\PSoC4/CyLib.c **** 
  72:.\Generated_Source\PSoC4/CyLib.c **** 
  73:.\Generated_Source\PSoC4/CyLib.c **** /*******************************************************************************
  74:.\Generated_Source\PSoC4/CyLib.c **** * Function Name: CySysClkImoStart
  75:.\Generated_Source\PSoC4/CyLib.c **** ********************************************************************************
  76:.\Generated_Source\PSoC4/CyLib.c **** *
  77:.\Generated_Source\PSoC4/CyLib.c **** * Summary:
  78:.\Generated_Source\PSoC4/CyLib.c **** *  Enables the IMO.
  79:.\Generated_Source\PSoC4/CyLib.c **** *
  80:.\Generated_Source\PSoC4/CyLib.c **** * Parameters:
  81:.\Generated_Source\PSoC4/CyLib.c **** *  None
  82:.\Generated_Source\PSoC4/CyLib.c **** *
  83:.\Generated_Source\PSoC4/CyLib.c **** * Return:
  84:.\Generated_Source\PSoC4/CyLib.c **** *  None
  85:.\Generated_Source\PSoC4/CyLib.c **** *
  86:.\Generated_Source\PSoC4/CyLib.c **** *******************************************************************************/
  87:.\Generated_Source\PSoC4/CyLib.c **** void CySysClkImoStart(void)
  88:.\Generated_Source\PSoC4/CyLib.c **** {
  26              		.loc 1 88 0
ARM GAS  C:\Users\Pablo\AppData\Local\Temp\ccDGsedh.s 			page 3


  27              		.cfi_startproc
  89:.\Generated_Source\PSoC4/CyLib.c ****     CY_SYS_CLK_IMO_CONFIG_REG |= CY_SYS_CLK_IMO_CONFIG_ENABLE;
  28              		.loc 1 89 0
  29 0000 034B     		ldr	r3, .L2
  30 0002 8022     		mov	r2, #128
  31 0004 1968     		ldr	r1, [r3]
  32 0006 1206     		lsl	r2, r2, #24
  33 0008 0A43     		orr	r2, r1
  34 000a 1A60     		str	r2, [r3]
  90:.\Generated_Source\PSoC4/CyLib.c **** }
  35              		.loc 1 90 0
  36              		@ sp needed
  37 000c 7047     		bx	lr
  38              	.L3:
  39 000e C046     		.align	2
  40              	.L2:
  41 0010 08010B40 		.word	1074462984
  42              		.cfi_endproc
  43              	.LFE0:
  44              		.size	CySysClkImoStart, .-CySysClkImoStart
  45              		.section	.text.CySysClkImoStop,"ax",%progbits
  46              		.align	1
  47              		.global	CySysClkImoStop
  48              		.code	16
  49              		.thumb_func
  50              		.type	CySysClkImoStop, %function
  51              	CySysClkImoStop:
  52              	.LFB1:
  91:.\Generated_Source\PSoC4/CyLib.c **** 
  92:.\Generated_Source\PSoC4/CyLib.c **** 
  93:.\Generated_Source\PSoC4/CyLib.c **** /*******************************************************************************
  94:.\Generated_Source\PSoC4/CyLib.c **** * Function Name: CySysClkImoStop
  95:.\Generated_Source\PSoC4/CyLib.c **** ********************************************************************************
  96:.\Generated_Source\PSoC4/CyLib.c **** *
  97:.\Generated_Source\PSoC4/CyLib.c **** * Summary:
  98:.\Generated_Source\PSoC4/CyLib.c **** *  Disables the IMO.
  99:.\Generated_Source\PSoC4/CyLib.c **** *
 100:.\Generated_Source\PSoC4/CyLib.c **** * Parameters:
 101:.\Generated_Source\PSoC4/CyLib.c **** *  None
 102:.\Generated_Source\PSoC4/CyLib.c **** *
 103:.\Generated_Source\PSoC4/CyLib.c **** * Return:
 104:.\Generated_Source\PSoC4/CyLib.c **** *  None
 105:.\Generated_Source\PSoC4/CyLib.c **** *
 106:.\Generated_Source\PSoC4/CyLib.c **** *******************************************************************************/
 107:.\Generated_Source\PSoC4/CyLib.c **** void CySysClkImoStop(void)
 108:.\Generated_Source\PSoC4/CyLib.c **** {
  53              		.loc 1 108 0
  54              		.cfi_startproc
 109:.\Generated_Source\PSoC4/CyLib.c ****     CY_SYS_CLK_IMO_CONFIG_REG &= ( uint32 ) ( ~( uint32 )CY_SYS_CLK_IMO_CONFIG_ENABLE);
  55              		.loc 1 109 0
  56 0000 024B     		ldr	r3, .L5
 110:.\Generated_Source\PSoC4/CyLib.c **** }
  57              		.loc 1 110 0
  58              		@ sp needed
 109:.\Generated_Source\PSoC4/CyLib.c ****     CY_SYS_CLK_IMO_CONFIG_REG &= ( uint32 ) ( ~( uint32 )CY_SYS_CLK_IMO_CONFIG_ENABLE);
  59              		.loc 1 109 0
  60 0002 1A68     		ldr	r2, [r3]
ARM GAS  C:\Users\Pablo\AppData\Local\Temp\ccDGsedh.s 			page 4


  61 0004 5200     		lsl	r2, r2, #1
  62 0006 5208     		lsr	r2, r2, #1
  63 0008 1A60     		str	r2, [r3]
  64              		.loc 1 110 0
  65 000a 7047     		bx	lr
  66              	.L6:
  67              		.align	2
  68              	.L5:
  69 000c 08010B40 		.word	1074462984
  70              		.cfi_endproc
  71              	.LFE1:
  72              		.size	CySysClkImoStop, .-CySysClkImoStop
  73              		.section	.text.CySysClkIloStart,"ax",%progbits
  74              		.align	1
  75              		.global	CySysClkIloStart
  76              		.code	16
  77              		.thumb_func
  78              		.type	CySysClkIloStart, %function
  79              	CySysClkIloStart:
  80              	.LFB2:
 111:.\Generated_Source\PSoC4/CyLib.c **** 
 112:.\Generated_Source\PSoC4/CyLib.c **** 
 113:.\Generated_Source\PSoC4/CyLib.c **** /*******************************************************************************
 114:.\Generated_Source\PSoC4/CyLib.c **** * Function Name: CySysClkIloStart
 115:.\Generated_Source\PSoC4/CyLib.c **** ********************************************************************************
 116:.\Generated_Source\PSoC4/CyLib.c **** *
 117:.\Generated_Source\PSoC4/CyLib.c **** * Summary:
 118:.\Generated_Source\PSoC4/CyLib.c **** *  Enables the ILO. Refer to the device datasheet for the ILO startup time.
 119:.\Generated_Source\PSoC4/CyLib.c **** *
 120:.\Generated_Source\PSoC4/CyLib.c **** * Parameters:
 121:.\Generated_Source\PSoC4/CyLib.c **** *  None
 122:.\Generated_Source\PSoC4/CyLib.c **** *
 123:.\Generated_Source\PSoC4/CyLib.c **** * Return:
 124:.\Generated_Source\PSoC4/CyLib.c **** *  None
 125:.\Generated_Source\PSoC4/CyLib.c **** *
 126:.\Generated_Source\PSoC4/CyLib.c **** *******************************************************************************/
 127:.\Generated_Source\PSoC4/CyLib.c **** void CySysClkIloStart(void)
 128:.\Generated_Source\PSoC4/CyLib.c **** {
  81              		.loc 1 128 0
  82              		.cfi_startproc
 129:.\Generated_Source\PSoC4/CyLib.c ****     CY_SYS_CLK_ILO_CONFIG_REG |= CY_SYS_CLK_ILO_CONFIG_ENABLE;
  83              		.loc 1 129 0
  84 0000 034B     		ldr	r3, .L8
  85 0002 8022     		mov	r2, #128
  86 0004 1968     		ldr	r1, [r3]
  87 0006 1206     		lsl	r2, r2, #24
  88 0008 0A43     		orr	r2, r1
  89 000a 1A60     		str	r2, [r3]
 130:.\Generated_Source\PSoC4/CyLib.c **** }
  90              		.loc 1 130 0
  91              		@ sp needed
  92 000c 7047     		bx	lr
  93              	.L9:
  94 000e C046     		.align	2
  95              	.L8:
  96 0010 04010B40 		.word	1074462980
  97              		.cfi_endproc
ARM GAS  C:\Users\Pablo\AppData\Local\Temp\ccDGsedh.s 			page 5


  98              	.LFE2:
  99              		.size	CySysClkIloStart, .-CySysClkIloStart
 100              		.section	.text.CySysClkWriteHfclkDirect,"ax",%progbits
 101              		.align	1
 102              		.global	CySysClkWriteHfclkDirect
 103              		.code	16
 104              		.thumb_func
 105              		.type	CySysClkWriteHfclkDirect, %function
 106              	CySysClkWriteHfclkDirect:
 107              	.LFB5:
 131:.\Generated_Source\PSoC4/CyLib.c **** 
 132:.\Generated_Source\PSoC4/CyLib.c **** 
 133:.\Generated_Source\PSoC4/CyLib.c **** /*******************************************************************************
 134:.\Generated_Source\PSoC4/CyLib.c **** * Function Name: CySysClkIloStop
 135:.\Generated_Source\PSoC4/CyLib.c **** ********************************************************************************
 136:.\Generated_Source\PSoC4/CyLib.c **** *
 137:.\Generated_Source\PSoC4/CyLib.c **** * Summary:
 138:.\Generated_Source\PSoC4/CyLib.c **** *  Disables the ILO.
 139:.\Generated_Source\PSoC4/CyLib.c **** *
 140:.\Generated_Source\PSoC4/CyLib.c **** * Parameters:
 141:.\Generated_Source\PSoC4/CyLib.c **** *  None
 142:.\Generated_Source\PSoC4/CyLib.c **** *
 143:.\Generated_Source\PSoC4/CyLib.c **** * Return:
 144:.\Generated_Source\PSoC4/CyLib.c **** *  None
 145:.\Generated_Source\PSoC4/CyLib.c **** *
 146:.\Generated_Source\PSoC4/CyLib.c **** * Side Effects:
 147:.\Generated_Source\PSoC4/CyLib.c **** *  This function will have no effect if the WDT is locked (CySysWdtLock() is
 148:.\Generated_Source\PSoC4/CyLib.c **** *  called). Call CySysWdtUnlock() to unlock the WDT and be able to stop ILO.
 149:.\Generated_Source\PSoC4/CyLib.c **** *
 150:.\Generated_Source\PSoC4/CyLib.c **** *  PSoC 4100 / PSoC 4200: Note that ILO is required for WDT's operation.
 151:.\Generated_Source\PSoC4/CyLib.c **** *  The ILO is required for the WDT operation.
 152:.\Generated_Source\PSoC4/CyLib.c **** *
 153:.\Generated_Source\PSoC4/CyLib.c **** *  PSoC 4100-BL / PSoC 4200-BL:
 154:.\Generated_Source\PSoC4/CyLib.c **** *  Stopping the ILO will affect the peripheral clocked by the LFCLK, if the
 155:.\Generated_Source\PSoC4/CyLib.c **** *  LFCLK is configured to be sourced by the ILO.
 156:.\Generated_Source\PSoC4/CyLib.c **** *
 157:.\Generated_Source\PSoC4/CyLib.c **** *******************************************************************************/
 158:.\Generated_Source\PSoC4/CyLib.c **** void CySysClkIloStop(void)
 159:.\Generated_Source\PSoC4/CyLib.c **** {
 160:.\Generated_Source\PSoC4/CyLib.c ****     #if(CY_IP_SRSSV2)
 161:.\Generated_Source\PSoC4/CyLib.c ****         uint8  interruptState;
 162:.\Generated_Source\PSoC4/CyLib.c **** 
 163:.\Generated_Source\PSoC4/CyLib.c ****         /* Do nothing if WDT is locked or ILO is disabled */
 164:.\Generated_Source\PSoC4/CyLib.c ****         if (0u == CySysWdtLocked())
 165:.\Generated_Source\PSoC4/CyLib.c ****         {
 166:.\Generated_Source\PSoC4/CyLib.c ****             if (0u != CySysClkIloEnabled())
 167:.\Generated_Source\PSoC4/CyLib.c ****             {
 168:.\Generated_Source\PSoC4/CyLib.c **** 
 169:.\Generated_Source\PSoC4/CyLib.c ****             #if (CY_IP_WCO)
 170:.\Generated_Source\PSoC4/CyLib.c ****                 if (CY_SYS_CLK_LFCLK_SRC_ILO == CySysClkGetLfclkSource())
 171:.\Generated_Source\PSoC4/CyLib.c ****                 {
 172:.\Generated_Source\PSoC4/CyLib.c ****             #endif /* (CY_IP_WCO) */
 173:.\Generated_Source\PSoC4/CyLib.c **** 
 174:.\Generated_Source\PSoC4/CyLib.c ****                 interruptState = CyEnterCriticalSection();
 175:.\Generated_Source\PSoC4/CyLib.c ****                 CySysClkLfclkPosedgeCatch();
 176:.\Generated_Source\PSoC4/CyLib.c ****                 CY_SYS_CLK_ILO_CONFIG_REG &= ( uint32 ) ( ~( uint32 )CY_SYS_CLK_ILO_CONFIG_ENABLE);
 177:.\Generated_Source\PSoC4/CyLib.c ****                 CySysClkLfclkPosedgeRestore();
ARM GAS  C:\Users\Pablo\AppData\Local\Temp\ccDGsedh.s 			page 6


 178:.\Generated_Source\PSoC4/CyLib.c ****                 CyExitCriticalSection(interruptState);
 179:.\Generated_Source\PSoC4/CyLib.c **** 
 180:.\Generated_Source\PSoC4/CyLib.c ****             #if (CY_IP_WCO)
 181:.\Generated_Source\PSoC4/CyLib.c ****                 }
 182:.\Generated_Source\PSoC4/CyLib.c ****                 else /* Safe to disable - shortened pulse does not impact peripheral */
 183:.\Generated_Source\PSoC4/CyLib.c ****                 {
 184:.\Generated_Source\PSoC4/CyLib.c ****                     CY_SYS_CLK_ILO_CONFIG_REG &= ( uint32 ) ( ~( uint32 )CY_SYS_CLK_ILO_CONFIG_ENAB
 185:.\Generated_Source\PSoC4/CyLib.c ****                 }
 186:.\Generated_Source\PSoC4/CyLib.c ****             #endif /* (CY_IP_WCO) */
 187:.\Generated_Source\PSoC4/CyLib.c **** 
 188:.\Generated_Source\PSoC4/CyLib.c ****             }
 189:.\Generated_Source\PSoC4/CyLib.c ****         }
 190:.\Generated_Source\PSoC4/CyLib.c ****     #else
 191:.\Generated_Source\PSoC4/CyLib.c ****         CY_SYS_CLK_ILO_CONFIG_REG &= ( uint32 ) ( ~( uint32 )CY_SYS_CLK_ILO_CONFIG_ENABLE);
 192:.\Generated_Source\PSoC4/CyLib.c ****     #endif /* (CY_IP_SRSSV2) */
 193:.\Generated_Source\PSoC4/CyLib.c **** }
 194:.\Generated_Source\PSoC4/CyLib.c **** 
 195:.\Generated_Source\PSoC4/CyLib.c **** #if(CY_IP_SRSSV2)
 196:.\Generated_Source\PSoC4/CyLib.c ****     /*******************************************************************************
 197:.\Generated_Source\PSoC4/CyLib.c ****     * Function Name: CySysClkIloEnabled
 198:.\Generated_Source\PSoC4/CyLib.c ****     ********************************************************************************
 199:.\Generated_Source\PSoC4/CyLib.c ****     *
 200:.\Generated_Source\PSoC4/CyLib.c ****     * Summary:
 201:.\Generated_Source\PSoC4/CyLib.c ****     *  Reports ILO enable state.
 202:.\Generated_Source\PSoC4/CyLib.c ****     *
 203:.\Generated_Source\PSoC4/CyLib.c ****     * Parameters:
 204:.\Generated_Source\PSoC4/CyLib.c ****     *  None
 205:.\Generated_Source\PSoC4/CyLib.c ****     *
 206:.\Generated_Source\PSoC4/CyLib.c ****     * Return:
 207:.\Generated_Source\PSoC4/CyLib.c ****     *  1 if ILO is enabled, and 0 if ILO is disabled.
 208:.\Generated_Source\PSoC4/CyLib.c ****     *
 209:.\Generated_Source\PSoC4/CyLib.c ****     *******************************************************************************/
 210:.\Generated_Source\PSoC4/CyLib.c ****     static uint32 CySysClkIloEnabled(void)
 211:.\Generated_Source\PSoC4/CyLib.c ****     {
 212:.\Generated_Source\PSoC4/CyLib.c ****         /* Prohibits writing to WDT registers and ILO/WCO registers when not equal 0 */
 213:.\Generated_Source\PSoC4/CyLib.c ****         return ((0u != (CY_SYS_CLK_ILO_CONFIG_REG & (uint32)(CY_SYS_CLK_ILO_CONFIG_ENABLE))) ?
 214:.\Generated_Source\PSoC4/CyLib.c ****             (uint32) 1u :
 215:.\Generated_Source\PSoC4/CyLib.c ****             (uint32) 0u);
 216:.\Generated_Source\PSoC4/CyLib.c ****     }
 217:.\Generated_Source\PSoC4/CyLib.c **** #endif /* (CY_IP_SRSSV2) */
 218:.\Generated_Source\PSoC4/CyLib.c **** 
 219:.\Generated_Source\PSoC4/CyLib.c **** 
 220:.\Generated_Source\PSoC4/CyLib.c **** /*******************************************************************************
 221:.\Generated_Source\PSoC4/CyLib.c **** * Function Name: CySysClkGetLfclkSource
 222:.\Generated_Source\PSoC4/CyLib.c **** ********************************************************************************
 223:.\Generated_Source\PSoC4/CyLib.c **** *
 224:.\Generated_Source\PSoC4/CyLib.c **** * Summary:
 225:.\Generated_Source\PSoC4/CyLib.c **** *  Gets the clock source for the LFCLK clock.
 226:.\Generated_Source\PSoC4/CyLib.c **** *  The function is applicable only for the PSoC 4100-BL and PSoC 4200-BL.
 227:.\Generated_Source\PSoC4/CyLib.c **** *
 228:.\Generated_Source\PSoC4/CyLib.c **** * Parameters:
 229:.\Generated_Source\PSoC4/CyLib.c **** *  None
 230:.\Generated_Source\PSoC4/CyLib.c **** *
 231:.\Generated_Source\PSoC4/CyLib.c **** * Return:
 232:.\Generated_Source\PSoC4/CyLib.c **** *  The LFCLK source:
 233:.\Generated_Source\PSoC4/CyLib.c **** *   CY_SYS_CLK_LFCLK_SRC_ILO    Internal Low Frequency (32 kHz) Oscillator (ILO)
 234:.\Generated_Source\PSoC4/CyLib.c **** *   CY_SYS_CLK_LFCLK_SRC_WCO    Low Frequency Watch Crystal Oscillator (WCO)
ARM GAS  C:\Users\Pablo\AppData\Local\Temp\ccDGsedh.s 			page 7


 235:.\Generated_Source\PSoC4/CyLib.c **** *
 236:.\Generated_Source\PSoC4/CyLib.c **** *******************************************************************************/
 237:.\Generated_Source\PSoC4/CyLib.c **** #if (CY_IP_WCO)
 238:.\Generated_Source\PSoC4/CyLib.c ****     static uint32 CySysClkGetLfclkSource(void)
 239:.\Generated_Source\PSoC4/CyLib.c ****     {
 240:.\Generated_Source\PSoC4/CyLib.c ****         uint32 lfclkSource;
 241:.\Generated_Source\PSoC4/CyLib.c ****         lfclkSource = CY_SYS_WDT_CONFIG_REG & CY_SYS_CLK_LFCLK_SEL_MASK;
 242:.\Generated_Source\PSoC4/CyLib.c ****         return (lfclkSource);
 243:.\Generated_Source\PSoC4/CyLib.c ****     }
 244:.\Generated_Source\PSoC4/CyLib.c **** #endif /* (CY_IP_WCO) */
 245:.\Generated_Source\PSoC4/CyLib.c **** 
 246:.\Generated_Source\PSoC4/CyLib.c **** 
 247:.\Generated_Source\PSoC4/CyLib.c **** /*******************************************************************************
 248:.\Generated_Source\PSoC4/CyLib.c **** * Function Name: CySysClkSetLfclkSource
 249:.\Generated_Source\PSoC4/CyLib.c **** ********************************************************************************
 250:.\Generated_Source\PSoC4/CyLib.c **** *
 251:.\Generated_Source\PSoC4/CyLib.c **** * Summary:
 252:.\Generated_Source\PSoC4/CyLib.c **** *  Sets the clock source for the LFCLK clock.
 253:.\Generated_Source\PSoC4/CyLib.c **** *
 254:.\Generated_Source\PSoC4/CyLib.c **** *  The switch between LFCLK sources must be done between positive edges of
 255:.\Generated_Source\PSoC4/CyLib.c **** *  the LFCLK, because the glitch risk is around LFCLK positive edge. To ensure
 256:.\Generated_Source\PSoC4/CyLib.c **** *  that the switch can be done safely, the WDT counter value is read until it
 257:.\Generated_Source\PSoC4/CyLib.c **** *  changes.
 258:.\Generated_Source\PSoC4/CyLib.c **** *
 259:.\Generated_Source\PSoC4/CyLib.c **** *  That means that the positive edge just finished and the switch is performed.
 260:.\Generated_Source\PSoC4/CyLib.c **** *  The enabled WDT counter is used for that purpose. If no counters are enabled,
 261:.\Generated_Source\PSoC4/CyLib.c **** *  the counter 0 is enabled. And after LFCLK source is switched, the counter 0
 262:.\Generated_Source\PSoC4/CyLib.c **** *  configuration is restored back.
 263:.\Generated_Source\PSoC4/CyLib.c **** *
 264:.\Generated_Source\PSoC4/CyLib.c **** *  The function is applicable only for the PSoC 4100-BL and PSoC 4200-BL.
 265:.\Generated_Source\PSoC4/CyLib.c **** *
 266:.\Generated_Source\PSoC4/CyLib.c **** * Parameters:
 267:.\Generated_Source\PSoC4/CyLib.c **** *  source: One of the available LFCLK sources.
 268:.\Generated_Source\PSoC4/CyLib.c **** *   CY_SYS_CLK_LFCLK_SRC_ILO    Internal Low Frequency (32 kHz) Oscillator (ILO)
 269:.\Generated_Source\PSoC4/CyLib.c **** *   CY_SYS_CLK_LFCLK_SRC_WCO    Low Frequency Watch Crystal Oscillator (WCO)
 270:.\Generated_Source\PSoC4/CyLib.c **** *
 271:.\Generated_Source\PSoC4/CyLib.c **** * Return:
 272:.\Generated_Source\PSoC4/CyLib.c **** *  None
 273:.\Generated_Source\PSoC4/CyLib.c **** *
 274:.\Generated_Source\PSoC4/CyLib.c **** * Side Effects:
 275:.\Generated_Source\PSoC4/CyLib.c **** *  This function will have no effect if the WDT is locked (CySysWdtLock() is
 276:.\Generated_Source\PSoC4/CyLib.c **** *  called). Call CySysWdtUnlock() to unlock the WDT.
 277:.\Generated_Source\PSoC4/CyLib.c **** *
 278:.\Generated_Source\PSoC4/CyLib.c **** *  The current source and the new source must both be running and stable before
 279:.\Generated_Source\PSoC4/CyLib.c **** *  calling this function.
 280:.\Generated_Source\PSoC4/CyLib.c **** *
 281:.\Generated_Source\PSoC4/CyLib.c **** *  Changing the LFCLK clock source may change the LFCLK clock frequency and
 282:.\Generated_Source\PSoC4/CyLib.c **** *  affect the functionality that uses this clock. For example, watchdog timer
 283:.\Generated_Source\PSoC4/CyLib.c **** *  (WDT) is clocked by LFCLK.
 284:.\Generated_Source\PSoC4/CyLib.c **** *
 285:.\Generated_Source\PSoC4/CyLib.c **** *******************************************************************************/
 286:.\Generated_Source\PSoC4/CyLib.c **** #if (CY_IP_WCO)
 287:.\Generated_Source\PSoC4/CyLib.c ****     void CySysClkSetLfclkSource(uint32 source)
 288:.\Generated_Source\PSoC4/CyLib.c ****     {
 289:.\Generated_Source\PSoC4/CyLib.c ****         uint8  interruptState;
 290:.\Generated_Source\PSoC4/CyLib.c **** 
 291:.\Generated_Source\PSoC4/CyLib.c ****         if (CySysClkGetLfclkSource() != source)
ARM GAS  C:\Users\Pablo\AppData\Local\Temp\ccDGsedh.s 			page 8


 292:.\Generated_Source\PSoC4/CyLib.c ****         {
 293:.\Generated_Source\PSoC4/CyLib.c ****             interruptState = CyEnterCriticalSection();
 294:.\Generated_Source\PSoC4/CyLib.c **** 
 295:.\Generated_Source\PSoC4/CyLib.c ****             CySysClkLfclkPosedgeCatch();
 296:.\Generated_Source\PSoC4/CyLib.c **** 
 297:.\Generated_Source\PSoC4/CyLib.c ****             CY_SYS_WDT_CONFIG_REG = (CY_SYS_WDT_CONFIG_REG & (uint32)(~CY_SYS_CLK_LFCLK_SEL_MASK)) 
 298:.\Generated_Source\PSoC4/CyLib.c ****                                     (source & CY_SYS_CLK_LFCLK_SEL_MASK);
 299:.\Generated_Source\PSoC4/CyLib.c **** 
 300:.\Generated_Source\PSoC4/CyLib.c ****             CySysClkLfclkPosedgeRestore();
 301:.\Generated_Source\PSoC4/CyLib.c **** 
 302:.\Generated_Source\PSoC4/CyLib.c ****             CyExitCriticalSection(interruptState);
 303:.\Generated_Source\PSoC4/CyLib.c ****         }
 304:.\Generated_Source\PSoC4/CyLib.c ****     }
 305:.\Generated_Source\PSoC4/CyLib.c **** #endif /* (CY_IP_WCO) */
 306:.\Generated_Source\PSoC4/CyLib.c **** 
 307:.\Generated_Source\PSoC4/CyLib.c **** 
 308:.\Generated_Source\PSoC4/CyLib.c **** /*******************************************************************************
 309:.\Generated_Source\PSoC4/CyLib.c **** * Function Name: CySysClkWriteHfclkDirect
 310:.\Generated_Source\PSoC4/CyLib.c **** ********************************************************************************
 311:.\Generated_Source\PSoC4/CyLib.c **** *
 312:.\Generated_Source\PSoC4/CyLib.c **** * Summary:
 313:.\Generated_Source\PSoC4/CyLib.c **** *  Selects the direct source for the HFCLK.
 314:.\Generated_Source\PSoC4/CyLib.c **** *
 315:.\Generated_Source\PSoC4/CyLib.c **** * Parameters:
 316:.\Generated_Source\PSoC4/CyLib.c **** *  clkSelect: One of the available HFCLK direct sources:
 317:.\Generated_Source\PSoC4/CyLib.c **** *   Define                    Source
 318:.\Generated_Source\PSoC4/CyLib.c **** *    CY_SYS_CLK_HFCLK_IMO      IMO
 319:.\Generated_Source\PSoC4/CyLib.c **** *    CY_SYS_CLK_HFCLK_EXTCLK   External clock pin
 320:.\Generated_Source\PSoC4/CyLib.c **** *    CY_SYS_CLK_HFCLK_ECO      External crystal oscillator
 321:.\Generated_Source\PSoC4/CyLib.c **** *                                           (applicable only for PSoC 4200-BL)
 322:.\Generated_Source\PSoC4/CyLib.c **** *
 323:.\Generated_Source\PSoC4/CyLib.c **** * Return:
 324:.\Generated_Source\PSoC4/CyLib.c **** *  None
 325:.\Generated_Source\PSoC4/CyLib.c **** *
 326:.\Generated_Source\PSoC4/CyLib.c **** * Side Effects:
 327:.\Generated_Source\PSoC4/CyLib.c **** *  The new source must be running and stable before calling this function.
 328:.\Generated_Source\PSoC4/CyLib.c **** *
 329:.\Generated_Source\PSoC4/CyLib.c **** *  PSoC 4000:
 330:.\Generated_Source\PSoC4/CyLib.c **** *  The SYSCLK has a maximum speed of 16 MHz, so HFCLK and SYSCLK dividers should
 331:.\Generated_Source\PSoC4/CyLib.c **** *  be selected in a way to not to exceed 16 MHz for the System clock.
 332:.\Generated_Source\PSoC4/CyLib.c **** *
 333:.\Generated_Source\PSoC4/CyLib.c **** *  If the SYSCLK clock frequency increases during device operation, call
 334:.\Generated_Source\PSoC4/CyLib.c **** *  CySysFlashSetWaitCycles() with the appropriate parameter to adjust the number
 335:.\Generated_Source\PSoC4/CyLib.c **** *  of clock cycles the cache will wait before sampling data comes back from Flash.
 336:.\Generated_Source\PSoC4/CyLib.c **** *  If the SYSCLK clock frequency decreases, you can call
 337:.\Generated_Source\PSoC4/CyLib.c **** *  CySysFlashSetWaitCycles() to improve the CPU performance. See
 338:.\Generated_Source\PSoC4/CyLib.c **** *  CySysFlashSetWaitCycles() description for more information.
 339:.\Generated_Source\PSoC4/CyLib.c **** *
 340:.\Generated_Source\PSoC4/CyLib.c **** *******************************************************************************/
 341:.\Generated_Source\PSoC4/CyLib.c **** void CySysClkWriteHfclkDirect(uint32 clkSelect)
 342:.\Generated_Source\PSoC4/CyLib.c **** {
 108              		.loc 1 342 0
 109              		.cfi_startproc
 110              	.LVL0:
 111 0000 10B5     		push	{r4, lr}
 112              		.cfi_def_cfa_offset 8
 113              		.cfi_offset 4, -8
ARM GAS  C:\Users\Pablo\AppData\Local\Temp\ccDGsedh.s 			page 9


 114              		.cfi_offset 14, -4
 115              		.loc 1 342 0
 116 0002 041C     		mov	r4, r0
 343:.\Generated_Source\PSoC4/CyLib.c ****     uint8  interruptState;
 344:.\Generated_Source\PSoC4/CyLib.c **** 
 345:.\Generated_Source\PSoC4/CyLib.c ****     interruptState = CyEnterCriticalSection();
 117              		.loc 1 345 0
 118 0004 FFF7FEFF 		bl	CyEnterCriticalSection
 119              	.LVL1:
 346:.\Generated_Source\PSoC4/CyLib.c **** 
 347:.\Generated_Source\PSoC4/CyLib.c ****     CY_SYS_CLK_SELECT_REG = ((CY_SYS_CLK_SELECT_REG & (( uint32 ) ~(( uint32 )CY_SYS_CLK_SELECT_DIR
 120              		.loc 1 347 0
 121 0008 054B     		ldr	r3, .L11
 348:.\Generated_Source\PSoC4/CyLib.c ****                         (( uint32 ) (clkSelect & ( uint32 )CY_SYS_CLK_SELECT_DIRECT_SEL_PARAM_MASK)
 122              		.loc 1 348 0
 123 000a 0121     		mov	r1, #1
 347:.\Generated_Source\PSoC4/CyLib.c ****     CY_SYS_CLK_SELECT_REG = ((CY_SYS_CLK_SELECT_REG & (( uint32 ) ~(( uint32 )CY_SYS_CLK_SELECT_DIR
 124              		.loc 1 347 0
 125 000c 1A68     		ldr	r2, [r3]
 126              		.loc 1 348 0
 127 000e 0C40     		and	r4, r1
 128              	.LVL2:
 347:.\Generated_Source\PSoC4/CyLib.c ****     CY_SYS_CLK_SELECT_REG = ((CY_SYS_CLK_SELECT_REG & (( uint32 ) ~(( uint32 )CY_SYS_CLK_SELECT_DIR
 129              		.loc 1 347 0
 130 0010 0721     		mov	r1, #7
 131 0012 8A43     		bic	r2, r1
 132 0014 1443     		orr	r4, r2
 133 0016 1C60     		str	r4, [r3]
 349:.\Generated_Source\PSoC4/CyLib.c **** 
 350:.\Generated_Source\PSoC4/CyLib.c ****     CyExitCriticalSection(interruptState);
 134              		.loc 1 350 0
 135 0018 FFF7FEFF 		bl	CyExitCriticalSection
 136              	.LVL3:
 351:.\Generated_Source\PSoC4/CyLib.c **** }
 137              		.loc 1 351 0
 138              		@ sp needed
 139 001c 10BD     		pop	{r4, pc}
 140              	.L12:
 141 001e C046     		.align	2
 142              	.L11:
 143 0020 00010B40 		.word	1074462976
 144              		.cfi_endproc
 145              	.LFE5:
 146              		.size	CySysClkWriteHfclkDirect, .-CySysClkWriteHfclkDirect
 147              		.section	.text.CySysClkWriteSysclkDiv,"ax",%progbits
 148              		.align	1
 149              		.global	CySysClkWriteSysclkDiv
 150              		.code	16
 151              		.thumb_func
 152              		.type	CySysClkWriteSysclkDiv, %function
 153              	CySysClkWriteSysclkDiv:
 154              	.LFB6:
 352:.\Generated_Source\PSoC4/CyLib.c **** 
 353:.\Generated_Source\PSoC4/CyLib.c **** 
 354:.\Generated_Source\PSoC4/CyLib.c **** /*******************************************************************************
 355:.\Generated_Source\PSoC4/CyLib.c **** * Function Name: CySysClkWriteSysclkDiv
 356:.\Generated_Source\PSoC4/CyLib.c **** ********************************************************************************
ARM GAS  C:\Users\Pablo\AppData\Local\Temp\ccDGsedh.s 			page 10


 357:.\Generated_Source\PSoC4/CyLib.c **** *
 358:.\Generated_Source\PSoC4/CyLib.c **** * Summary:
 359:.\Generated_Source\PSoC4/CyLib.c **** *  Selects the prescaler divide amount for SYSCLK from HFCLK.
 360:.\Generated_Source\PSoC4/CyLib.c **** *
 361:.\Generated_Source\PSoC4/CyLib.c **** * Parameters:
 362:.\Generated_Source\PSoC4/CyLib.c **** *  divider: Power of 2 prescaler selection
 363:.\Generated_Source\PSoC4/CyLib.c **** *
 364:.\Generated_Source\PSoC4/CyLib.c **** *   Define                        Description
 365:.\Generated_Source\PSoC4/CyLib.c **** *   CY_SYS_CLK_SYSCLK_DIV1        SYSCLK = HFCLK / 1
 366:.\Generated_Source\PSoC4/CyLib.c **** *   CY_SYS_CLK_SYSCLK_DIV2        SYSCLK = HFCLK / 2
 367:.\Generated_Source\PSoC4/CyLib.c **** *   CY_SYS_CLK_SYSCLK_DIV4        SYSCLK = HFCLK / 4
 368:.\Generated_Source\PSoC4/CyLib.c **** *   CY_SYS_CLK_SYSCLK_DIV8        SYSCLK = HFCLK / 8
 369:.\Generated_Source\PSoC4/CyLib.c **** *   CY_SYS_CLK_SYSCLK_DIV16       SYSCLK = HFCLK / 16  (N/A for 4000 Family)
 370:.\Generated_Source\PSoC4/CyLib.c **** *   CY_SYS_CLK_SYSCLK_DIV32       SYSCLK = HFCLK / 32  (N/A for 4000 Family)
 371:.\Generated_Source\PSoC4/CyLib.c **** *   CY_SYS_CLK_SYSCLK_DIV64       SYSCLK = HFCLK / 64  (N/A for 4000 Family)
 372:.\Generated_Source\PSoC4/CyLib.c **** *   CY_SYS_CLK_SYSCLK_DIV128      SYSCLK = HFCLK / 128 (N/A for 4000 Family)
 373:.\Generated_Source\PSoC4/CyLib.c **** *
 374:.\Generated_Source\PSoC4/CyLib.c **** * Return:
 375:.\Generated_Source\PSoC4/CyLib.c **** *  None
 376:.\Generated_Source\PSoC4/CyLib.c **** *
 377:.\Generated_Source\PSoC4/CyLib.c **** * Side Effects:
 378:.\Generated_Source\PSoC4/CyLib.c **** *  4000 Family:
 379:.\Generated_Source\PSoC4/CyLib.c **** *  The SYS_CLK has the speed of 16 MHz, so dividers HF_CLK and SYS_CLK
 380:.\Generated_Source\PSoC4/CyLib.c **** *  dividers should be selected in a way, not to exceed 16 MHz for SYS_CLK.
 381:.\Generated_Source\PSoC4/CyLib.c **** *
 382:.\Generated_Source\PSoC4/CyLib.c **** *  If the SYSCLK clock frequency increases during the device operation, call
 383:.\Generated_Source\PSoC4/CyLib.c **** *  CySysFlashSetWaitCycles() with the appropriate parameter to adjust the number
 384:.\Generated_Source\PSoC4/CyLib.c **** *  of clock cycles the cache will wait before sampling data comes back from Flash.
 385:.\Generated_Source\PSoC4/CyLib.c **** *  If the SYSCLK clock frequency decreases, you can call
 386:.\Generated_Source\PSoC4/CyLib.c **** *  CySysFlashSetWaitCycles() to improve the CPU performance. See
 387:.\Generated_Source\PSoC4/CyLib.c **** *  CySysFlashSetWaitCycles() description for more information.
 388:.\Generated_Source\PSoC4/CyLib.c **** *
 389:.\Generated_Source\PSoC4/CyLib.c **** *******************************************************************************/
 390:.\Generated_Source\PSoC4/CyLib.c **** void CySysClkWriteSysclkDiv(uint32 divider)
 391:.\Generated_Source\PSoC4/CyLib.c **** {
 155              		.loc 1 391 0
 156              		.cfi_startproc
 157              	.LVL4:
 158 0000 38B5     		push	{r3, r4, r5, lr}
 159              		.cfi_def_cfa_offset 16
 160              		.cfi_offset 3, -16
 161              		.cfi_offset 4, -12
 162              		.cfi_offset 5, -8
 163              		.cfi_offset 14, -4
 164              		.loc 1 391 0
 165 0002 041C     		mov	r4, r0
 392:.\Generated_Source\PSoC4/CyLib.c ****     uint8  interruptState;
 393:.\Generated_Source\PSoC4/CyLib.c **** 
 394:.\Generated_Source\PSoC4/CyLib.c ****     interruptState = CyEnterCriticalSection();
 166              		.loc 1 394 0
 167 0004 FFF7FEFF 		bl	CyEnterCriticalSection
 168              	.LVL5:
 395:.\Generated_Source\PSoC4/CyLib.c **** 
 396:.\Generated_Source\PSoC4/CyLib.c ****     CY_SYS_CLK_SELECT_REG = ((uint32)(((uint32)divider & CY_SYS_CLK_SELECT_SYSCLK_DIV_MASK) <<
 397:.\Generated_Source\PSoC4/CyLib.c ****                                     CY_SYS_CLK_SELECT_SYSCLK_DIV_SHIFT)) |
 398:.\Generated_Source\PSoC4/CyLib.c ****                             (CY_SYS_CLK_SELECT_REG & ((uint32)(~(uint32)(CY_SYS_CLK_SELECT_SYSCLK_D
 169              		.loc 1 398 0
ARM GAS  C:\Users\Pablo\AppData\Local\Temp\ccDGsedh.s 			page 11


 170 0008 064B     		ldr	r3, .L14
 396:.\Generated_Source\PSoC4/CyLib.c ****     CY_SYS_CLK_SELECT_REG = ((uint32)(((uint32)divider & CY_SYS_CLK_SELECT_SYSCLK_DIV_MASK) <<
 171              		.loc 1 396 0
 172 000a 0722     		mov	r2, #7
 173              		.loc 1 398 0
 174 000c 1D68     		ldr	r5, [r3]
 175 000e 0649     		ldr	r1, .L14+4
 396:.\Generated_Source\PSoC4/CyLib.c ****     CY_SYS_CLK_SELECT_REG = ((uint32)(((uint32)divider & CY_SYS_CLK_SELECT_SYSCLK_DIV_MASK) <<
 176              		.loc 1 396 0
 177 0010 1440     		and	r4, r2
 178              	.LVL6:
 179 0012 E204     		lsl	r2, r4, #19
 180              		.loc 1 398 0
 181 0014 2C1C     		mov	r4, r5
 182 0016 0C40     		and	r4, r1
 397:.\Generated_Source\PSoC4/CyLib.c ****                                     CY_SYS_CLK_SELECT_SYSCLK_DIV_SHIFT)) |
 183              		.loc 1 397 0
 184 0018 1443     		orr	r4, r2
 396:.\Generated_Source\PSoC4/CyLib.c ****     CY_SYS_CLK_SELECT_REG = ((uint32)(((uint32)divider & CY_SYS_CLK_SELECT_SYSCLK_DIV_MASK) <<
 185              		.loc 1 396 0
 186 001a 1C60     		str	r4, [r3]
 399:.\Generated_Source\PSoC4/CyLib.c ****                                     CY_SYS_CLK_SELECT_SYSCLK_DIV_SHIFT))));
 400:.\Generated_Source\PSoC4/CyLib.c **** 
 401:.\Generated_Source\PSoC4/CyLib.c ****     CyExitCriticalSection(interruptState);
 187              		.loc 1 401 0
 188 001c FFF7FEFF 		bl	CyExitCriticalSection
 189              	.LVL7:
 402:.\Generated_Source\PSoC4/CyLib.c **** }
 190              		.loc 1 402 0
 191              		@ sp needed
 192 0020 38BD     		pop	{r3, r4, r5, pc}
 193              	.L15:
 194 0022 C046     		.align	2
 195              	.L14:
 196 0024 00010B40 		.word	1074462976
 197 0028 FFFFC7FF 		.word	-3670017
 198              		.cfi_endproc
 199              	.LFE6:
 200              		.size	CySysClkWriteSysclkDiv, .-CySysClkWriteSysclkDiv
 201              		.section	.text.CySysWdtLock,"ax",%progbits
 202              		.align	1
 203              		.global	CySysWdtLock
 204              		.code	16
 205              		.thumb_func
 206              		.type	CySysWdtLock, %function
 207              	CySysWdtLock:
 208              	.LFB8:
 403:.\Generated_Source\PSoC4/CyLib.c **** 
 404:.\Generated_Source\PSoC4/CyLib.c **** 
 405:.\Generated_Source\PSoC4/CyLib.c **** #if(CY_IP_SRSSV2)
 406:.\Generated_Source\PSoC4/CyLib.c **** 
 407:.\Generated_Source\PSoC4/CyLib.c ****     /*******************************************************************************
 408:.\Generated_Source\PSoC4/CyLib.c ****     * Function Name: CySysClkWriteImoFreq
 409:.\Generated_Source\PSoC4/CyLib.c ****     ********************************************************************************
 410:.\Generated_Source\PSoC4/CyLib.c ****     *
 411:.\Generated_Source\PSoC4/CyLib.c ****     * Summary:
 412:.\Generated_Source\PSoC4/CyLib.c ****     *  Sets the frequency of the IMO.
ARM GAS  C:\Users\Pablo\AppData\Local\Temp\ccDGsedh.s 			page 12


 413:.\Generated_Source\PSoC4/CyLib.c ****     *
 414:.\Generated_Source\PSoC4/CyLib.c ****     * Parameters:
 415:.\Generated_Source\PSoC4/CyLib.c ****     *  freq: Valid range [3-48].  Frequency for operation of the IMO.
 416:.\Generated_Source\PSoC4/CyLib.c ****     *  Note: Invalid frequency will be ignored.
 417:.\Generated_Source\PSoC4/CyLib.c ****     *
 418:.\Generated_Source\PSoC4/CyLib.c ****     * Return:
 419:.\Generated_Source\PSoC4/CyLib.c ****     *  None
 420:.\Generated_Source\PSoC4/CyLib.c ****     *
 421:.\Generated_Source\PSoC4/CyLib.c ****     * Side Effects:
 422:.\Generated_Source\PSoC4/CyLib.c ****     *  If the SYSCLK clock frequency increases during the device operation, call
 423:.\Generated_Source\PSoC4/CyLib.c ****     *  CySysFlashSetWaitCycles() with the appropriate parameter to adjust the number
 424:.\Generated_Source\PSoC4/CyLib.c ****     *  of clock cycles the cache will wait before sampling data comes back from Flash.
 425:.\Generated_Source\PSoC4/CyLib.c ****     *  If the SYSCLK clock frequency decreases, you can call
 426:.\Generated_Source\PSoC4/CyLib.c ****     *  CySysFlashSetWaitCycles() to improve the CPU performance.
 427:.\Generated_Source\PSoC4/CyLib.c ****     *  See CySysFlashSetWaitCycles() description for more information.
 428:.\Generated_Source\PSoC4/CyLib.c ****     *
 429:.\Generated_Source\PSoC4/CyLib.c ****     *******************************************************************************/
 430:.\Generated_Source\PSoC4/CyLib.c ****     void CySysClkWriteImoFreq(uint32 freq)
 431:.\Generated_Source\PSoC4/CyLib.c ****     {
 432:.\Generated_Source\PSoC4/CyLib.c ****         uint8  bgTrim4;
 433:.\Generated_Source\PSoC4/CyLib.c ****         uint8  bgTrim5;
 434:.\Generated_Source\PSoC4/CyLib.c ****         uint8  interruptState;
 435:.\Generated_Source\PSoC4/CyLib.c ****         uint8  newImoTrim2Value;
 436:.\Generated_Source\PSoC4/CyLib.c ****         uint8  currentImoTrim2Value;
 437:.\Generated_Source\PSoC4/CyLib.c **** 
 438:.\Generated_Source\PSoC4/CyLib.c **** 
 439:.\Generated_Source\PSoC4/CyLib.c ****         if ((freq >= CY_SYS_CLK_IMO_MIN_FREQ_MHZ) && (freq <= CY_SYS_CLK_IMO_MAX_FREQ_MHZ))
 440:.\Generated_Source\PSoC4/CyLib.c ****         {
 441:.\Generated_Source\PSoC4/CyLib.c ****             if(freq <= CY_SFLASH_IMO_MAXF0_REG)
 442:.\Generated_Source\PSoC4/CyLib.c ****             {
 443:.\Generated_Source\PSoC4/CyLib.c ****                 bgTrim4 = CY_SFLASH_IMO_ABS0_REG;
 444:.\Generated_Source\PSoC4/CyLib.c ****                 bgTrim5 = CY_SFLASH_IMO_TMPCO0_REG;
 445:.\Generated_Source\PSoC4/CyLib.c ****             }
 446:.\Generated_Source\PSoC4/CyLib.c ****             else if(freq <= CY_SFLASH_IMO_MAXF1_REG)
 447:.\Generated_Source\PSoC4/CyLib.c ****             {
 448:.\Generated_Source\PSoC4/CyLib.c ****                 bgTrim4 = CY_SFLASH_IMO_ABS1_REG;
 449:.\Generated_Source\PSoC4/CyLib.c ****                 bgTrim5 = CY_SFLASH_IMO_TMPCO1_REG;
 450:.\Generated_Source\PSoC4/CyLib.c ****             }
 451:.\Generated_Source\PSoC4/CyLib.c ****             else if(freq <= CY_SFLASH_IMO_MAXF2_REG)
 452:.\Generated_Source\PSoC4/CyLib.c ****             {
 453:.\Generated_Source\PSoC4/CyLib.c ****                 bgTrim4 = CY_SFLASH_IMO_ABS2_REG;
 454:.\Generated_Source\PSoC4/CyLib.c ****                 bgTrim5 = CY_SFLASH_IMO_TMPCO2_REG;
 455:.\Generated_Source\PSoC4/CyLib.c ****             }
 456:.\Generated_Source\PSoC4/CyLib.c ****             else if(freq <= CY_SFLASH_IMO_MAXF3_REG)
 457:.\Generated_Source\PSoC4/CyLib.c ****             {
 458:.\Generated_Source\PSoC4/CyLib.c ****                 bgTrim4 = CY_SFLASH_IMO_ABS3_REG;
 459:.\Generated_Source\PSoC4/CyLib.c ****                 bgTrim5 = CY_SFLASH_IMO_TMPCO3_REG;
 460:.\Generated_Source\PSoC4/CyLib.c ****             }
 461:.\Generated_Source\PSoC4/CyLib.c ****             else
 462:.\Generated_Source\PSoC4/CyLib.c ****             {
 463:.\Generated_Source\PSoC4/CyLib.c ****                 bgTrim4 = CY_SFLASH_IMO_ABS4_REG;
 464:.\Generated_Source\PSoC4/CyLib.c ****                 bgTrim5 = CY_SFLASH_IMO_TMPCO4_REG;
 465:.\Generated_Source\PSoC4/CyLib.c ****             }
 466:.\Generated_Source\PSoC4/CyLib.c **** 
 467:.\Generated_Source\PSoC4/CyLib.c ****             /* Get IMO_TRIM2 value for the new frequency */
 468:.\Generated_Source\PSoC4/CyLib.c ****             newImoTrim2Value = cyImoFreqMhz2Reg[freq - CY_SYS_CLK_IMO_FREQ_TABLE_OFFSET];
 469:.\Generated_Source\PSoC4/CyLib.c **** 
ARM GAS  C:\Users\Pablo\AppData\Local\Temp\ccDGsedh.s 			page 13


 470:.\Generated_Source\PSoC4/CyLib.c **** 
 471:.\Generated_Source\PSoC4/CyLib.c ****             interruptState = CyEnterCriticalSection();
 472:.\Generated_Source\PSoC4/CyLib.c **** 
 473:.\Generated_Source\PSoC4/CyLib.c ****             /***************************************************************************
 474:.\Generated_Source\PSoC4/CyLib.c ****             * The IMO can have a different trim per frequency. To avoid possible corner
 475:.\Generated_Source\PSoC4/CyLib.c ****             * cases where a trim change can exceed the maximum frequency, the trim must
 476:.\Generated_Source\PSoC4/CyLib.c ****             * be applied at a frequency that is low enough.
 477:.\Generated_Source\PSoC4/CyLib.c ****             *
 478:.\Generated_Source\PSoC4/CyLib.c ****             * Comparing IMO_TRIM2 values for the current and new frequencies, since
 479:.\Generated_Source\PSoC4/CyLib.c ****             * IMO_TRIM2 value as a function of IMO frequency is a strictly increasing
 480:.\Generated_Source\PSoC4/CyLib.c ****             * function and is time-invariant.
 481:.\Generated_Source\PSoC4/CyLib.c ****             ***************************************************************************/
 482:.\Generated_Source\PSoC4/CyLib.c ****             if ((newImoTrim2Value >= CY_SYS_CLK_IMO_BOUNDARY_FREQ_TRIM2) && (freq >= CY_SYS_CLK_IMO
 483:.\Generated_Source\PSoC4/CyLib.c ****             {
 484:.\Generated_Source\PSoC4/CyLib.c ****                 /* Set boundary IMO frequency: safe for IMO above 48 MHZ trimming */
 485:.\Generated_Source\PSoC4/CyLib.c ****                 CY_SYS_CLK_IMO_TRIM2_REG = (uint32) cyImoFreqMhz2Reg[CY_SYS_CLK_IMO_TEMP_FREQ_MHZ -
 486:.\Generated_Source\PSoC4/CyLib.c ****                                                                      CY_SYS_CLK_IMO_FREQ_TABLE_OFFS
 487:.\Generated_Source\PSoC4/CyLib.c **** 
 488:.\Generated_Source\PSoC4/CyLib.c ****                 CyDelayCycles(CY_SYS_CLK_IMO_FREQ_TIMEOUT_CYCLES);
 489:.\Generated_Source\PSoC4/CyLib.c **** 
 490:.\Generated_Source\PSoC4/CyLib.c ****                 currentImoTrim2Value = CY_SYS_CLK_IMO_TEMP_FREQ_TRIM2;
 491:.\Generated_Source\PSoC4/CyLib.c ****             }
 492:.\Generated_Source\PSoC4/CyLib.c ****             else
 493:.\Generated_Source\PSoC4/CyLib.c ****             {
 494:.\Generated_Source\PSoC4/CyLib.c ****                 currentImoTrim2Value = (uint8) (CY_SYS_CLK_IMO_TRIM2_REG & CY_SYS_CLK_IMO_FREQ_BITS
 495:.\Generated_Source\PSoC4/CyLib.c ****             }
 496:.\Generated_Source\PSoC4/CyLib.c **** 
 497:.\Generated_Source\PSoC4/CyLib.c **** 
 498:.\Generated_Source\PSoC4/CyLib.c ****             /***************************************************************************
 499:.\Generated_Source\PSoC4/CyLib.c ****             * A trim change needs to be allowed to settle (within 5us) before the Freq
 500:.\Generated_Source\PSoC4/CyLib.c ****             * can be changed to a new frequency.
 501:.\Generated_Source\PSoC4/CyLib.c ****             *
 502:.\Generated_Source\PSoC4/CyLib.c ****             * Comparing IMO_TRIM2 values for the current and new frequencies, since
 503:.\Generated_Source\PSoC4/CyLib.c ****             * IMO_TRIM2 value as a function of IMO frequency is a strictly increasing
 504:.\Generated_Source\PSoC4/CyLib.c ****             * function and is time-invariant.
 505:.\Generated_Source\PSoC4/CyLib.c ****             ***************************************************************************/
 506:.\Generated_Source\PSoC4/CyLib.c ****             if (newImoTrim2Value < currentImoTrim2Value)
 507:.\Generated_Source\PSoC4/CyLib.c ****             {
 508:.\Generated_Source\PSoC4/CyLib.c ****                 /* Set new IMO frequency */
 509:.\Generated_Source\PSoC4/CyLib.c ****                 CY_SYS_CLK_IMO_TRIM2_REG = cyImoFreqMhz2Reg[freq - CY_SYS_CLK_IMO_FREQ_TABLE_OFFSET
 510:.\Generated_Source\PSoC4/CyLib.c ****                 CyDelayCycles(CY_SYS_CLK_IMO_FREQ_TIMEOUT_CYCLES);
 511:.\Generated_Source\PSoC4/CyLib.c ****             }
 512:.\Generated_Source\PSoC4/CyLib.c **** 
 513:.\Generated_Source\PSoC4/CyLib.c ****             /* Set trims for the new IMO frequency */
 514:.\Generated_Source\PSoC4/CyLib.c ****             CY_SYS_CLK_IMO_TRIM1_REG = (uint32) CY_SFLASH_IMO_TRIM_REG(freq - CY_SYS_CLK_IMO_FREQ_T
 515:.\Generated_Source\PSoC4/CyLib.c ****             CY_PWR_BG_TRIM4_REG  = bgTrim4;
 516:.\Generated_Source\PSoC4/CyLib.c ****             CY_PWR_BG_TRIM5_REG  = bgTrim5;
 517:.\Generated_Source\PSoC4/CyLib.c ****             CyDelayUs(CY_SYS_CLK_IMO_TRIM_TIMEOUT_US);
 518:.\Generated_Source\PSoC4/CyLib.c **** 
 519:.\Generated_Source\PSoC4/CyLib.c ****             if (newImoTrim2Value > currentImoTrim2Value)
 520:.\Generated_Source\PSoC4/CyLib.c ****             {
 521:.\Generated_Source\PSoC4/CyLib.c ****                 /* Set new IMO frequency */
 522:.\Generated_Source\PSoC4/CyLib.c ****                 CY_SYS_CLK_IMO_TRIM2_REG = cyImoFreqMhz2Reg[freq - CY_SYS_CLK_IMO_FREQ_TABLE_OFFSET
 523:.\Generated_Source\PSoC4/CyLib.c ****                 CyDelayCycles(CY_SYS_CLK_IMO_FREQ_TIMEOUT_CYCLES);
 524:.\Generated_Source\PSoC4/CyLib.c ****             }
 525:.\Generated_Source\PSoC4/CyLib.c **** 
 526:.\Generated_Source\PSoC4/CyLib.c ****             CyExitCriticalSection(interruptState);
ARM GAS  C:\Users\Pablo\AppData\Local\Temp\ccDGsedh.s 			page 14


 527:.\Generated_Source\PSoC4/CyLib.c ****         }
 528:.\Generated_Source\PSoC4/CyLib.c ****         else
 529:.\Generated_Source\PSoC4/CyLib.c ****         {
 530:.\Generated_Source\PSoC4/CyLib.c ****             /* Halt CPU in debug mode if new frequency is invalid */
 531:.\Generated_Source\PSoC4/CyLib.c ****             CYASSERT(0u != 0u);
 532:.\Generated_Source\PSoC4/CyLib.c ****         }
 533:.\Generated_Source\PSoC4/CyLib.c ****     }
 534:.\Generated_Source\PSoC4/CyLib.c **** 
 535:.\Generated_Source\PSoC4/CyLib.c **** 
 536:.\Generated_Source\PSoC4/CyLib.c **** #else
 537:.\Generated_Source\PSoC4/CyLib.c **** 
 538:.\Generated_Source\PSoC4/CyLib.c **** 
 539:.\Generated_Source\PSoC4/CyLib.c ****     /*******************************************************************************
 540:.\Generated_Source\PSoC4/CyLib.c ****     * Function Name: CySysClkWriteHfclkDiv
 541:.\Generated_Source\PSoC4/CyLib.c ****     ********************************************************************************
 542:.\Generated_Source\PSoC4/CyLib.c ****     *
 543:.\Generated_Source\PSoC4/CyLib.c ****     * Summary:
 544:.\Generated_Source\PSoC4/CyLib.c ****     *  Selects HF clk predivider value.
 545:.\Generated_Source\PSoC4/CyLib.c ****     *
 546:.\Generated_Source\PSoC4/CyLib.c ****     * Parameters:
 547:.\Generated_Source\PSoC4/CyLib.c ****     *  divider: HF clock divider value
 548:.\Generated_Source\PSoC4/CyLib.c ****     *   Define                        Description
 549:.\Generated_Source\PSoC4/CyLib.c ****     *   CY_SYS_CLK_HFCLK_DIV_NODIV    Transparent mode (w/o dividing)
 550:.\Generated_Source\PSoC4/CyLib.c ****     *   CY_SYS_CLK_HFCLK_DIV_2        Divide selected clock source by 2
 551:.\Generated_Source\PSoC4/CyLib.c ****     *   CY_SYS_CLK_HFCLK_DIV_4        Divide selected clock source by 4
 552:.\Generated_Source\PSoC4/CyLib.c ****     *   CY_SYS_CLK_HFCLK_DIV_8        Divide selected clock source by 8
 553:.\Generated_Source\PSoC4/CyLib.c ****     *
 554:.\Generated_Source\PSoC4/CyLib.c ****     * Return:
 555:.\Generated_Source\PSoC4/CyLib.c ****     *  None
 556:.\Generated_Source\PSoC4/CyLib.c ****     *
 557:.\Generated_Source\PSoC4/CyLib.c ****     * Side Effects:
 558:.\Generated_Source\PSoC4/CyLib.c ****     *  If the SYSCLK clock frequency increases during the device operation, call
 559:.\Generated_Source\PSoC4/CyLib.c ****     *  CySysFlashSetWaitCycles() with the appropriate parameter to adjust the number
 560:.\Generated_Source\PSoC4/CyLib.c ****     *  of clock cycles the cache will wait before sampling data comes back from Flash.
 561:.\Generated_Source\PSoC4/CyLib.c ****     *  If the SYSCLK clock frequency decreases, you can call
 562:.\Generated_Source\PSoC4/CyLib.c ****     *  CySysFlashSetWaitCycles() to improve the CPU performance. See
 563:.\Generated_Source\PSoC4/CyLib.c ****     *  CySysFlashSetWaitCycles() description for more information.
 564:.\Generated_Source\PSoC4/CyLib.c ****     *
 565:.\Generated_Source\PSoC4/CyLib.c **** 
 566:.\Generated_Source\PSoC4/CyLib.c ****     *
 567:.\Generated_Source\PSoC4/CyLib.c ****     *******************************************************************************/
 568:.\Generated_Source\PSoC4/CyLib.c ****     void CySysClkWriteHfclkDiv(uint32 divider)
 569:.\Generated_Source\PSoC4/CyLib.c ****     {
 570:.\Generated_Source\PSoC4/CyLib.c ****         uint8  interruptState;
 571:.\Generated_Source\PSoC4/CyLib.c **** 
 572:.\Generated_Source\PSoC4/CyLib.c ****         interruptState = CyEnterCriticalSection();
 573:.\Generated_Source\PSoC4/CyLib.c **** 
 574:.\Generated_Source\PSoC4/CyLib.c ****         CY_SYS_CLK_SELECT_REG = ((CY_SYS_CLK_SELECT_REG & ((uint32) (~(CY_SYS_CLK_SELECT_HFCLK_DIV_
 575:.\Generated_Source\PSoC4/CyLib.c ****                                         CY_SYS_CLK_SELECT_HFCLK_DIV_SHIFT)))) |
 576:.\Generated_Source\PSoC4/CyLib.c ****                     ((uint32)((divider & CY_SYS_CLK_SELECT_HFCLK_DIV_MASK) << CY_SYS_CLK_SELECT_HFC
 577:.\Generated_Source\PSoC4/CyLib.c **** 
 578:.\Generated_Source\PSoC4/CyLib.c ****         CyExitCriticalSection(interruptState);
 579:.\Generated_Source\PSoC4/CyLib.c ****     }
 580:.\Generated_Source\PSoC4/CyLib.c **** 
 581:.\Generated_Source\PSoC4/CyLib.c **** 
 582:.\Generated_Source\PSoC4/CyLib.c ****     /*******************************************************************************
 583:.\Generated_Source\PSoC4/CyLib.c ****     * Function Name: CySysClkWriteImoFreq
ARM GAS  C:\Users\Pablo\AppData\Local\Temp\ccDGsedh.s 			page 15


 584:.\Generated_Source\PSoC4/CyLib.c ****     ********************************************************************************
 585:.\Generated_Source\PSoC4/CyLib.c ****     *
 586:.\Generated_Source\PSoC4/CyLib.c ****     * Summary:
 587:.\Generated_Source\PSoC4/CyLib.c ****     *  Sets the frequency of the IMO.
 588:.\Generated_Source\PSoC4/CyLib.c ****     *
 589:.\Generated_Source\PSoC4/CyLib.c ****     * Parameters:
 590:.\Generated_Source\PSoC4/CyLib.c ****     *  freq: Valid values are 24, 32 and 48 MHz.
 591:.\Generated_Source\PSoC4/CyLib.c ****     *
 592:.\Generated_Source\PSoC4/CyLib.c ****     *  Note: The CPU is halted if new frequency is invalid and project is
 593:.\Generated_Source\PSoC4/CyLib.c ****     *  compiled in debug mode.
 594:.\Generated_Source\PSoC4/CyLib.c ****     *
 595:.\Generated_Source\PSoC4/CyLib.c ****     * Return:
 596:.\Generated_Source\PSoC4/CyLib.c ****     *  None
 597:.\Generated_Source\PSoC4/CyLib.c ****     *
 598:.\Generated_Source\PSoC4/CyLib.c ****     * Side Effects:
 599:.\Generated_Source\PSoC4/CyLib.c ****     *  If the SYSCLK clock frequency increases during the device operation, call
 600:.\Generated_Source\PSoC4/CyLib.c ****     *  CySysFlashSetWaitCycles() with the appropriate parameter to adjust the number
 601:.\Generated_Source\PSoC4/CyLib.c ****     *  of clock cycles the cache will wait before sampling data comes back from Flash.
 602:.\Generated_Source\PSoC4/CyLib.c ****     *  If the SYSCLK clock frequency decreases, you can call
 603:.\Generated_Source\PSoC4/CyLib.c ****     *  CySysFlashSetWaitCycles() to improve the CPU performance. See
 604:.\Generated_Source\PSoC4/CyLib.c ****     *  CySysFlashSetWaitCycles() description for more information.
 605:.\Generated_Source\PSoC4/CyLib.c ****     *
 606:.\Generated_Source\PSoC4/CyLib.c ****     *  The System Clock (SYSCLK) has maximum speed of 16 MHz, so HFCLK and SYSCLK
 607:.\Generated_Source\PSoC4/CyLib.c ****     *  dividers should be selected in a way, to not to exceed 16 MHz for the System
 608:.\Generated_Source\PSoC4/CyLib.c ****     *  clock.
 609:.\Generated_Source\PSoC4/CyLib.c ****     *
 610:.\Generated_Source\PSoC4/CyLib.c ****     *******************************************************************************/
 611:.\Generated_Source\PSoC4/CyLib.c ****     void CySysClkWriteImoFreq(uint32 freq)
 612:.\Generated_Source\PSoC4/CyLib.c ****     {
 613:.\Generated_Source\PSoC4/CyLib.c ****         uint8  interruptState;
 614:.\Generated_Source\PSoC4/CyLib.c **** 
 615:.\Generated_Source\PSoC4/CyLib.c ****         if ((freq == 24u) || (freq == 32u) || (freq == 48u))
 616:.\Generated_Source\PSoC4/CyLib.c ****         {
 617:.\Generated_Source\PSoC4/CyLib.c ****             interruptState = CyEnterCriticalSection();
 618:.\Generated_Source\PSoC4/CyLib.c **** 
 619:.\Generated_Source\PSoC4/CyLib.c ****             /* Set IMO to 24 MHz - CLK_IMO_SELECT.FREQ = 0 */
 620:.\Generated_Source\PSoC4/CyLib.c ****             CY_SYS_CLK_IMO_SELECT_REG &= ((uint32) ~CY_SYS_CLK_IMO_SELECT_FREQ_MASK);
 621:.\Generated_Source\PSoC4/CyLib.c **** 
 622:.\Generated_Source\PSoC4/CyLib.c ****             /* Apply coarse trim */
 623:.\Generated_Source\PSoC4/CyLib.c ****             CY_SYS_CLK_IMO_TRIM1_REG = (CY_SYS_CLK_IMO_TRIM1_REG & ((uint32) ~CY_SYS_CLK_IMO_TRIM1_
 624:.\Generated_Source\PSoC4/CyLib.c ****                 (CY_SFLASH_IMO_TRIM_REG(freq - CY_SYS_CLK_IMO_MIN_FREQ_MHZ) & CY_SYS_CLK_IMO_TRIM1_
 625:.\Generated_Source\PSoC4/CyLib.c **** 
 626:.\Generated_Source\PSoC4/CyLib.c ****             /* Zero out fine trim */
 627:.\Generated_Source\PSoC4/CyLib.c ****             CY_SYS_CLK_IMO_TRIM2_REG = CY_SYS_CLK_IMO_TRIM2_REG & ((uint32) ~CY_SYS_CLK_IMO_TRIM2_F
 628:.\Generated_Source\PSoC4/CyLib.c **** 
 629:.\Generated_Source\PSoC4/CyLib.c ****             /* Apply TC trim */
 630:.\Generated_Source\PSoC4/CyLib.c ****             CY_SYS_CLK_IMO_TRIM3_REG = (CY_SYS_CLK_IMO_TRIM3_REG & ((uint32) ~CY_SYS_CLK_IMO_TRIM3_
 631:.\Generated_Source\PSoC4/CyLib.c ****                 (CY_SFLASH_IMO_TCTRIM_REG(freq - CY_SYS_CLK_IMO_MIN_FREQ_MHZ) & CY_SYS_CLK_IMO_TRIM
 632:.\Generated_Source\PSoC4/CyLib.c **** 
 633:.\Generated_Source\PSoC4/CyLib.c ****             CyDelayCycles(CY_SYS_CLK_IMO_TRIM_DELAY_US);
 634:.\Generated_Source\PSoC4/CyLib.c **** 
 635:.\Generated_Source\PSoC4/CyLib.c ****             if (freq > CY_SYS_CLK_IMO_MIN_FREQ_MHZ)
 636:.\Generated_Source\PSoC4/CyLib.c ****             {
 637:.\Generated_Source\PSoC4/CyLib.c ****                 /* Select nearby intermediate frequency */
 638:.\Generated_Source\PSoC4/CyLib.c ****                 CY_SYS_CLK_IMO_SELECT_REG = (CY_SYS_CLK_IMO_SELECT_REG & ((uint32) ~CY_SYS_CLK_IMO_
 639:.\Generated_Source\PSoC4/CyLib.c ****                     (((freq - 4u - CY_SYS_CLK_IMO_MIN_FREQ_MHZ) >> 2u) & CY_SYS_CLK_IMO_SELECT_FREQ
 640:.\Generated_Source\PSoC4/CyLib.c **** 
ARM GAS  C:\Users\Pablo\AppData\Local\Temp\ccDGsedh.s 			page 16


 641:.\Generated_Source\PSoC4/CyLib.c ****                 CyDelayCycles(CY_SYS_CLK_IMO_TRIM_DELAY_US);
 642:.\Generated_Source\PSoC4/CyLib.c **** 
 643:.\Generated_Source\PSoC4/CyLib.c ****                 /* Make small step to final frequency */
 644:.\Generated_Source\PSoC4/CyLib.c ****                 /* Select nearby intermediate frequency */
 645:.\Generated_Source\PSoC4/CyLib.c ****                 CY_SYS_CLK_IMO_SELECT_REG = (CY_SYS_CLK_IMO_SELECT_REG & ((uint32) ~CY_SYS_CLK_IMO_
 646:.\Generated_Source\PSoC4/CyLib.c ****                     (((freq - CY_SYS_CLK_IMO_MIN_FREQ_MHZ) >> 2u) & CY_SYS_CLK_IMO_SELECT_FREQ_MASK
 647:.\Generated_Source\PSoC4/CyLib.c ****             }
 648:.\Generated_Source\PSoC4/CyLib.c **** 
 649:.\Generated_Source\PSoC4/CyLib.c ****             CyExitCriticalSection(interruptState);
 650:.\Generated_Source\PSoC4/CyLib.c ****         }
 651:.\Generated_Source\PSoC4/CyLib.c ****         else
 652:.\Generated_Source\PSoC4/CyLib.c ****         {
 653:.\Generated_Source\PSoC4/CyLib.c ****             /* Halt CPU in debug mode if new frequency is invalid */
 654:.\Generated_Source\PSoC4/CyLib.c ****             CYASSERT(0u != 0u);
 655:.\Generated_Source\PSoC4/CyLib.c ****         }
 656:.\Generated_Source\PSoC4/CyLib.c ****     }
 657:.\Generated_Source\PSoC4/CyLib.c **** 
 658:.\Generated_Source\PSoC4/CyLib.c **** #endif /* (CY_IP_SRSSV2) */
 659:.\Generated_Source\PSoC4/CyLib.c **** 
 660:.\Generated_Source\PSoC4/CyLib.c **** 
 661:.\Generated_Source\PSoC4/CyLib.c **** #if (CY_PSOC4_4100BL || CY_PSOC4_4200BL)
 662:.\Generated_Source\PSoC4/CyLib.c **** 
 663:.\Generated_Source\PSoC4/CyLib.c ****     /*******************************************************************************
 664:.\Generated_Source\PSoC4/CyLib.c ****     * Function Name: CySysClkEcoStart
 665:.\Generated_Source\PSoC4/CyLib.c ****     ********************************************************************************
 666:.\Generated_Source\PSoC4/CyLib.c ****     *
 667:.\Generated_Source\PSoC4/CyLib.c ****     * Summary:
 668:.\Generated_Source\PSoC4/CyLib.c ****     *  Starts the External Crystal Oscillator (ECO). Refer to the device datasheet
 669:.\Generated_Source\PSoC4/CyLib.c ****     *  for the ECO startup time.
 670:.\Generated_Source\PSoC4/CyLib.c ****     *
 671:.\Generated_Source\PSoC4/CyLib.c ****     *  The timeout interval is measured based on the system frequency defined by
 672:.\Generated_Source\PSoC4/CyLib.c ****     *  PSoC Creator at build time. If System clock frequency is changed in
 673:.\Generated_Source\PSoC4/CyLib.c ****     *  runtime, the CyDelayFreq() with the appropriate parameter should be called.
 674:.\Generated_Source\PSoC4/CyLib.c ****     *
 675:.\Generated_Source\PSoC4/CyLib.c ****     * Parameters:
 676:.\Generated_Source\PSoC4/CyLib.c ****     *  timeoutUs: Timeout in microseconds. If zero is specified, the function
 677:.\Generated_Source\PSoC4/CyLib.c ****     *             starts the crystal and returns CYRET_SUCCESS. If non-zero
 678:.\Generated_Source\PSoC4/CyLib.c ****     *             value is passed, the CYRET_SUCCESS is returned once crystal
 679:.\Generated_Source\PSoC4/CyLib.c ****     *             is oscillating and amplitude reached 60% and it does not mean
 680:.\Generated_Source\PSoC4/CyLib.c ****     *             24 MHz crystal is within 50 ppm. If it is not oscillating or
 681:.\Generated_Source\PSoC4/CyLib.c ****     *             amplitude didn't reach 60% after specified amount of time, the
 682:.\Generated_Source\PSoC4/CyLib.c ****     *             CYRET_TIMEOUT is returned.
 683:.\Generated_Source\PSoC4/CyLib.c ****     *
 684:.\Generated_Source\PSoC4/CyLib.c ****     * Return:
 685:.\Generated_Source\PSoC4/CyLib.c ****     *   CYRET_SUCCESS - Completed successfully. The ECO is oscillating and amplitude
 686:.\Generated_Source\PSoC4/CyLib.c ****     *                   reached 60% and it does not mean 24 MHz crystal is within
 687:.\Generated_Source\PSoC4/CyLib.c ****     *                   50 ppm.
 688:.\Generated_Source\PSoC4/CyLib.c ****     *   CYRET_TIMEOUT - Timeout occurred.
 689:.\Generated_Source\PSoC4/CyLib.c ****     *
 690:.\Generated_Source\PSoC4/CyLib.c ****     *******************************************************************************/
 691:.\Generated_Source\PSoC4/CyLib.c ****     cystatus CySysClkEcoStart(uint32 timeoutUs)
 692:.\Generated_Source\PSoC4/CyLib.c ****     {
 693:.\Generated_Source\PSoC4/CyLib.c ****         cystatus status = CYRET_SUCCESS;
 694:.\Generated_Source\PSoC4/CyLib.c **** 
 695:.\Generated_Source\PSoC4/CyLib.c ****         /* Enable the RF oscillator band gap */
 696:.\Generated_Source\PSoC4/CyLib.c ****         CY_SYS_XTAL_BLESS_RF_CONFIG_REG |= CY_SYS_XTAL_BLESS_RF_CONFIG_RF_ENABLE;
 697:.\Generated_Source\PSoC4/CyLib.c **** 
ARM GAS  C:\Users\Pablo\AppData\Local\Temp\ccDGsedh.s 			page 17


 698:.\Generated_Source\PSoC4/CyLib.c ****         /* Update trimming register */
 699:.\Generated_Source\PSoC4/CyLib.c ****         CY_SYS_XTAL_BLERD_BB_XO_REG = CY_SYS_XTAL_BLERD_BB_XO_TRIM;
 700:.\Generated_Source\PSoC4/CyLib.c **** 
 701:.\Generated_Source\PSoC4/CyLib.c ****         /* Enable the Crystal */
 702:.\Generated_Source\PSoC4/CyLib.c ****         CY_SYS_XTAL_BLERD_DBUS_REG |= CY_SYS_XTAL_BLERD_DBUS_XTAL_ENABLE;
 703:.\Generated_Source\PSoC4/CyLib.c **** 
 704:.\Generated_Source\PSoC4/CyLib.c ****         if(timeoutUs > 0u)
 705:.\Generated_Source\PSoC4/CyLib.c ****         {
 706:.\Generated_Source\PSoC4/CyLib.c ****             status = CYRET_TIMEOUT;
 707:.\Generated_Source\PSoC4/CyLib.c **** 
 708:.\Generated_Source\PSoC4/CyLib.c ****             for( ; timeoutUs > 0u; timeoutUs--)
 709:.\Generated_Source\PSoC4/CyLib.c ****             {
 710:.\Generated_Source\PSoC4/CyLib.c ****                 CyDelayUs(1u);
 711:.\Generated_Source\PSoC4/CyLib.c **** 
 712:.\Generated_Source\PSoC4/CyLib.c ****                 if(0u != CySysClkEcoReadStatus())
 713:.\Generated_Source\PSoC4/CyLib.c ****                 {
 714:.\Generated_Source\PSoC4/CyLib.c ****                     status = CYRET_SUCCESS;
 715:.\Generated_Source\PSoC4/CyLib.c ****                     break;
 716:.\Generated_Source\PSoC4/CyLib.c ****                 }
 717:.\Generated_Source\PSoC4/CyLib.c ****             }
 718:.\Generated_Source\PSoC4/CyLib.c **** 
 719:.\Generated_Source\PSoC4/CyLib.c ****         }
 720:.\Generated_Source\PSoC4/CyLib.c **** 
 721:.\Generated_Source\PSoC4/CyLib.c ****         return(status);
 722:.\Generated_Source\PSoC4/CyLib.c ****     }
 723:.\Generated_Source\PSoC4/CyLib.c **** 
 724:.\Generated_Source\PSoC4/CyLib.c **** 
 725:.\Generated_Source\PSoC4/CyLib.c ****     /*******************************************************************************
 726:.\Generated_Source\PSoC4/CyLib.c ****     * Function Name: CySysClkEcoStop
 727:.\Generated_Source\PSoC4/CyLib.c ****     ********************************************************************************
 728:.\Generated_Source\PSoC4/CyLib.c ****     *
 729:.\Generated_Source\PSoC4/CyLib.c ****     * Summary:
 730:.\Generated_Source\PSoC4/CyLib.c ****     *  Stops the megahertz crystal.
 731:.\Generated_Source\PSoC4/CyLib.c ****     *
 732:.\Generated_Source\PSoC4/CyLib.c ****     * Parameters:
 733:.\Generated_Source\PSoC4/CyLib.c ****     *  None
 734:.\Generated_Source\PSoC4/CyLib.c ****     *
 735:.\Generated_Source\PSoC4/CyLib.c ****     * Return:
 736:.\Generated_Source\PSoC4/CyLib.c ****     *  None
 737:.\Generated_Source\PSoC4/CyLib.c ****     *
 738:.\Generated_Source\PSoC4/CyLib.c ****     *******************************************************************************/
 739:.\Generated_Source\PSoC4/CyLib.c ****     void CySysClkEcoStop(void)
 740:.\Generated_Source\PSoC4/CyLib.c ****     {
 741:.\Generated_Source\PSoC4/CyLib.c ****         /* Disable the RF oscillator band gap */
 742:.\Generated_Source\PSoC4/CyLib.c ****         CY_SYS_XTAL_BLESS_RF_CONFIG_REG &= (uint32) ~CY_SYS_XTAL_BLESS_RF_CONFIG_RF_ENABLE;
 743:.\Generated_Source\PSoC4/CyLib.c **** 
 744:.\Generated_Source\PSoC4/CyLib.c ****         /* Disable the Crystal */
 745:.\Generated_Source\PSoC4/CyLib.c ****         CY_SYS_XTAL_BLERD_DBUS_REG &= (uint32) ~CY_SYS_XTAL_BLERD_DBUS_XTAL_ENABLE;
 746:.\Generated_Source\PSoC4/CyLib.c ****     }
 747:.\Generated_Source\PSoC4/CyLib.c **** 
 748:.\Generated_Source\PSoC4/CyLib.c **** 
 749:.\Generated_Source\PSoC4/CyLib.c ****     /*******************************************************************************
 750:.\Generated_Source\PSoC4/CyLib.c ****     * Function Name: CySysClkEcoReadStatus
 751:.\Generated_Source\PSoC4/CyLib.c ****     ********************************************************************************
 752:.\Generated_Source\PSoC4/CyLib.c ****     *
 753:.\Generated_Source\PSoC4/CyLib.c ****     * Summary:
 754:.\Generated_Source\PSoC4/CyLib.c ****     *  Read status bit (50 ppm reached) for the megahertz crystal.
ARM GAS  C:\Users\Pablo\AppData\Local\Temp\ccDGsedh.s 			page 18


 755:.\Generated_Source\PSoC4/CyLib.c ****     *
 756:.\Generated_Source\PSoC4/CyLib.c ****     * Parameters:
 757:.\Generated_Source\PSoC4/CyLib.c ****     *  None
 758:.\Generated_Source\PSoC4/CyLib.c ****     *
 759:.\Generated_Source\PSoC4/CyLib.c ****     * Return:
 760:.\Generated_Source\PSoC4/CyLib.c ****     *  Non-zero indicates that XTAL output reached 50 ppm.
 761:.\Generated_Source\PSoC4/CyLib.c ****     *
 762:.\Generated_Source\PSoC4/CyLib.c ****     *******************************************************************************/
 763:.\Generated_Source\PSoC4/CyLib.c ****     uint32 CySysClkEcoReadStatus(void)
 764:.\Generated_Source\PSoC4/CyLib.c ****     {
 765:.\Generated_Source\PSoC4/CyLib.c ****         return (CY_SYS_XTAL_BLERD_FSM_REG & CY_SYS_XTAL_BLERD_FSM_XO_AMP_DETECT);
 766:.\Generated_Source\PSoC4/CyLib.c ****     }
 767:.\Generated_Source\PSoC4/CyLib.c **** 
 768:.\Generated_Source\PSoC4/CyLib.c **** 
 769:.\Generated_Source\PSoC4/CyLib.c ****     /*******************************************************************************
 770:.\Generated_Source\PSoC4/CyLib.c ****     * Function Name: CySysClkWriteEcoDiv
 771:.\Generated_Source\PSoC4/CyLib.c ****     ********************************************************************************
 772:.\Generated_Source\PSoC4/CyLib.c ****     *
 773:.\Generated_Source\PSoC4/CyLib.c ****     * Summary:
 774:.\Generated_Source\PSoC4/CyLib.c ****     *  Selects value for the ECO divider.
 775:.\Generated_Source\PSoC4/CyLib.c ****     *
 776:.\Generated_Source\PSoC4/CyLib.c ****     * Parameters:
 777:.\Generated_Source\PSoC4/CyLib.c ****     *  divider: Power of 2 divider selection.
 778:.\Generated_Source\PSoC4/CyLib.c ****     *
 779:.\Generated_Source\PSoC4/CyLib.c ****     *   Define                        Description
 780:.\Generated_Source\PSoC4/CyLib.c ****     *   CY_SYS_CLK_ECO_DIV1             HFCLK = ECO / 1
 781:.\Generated_Source\PSoC4/CyLib.c ****     *   CY_SYS_CLK_ECO_DIV2             HFCLK = ECO / 2
 782:.\Generated_Source\PSoC4/CyLib.c ****     *   CY_SYS_CLK_ECO_DIV4             HFCLK = ECO / 4
 783:.\Generated_Source\PSoC4/CyLib.c ****     *   CY_SYS_CLK_ECO_DIV8             HFCLK = ECO / 8
 784:.\Generated_Source\PSoC4/CyLib.c ****     *
 785:.\Generated_Source\PSoC4/CyLib.c ****     * Return:
 786:.\Generated_Source\PSoC4/CyLib.c ****     *  None
 787:.\Generated_Source\PSoC4/CyLib.c ****     *
 788:.\Generated_Source\PSoC4/CyLib.c ****     * Side Effects:
 789:.\Generated_Source\PSoC4/CyLib.c ****     *  If the SYSCLK clock frequency increases during the device operation, call
 790:.\Generated_Source\PSoC4/CyLib.c ****     *  CySysFlashSetWaitCycles() with the appropriate parameter to adjust the number
 791:.\Generated_Source\PSoC4/CyLib.c ****     *  of clock cycles the cache will wait before sampling data comes back from Flash.
 792:.\Generated_Source\PSoC4/CyLib.c ****     *  If the SYSCLK clock frequency decreases, you can call
 793:.\Generated_Source\PSoC4/CyLib.c ****     *  CySysFlashSetWaitCycles() to improve the CPU performance. See
 794:.\Generated_Source\PSoC4/CyLib.c ****     *  CySysFlashSetWaitCycles() description for more information.
 795:.\Generated_Source\PSoC4/CyLib.c ****     *
 796:.\Generated_Source\PSoC4/CyLib.c ****     *******************************************************************************/
 797:.\Generated_Source\PSoC4/CyLib.c ****     void CySysClkWriteEcoDiv(uint32 divider)
 798:.\Generated_Source\PSoC4/CyLib.c ****     {
 799:.\Generated_Source\PSoC4/CyLib.c ****         uint8  interruptState;
 800:.\Generated_Source\PSoC4/CyLib.c **** 
 801:.\Generated_Source\PSoC4/CyLib.c ****         interruptState = CyEnterCriticalSection();
 802:.\Generated_Source\PSoC4/CyLib.c **** 
 803:.\Generated_Source\PSoC4/CyLib.c ****         CY_SYS_CLK_XTAL_CLK_DIV_CONFIG_REG =  (divider & CY_SYS_CLK_XTAL_CLK_DIV_MASK) |
 804:.\Generated_Source\PSoC4/CyLib.c ****                                               (CY_SYS_CLK_XTAL_CLK_DIV_CONFIG_REG & ((uint32) ~CY_S
 805:.\Generated_Source\PSoC4/CyLib.c **** 
 806:.\Generated_Source\PSoC4/CyLib.c ****         CyExitCriticalSection(interruptState);
 807:.\Generated_Source\PSoC4/CyLib.c ****     }
 808:.\Generated_Source\PSoC4/CyLib.c **** #endif /* (CY_PSOC4_4100BL || CY_PSOC4_4200BL) */
 809:.\Generated_Source\PSoC4/CyLib.c **** 
 810:.\Generated_Source\PSoC4/CyLib.c **** 
 811:.\Generated_Source\PSoC4/CyLib.c **** #if (CY_IP_WCO)
ARM GAS  C:\Users\Pablo\AppData\Local\Temp\ccDGsedh.s 			page 19


 812:.\Generated_Source\PSoC4/CyLib.c ****     /*******************************************************************************
 813:.\Generated_Source\PSoC4/CyLib.c ****     * Function Name: CySysClkWcoStart
 814:.\Generated_Source\PSoC4/CyLib.c ****     ********************************************************************************
 815:.\Generated_Source\PSoC4/CyLib.c ****     *
 816:.\Generated_Source\PSoC4/CyLib.c ****     * Summary:
 817:.\Generated_Source\PSoC4/CyLib.c ****     *  Enables the Watch Crystal Oscillator (WCO). The WCO is used as a source for
 818:.\Generated_Source\PSoC4/CyLib.c ****     *  LFCLK.  Similar to ILO, WCO is also available in all modes except Hibernate
 819:.\Generated_Source\PSoC4/CyLib.c ****     *  and Stop modes.
 820:.\Generated_Source\PSoC4/CyLib.c ****     *
 821:.\Generated_Source\PSoC4/CyLib.c ****     *  The WCO is always enabled in High Power Mode (HPM). Refer to the device
 822:.\Generated_Source\PSoC4/CyLib.c ****     *  datasheet for the  WCO startup time. Once WCO becomes stable it can be
 823:.\Generated_Source\PSoC4/CyLib.c ****     *  switched to the Low Power Mode (LPM). Note that oscillator can be unstable
 824:.\Generated_Source\PSoC4/CyLib.c ****     *  during switch and hence its output should not be used at the moment.
 825:.\Generated_Source\PSoC4/CyLib.c ****     *
 826:.\Generated_Source\PSoC4/CyLib.c ****     *  The CySysClkWcoSetPowerMode() function configures WCO power mode.
 827:.\Generated_Source\PSoC4/CyLib.c ****     *
 828:.\Generated_Source\PSoC4/CyLib.c ****     * Parameters:
 829:.\Generated_Source\PSoC4/CyLib.c ****     *  None
 830:.\Generated_Source\PSoC4/CyLib.c ****     *
 831:.\Generated_Source\PSoC4/CyLib.c ****     * Return:
 832:.\Generated_Source\PSoC4/CyLib.c ****     *  None
 833:.\Generated_Source\PSoC4/CyLib.c ****     *
 834:.\Generated_Source\PSoC4/CyLib.c ****     *******************************************************************************/
 835:.\Generated_Source\PSoC4/CyLib.c ****     void CySysClkWcoStart(void)
 836:.\Generated_Source\PSoC4/CyLib.c ****     {
 837:.\Generated_Source\PSoC4/CyLib.c ****         CySysClkWcoSetHighPowerMode();
 838:.\Generated_Source\PSoC4/CyLib.c ****         CY_SYS_CLK_WCO_CONFIG_REG |= CY_SYS_CLK_WCO_CONFIG_LPM_ENABLE;
 839:.\Generated_Source\PSoC4/CyLib.c ****     }
 840:.\Generated_Source\PSoC4/CyLib.c **** 
 841:.\Generated_Source\PSoC4/CyLib.c **** 
 842:.\Generated_Source\PSoC4/CyLib.c ****     /*******************************************************************************
 843:.\Generated_Source\PSoC4/CyLib.c ****     * Function Name: CySysClkWcoStop
 844:.\Generated_Source\PSoC4/CyLib.c ****     ********************************************************************************
 845:.\Generated_Source\PSoC4/CyLib.c ****     *
 846:.\Generated_Source\PSoC4/CyLib.c ****     * Summary:
 847:.\Generated_Source\PSoC4/CyLib.c ****     *  Disables the 32KHz Crystal Oscillator.
 848:.\Generated_Source\PSoC4/CyLib.c ****     *
 849:.\Generated_Source\PSoC4/CyLib.c ****     * Parameters:
 850:.\Generated_Source\PSoC4/CyLib.c ****     *  None
 851:.\Generated_Source\PSoC4/CyLib.c ****     *
 852:.\Generated_Source\PSoC4/CyLib.c ****     * Return:
 853:.\Generated_Source\PSoC4/CyLib.c ****     *  None
 854:.\Generated_Source\PSoC4/CyLib.c ****     *
 855:.\Generated_Source\PSoC4/CyLib.c ****     *******************************************************************************/
 856:.\Generated_Source\PSoC4/CyLib.c ****     void  CySysClkWcoStop(void)
 857:.\Generated_Source\PSoC4/CyLib.c ****     {
 858:.\Generated_Source\PSoC4/CyLib.c ****         uint8  interruptState;
 859:.\Generated_Source\PSoC4/CyLib.c **** 
 860:.\Generated_Source\PSoC4/CyLib.c ****         if (0u != CySysClkWcoEnabled())
 861:.\Generated_Source\PSoC4/CyLib.c ****         {
 862:.\Generated_Source\PSoC4/CyLib.c **** 
 863:.\Generated_Source\PSoC4/CyLib.c ****             if (CY_SYS_CLK_LFCLK_SRC_WCO == CySysClkGetLfclkSource())
 864:.\Generated_Source\PSoC4/CyLib.c ****             {
 865:.\Generated_Source\PSoC4/CyLib.c ****                 interruptState = CyEnterCriticalSection();
 866:.\Generated_Source\PSoC4/CyLib.c ****                 CySysClkLfclkPosedgeCatch();
 867:.\Generated_Source\PSoC4/CyLib.c ****                 CY_SYS_CLK_WCO_CONFIG_REG &= (uint32) ~CY_SYS_CLK_WCO_CONFIG_LPM_ENABLE;
 868:.\Generated_Source\PSoC4/CyLib.c ****                 CySysClkLfclkPosedgeRestore();
ARM GAS  C:\Users\Pablo\AppData\Local\Temp\ccDGsedh.s 			page 20


 869:.\Generated_Source\PSoC4/CyLib.c ****                 CyExitCriticalSection(interruptState);
 870:.\Generated_Source\PSoC4/CyLib.c ****             }
 871:.\Generated_Source\PSoC4/CyLib.c ****             else /* Safe to disable - shortened pulse does not impact peripheral */
 872:.\Generated_Source\PSoC4/CyLib.c ****             {
 873:.\Generated_Source\PSoC4/CyLib.c ****                 CY_SYS_CLK_WCO_CONFIG_REG &= (uint32) ~CY_SYS_CLK_WCO_CONFIG_LPM_ENABLE;
 874:.\Generated_Source\PSoC4/CyLib.c ****             }
 875:.\Generated_Source\PSoC4/CyLib.c ****         } /* Otherwise do nothing. WCO configuration cannot be changed. */
 876:.\Generated_Source\PSoC4/CyLib.c ****     }
 877:.\Generated_Source\PSoC4/CyLib.c **** 
 878:.\Generated_Source\PSoC4/CyLib.c **** 
 879:.\Generated_Source\PSoC4/CyLib.c ****     /*******************************************************************************
 880:.\Generated_Source\PSoC4/CyLib.c ****     * Function Name: CySysClkWcoEnabled
 881:.\Generated_Source\PSoC4/CyLib.c ****     ********************************************************************************
 882:.\Generated_Source\PSoC4/CyLib.c ****     *
 883:.\Generated_Source\PSoC4/CyLib.c ****     * Summary:
 884:.\Generated_Source\PSoC4/CyLib.c ****     *  Reports WCO enable state.
 885:.\Generated_Source\PSoC4/CyLib.c ****     *
 886:.\Generated_Source\PSoC4/CyLib.c ****     * Parameters:
 887:.\Generated_Source\PSoC4/CyLib.c ****     *  None
 888:.\Generated_Source\PSoC4/CyLib.c ****     *
 889:.\Generated_Source\PSoC4/CyLib.c ****     * Return:
 890:.\Generated_Source\PSoC4/CyLib.c ****     *  1 if WCO is enabled, and 0 if WCO is disabled.
 891:.\Generated_Source\PSoC4/CyLib.c ****     *
 892:.\Generated_Source\PSoC4/CyLib.c ****     *******************************************************************************/
 893:.\Generated_Source\PSoC4/CyLib.c ****     static uint32 CySysClkWcoEnabled(void)
 894:.\Generated_Source\PSoC4/CyLib.c ****     {
 895:.\Generated_Source\PSoC4/CyLib.c ****         return ((0u != (CY_SYS_CLK_WCO_CONFIG_REG & (uint32)(CY_SYS_CLK_WCO_CONFIG_LPM_ENABLE))) ?
 896:.\Generated_Source\PSoC4/CyLib.c ****                 (uint32) 1u :
 897:.\Generated_Source\PSoC4/CyLib.c ****                 (uint32) 0u);
 898:.\Generated_Source\PSoC4/CyLib.c ****     }
 899:.\Generated_Source\PSoC4/CyLib.c **** 
 900:.\Generated_Source\PSoC4/CyLib.c **** 
 901:.\Generated_Source\PSoC4/CyLib.c ****     /*******************************************************************************
 902:.\Generated_Source\PSoC4/CyLib.c ****     * Function Name: CySysClkWcoSetPowerMode
 903:.\Generated_Source\PSoC4/CyLib.c ****     ********************************************************************************
 904:.\Generated_Source\PSoC4/CyLib.c ****     *
 905:.\Generated_Source\PSoC4/CyLib.c ****     * Summary:
 906:.\Generated_Source\PSoC4/CyLib.c ****     *  Sets the power mode for the 32 KHz WCO.
 907:.\Generated_Source\PSoC4/CyLib.c ****     *
 908:.\Generated_Source\PSoC4/CyLib.c ****     * Parameters:
 909:.\Generated_Source\PSoC4/CyLib.c ****     *  uint32 mode:
 910:.\Generated_Source\PSoC4/CyLib.c ****     *   CY_SYS_CLK_WCO_HPM  - High power mode
 911:.\Generated_Source\PSoC4/CyLib.c ****     *   CY_SYS_CLK_WCO_LPM  - Low power mode
 912:.\Generated_Source\PSoC4/CyLib.c ****     *
 913:.\Generated_Source\PSoC4/CyLib.c ****     * Return:
 914:.\Generated_Source\PSoC4/CyLib.c ****     *  Previous power mode. The same as parameters.
 915:.\Generated_Source\PSoC4/CyLib.c ****     *
 916:.\Generated_Source\PSoC4/CyLib.c ****     *******************************************************************************/
 917:.\Generated_Source\PSoC4/CyLib.c ****     uint32 CySysClkWcoSetPowerMode(uint32 mode)
 918:.\Generated_Source\PSoC4/CyLib.c ****     {
 919:.\Generated_Source\PSoC4/CyLib.c ****         uint32 status;
 920:.\Generated_Source\PSoC4/CyLib.c **** 
 921:.\Generated_Source\PSoC4/CyLib.c ****         status = CY_SYS_CLK_WCO_CONFIG_REG & CY_SYS_CLK_WCO_LPM;
 922:.\Generated_Source\PSoC4/CyLib.c **** 
 923:.\Generated_Source\PSoC4/CyLib.c ****         switch(mode)
 924:.\Generated_Source\PSoC4/CyLib.c ****         {
 925:.\Generated_Source\PSoC4/CyLib.c ****         case CY_SYS_CLK_WCO_HPM:
ARM GAS  C:\Users\Pablo\AppData\Local\Temp\ccDGsedh.s 			page 21


 926:.\Generated_Source\PSoC4/CyLib.c ****                 CySysClkWcoSetHighPowerMode();
 927:.\Generated_Source\PSoC4/CyLib.c ****             break;
 928:.\Generated_Source\PSoC4/CyLib.c **** 
 929:.\Generated_Source\PSoC4/CyLib.c ****         case CY_SYS_CLK_WCO_LPM:
 930:.\Generated_Source\PSoC4/CyLib.c ****                 CySysClkWcoSetLowPowerMode();
 931:.\Generated_Source\PSoC4/CyLib.c ****             break;
 932:.\Generated_Source\PSoC4/CyLib.c **** 
 933:.\Generated_Source\PSoC4/CyLib.c ****         default:
 934:.\Generated_Source\PSoC4/CyLib.c ****             CYASSERT(0u != 0u);
 935:.\Generated_Source\PSoC4/CyLib.c ****             break;
 936:.\Generated_Source\PSoC4/CyLib.c ****         }
 937:.\Generated_Source\PSoC4/CyLib.c **** 
 938:.\Generated_Source\PSoC4/CyLib.c ****         return (status);
 939:.\Generated_Source\PSoC4/CyLib.c ****     }
 940:.\Generated_Source\PSoC4/CyLib.c **** 
 941:.\Generated_Source\PSoC4/CyLib.c **** #endif  /* (CY_IP_WCO) */
 942:.\Generated_Source\PSoC4/CyLib.c **** 
 943:.\Generated_Source\PSoC4/CyLib.c **** 
 944:.\Generated_Source\PSoC4/CyLib.c **** #if(CY_IP_SRSSV2)
 945:.\Generated_Source\PSoC4/CyLib.c **** 
 946:.\Generated_Source\PSoC4/CyLib.c **** 
 947:.\Generated_Source\PSoC4/CyLib.c ****     /*******************************************************************************
 948:.\Generated_Source\PSoC4/CyLib.c ****     * Function Name: CySysWdtLock
 949:.\Generated_Source\PSoC4/CyLib.c ****     ********************************************************************************
 950:.\Generated_Source\PSoC4/CyLib.c ****     *
 951:.\Generated_Source\PSoC4/CyLib.c ****     * Summary:
 952:.\Generated_Source\PSoC4/CyLib.c ****     *  Locks out configuration changes to the Watchdog timer registers and ILO
 953:.\Generated_Source\PSoC4/CyLib.c ****     *  configuration register.
 954:.\Generated_Source\PSoC4/CyLib.c ****     *
 955:.\Generated_Source\PSoC4/CyLib.c ****     * Parameters:
 956:.\Generated_Source\PSoC4/CyLib.c ****     *  None
 957:.\Generated_Source\PSoC4/CyLib.c ****     *
 958:.\Generated_Source\PSoC4/CyLib.c ****     * Return:
 959:.\Generated_Source\PSoC4/CyLib.c ****     *  None
 960:.\Generated_Source\PSoC4/CyLib.c ****     *
 961:.\Generated_Source\PSoC4/CyLib.c ****     * Side effects:
 962:.\Generated_Source\PSoC4/CyLib.c ****     *  After this function was called, ILO clock can't be disabled until
 963:.\Generated_Source\PSoC4/CyLib.c ****     *  CySysWdtUnlock() is called.
 964:.\Generated_Source\PSoC4/CyLib.c ****     *
 965:.\Generated_Source\PSoC4/CyLib.c ****     *******************************************************************************/
 966:.\Generated_Source\PSoC4/CyLib.c ****     void CySysWdtLock(void)
 967:.\Generated_Source\PSoC4/CyLib.c ****     {
 209              		.loc 1 967 0
 210              		.cfi_startproc
 211 0000 08B5     		push	{r3, lr}
 212              		.cfi_def_cfa_offset 8
 213              		.cfi_offset 3, -8
 214              		.cfi_offset 14, -4
 968:.\Generated_Source\PSoC4/CyLib.c ****         uint8 interruptState;
 969:.\Generated_Source\PSoC4/CyLib.c ****         interruptState = CyEnterCriticalSection();
 215              		.loc 1 969 0
 216 0002 FFF7FEFF 		bl	CyEnterCriticalSection
 217              	.LVL8:
 970:.\Generated_Source\PSoC4/CyLib.c **** 
 971:.\Generated_Source\PSoC4/CyLib.c ****         CY_SYS_CLK_SELECT_REG = (CY_SYS_CLK_SELECT_REG & (uint32)(~CY_SYS_WDT_CLK_LOCK_BITS_MASK)) 
 218              		.loc 1 971 0
 219 0006 044B     		ldr	r3, .L17
ARM GAS  C:\Users\Pablo\AppData\Local\Temp\ccDGsedh.s 			page 22


 220 0008 C022     		mov	r2, #192
 221 000a 1968     		ldr	r1, [r3]
 222 000c 1202     		lsl	r2, r2, #8
 223 000e 0A43     		orr	r2, r1
 224 0010 1A60     		str	r2, [r3]
 972:.\Generated_Source\PSoC4/CyLib.c ****                  CY_SYS_WDT_CLK_LOCK_BITS_MASK;
 973:.\Generated_Source\PSoC4/CyLib.c **** 
 974:.\Generated_Source\PSoC4/CyLib.c ****         CyExitCriticalSection(interruptState);
 225              		.loc 1 974 0
 226 0012 FFF7FEFF 		bl	CyExitCriticalSection
 227              	.LVL9:
 975:.\Generated_Source\PSoC4/CyLib.c ****     }
 228              		.loc 1 975 0
 229              		@ sp needed
 230 0016 08BD     		pop	{r3, pc}
 231              	.L18:
 232              		.align	2
 233              	.L17:
 234 0018 00010B40 		.word	1074462976
 235              		.cfi_endproc
 236              	.LFE8:
 237              		.size	CySysWdtLock, .-CySysWdtLock
 238              		.section	.text.CySysWdtUnlock,"ax",%progbits
 239              		.align	1
 240              		.global	CySysWdtUnlock
 241              		.code	16
 242              		.thumb_func
 243              		.type	CySysWdtUnlock, %function
 244              	CySysWdtUnlock:
 245              	.LFB10:
 976:.\Generated_Source\PSoC4/CyLib.c **** 
 977:.\Generated_Source\PSoC4/CyLib.c **** 
 978:.\Generated_Source\PSoC4/CyLib.c ****     /*******************************************************************************
 979:.\Generated_Source\PSoC4/CyLib.c ****     * Function Name: CySysWdtLocked
 980:.\Generated_Source\PSoC4/CyLib.c ****     ********************************************************************************
 981:.\Generated_Source\PSoC4/CyLib.c ****     *
 982:.\Generated_Source\PSoC4/CyLib.c ****     * Summary:
 983:.\Generated_Source\PSoC4/CyLib.c ****     *  Reports WDT lock state.
 984:.\Generated_Source\PSoC4/CyLib.c ****     *
 985:.\Generated_Source\PSoC4/CyLib.c ****     * Parameters:
 986:.\Generated_Source\PSoC4/CyLib.c ****     *  None
 987:.\Generated_Source\PSoC4/CyLib.c ****     *
 988:.\Generated_Source\PSoC4/CyLib.c ****     * Return:
 989:.\Generated_Source\PSoC4/CyLib.c ****     *  1 - WDT is locked, and 0 - WDT is unlocked.
 990:.\Generated_Source\PSoC4/CyLib.c ****     *
 991:.\Generated_Source\PSoC4/CyLib.c ****     *******************************************************************************/
 992:.\Generated_Source\PSoC4/CyLib.c ****     static uint32 CySysWdtLocked(void)
 993:.\Generated_Source\PSoC4/CyLib.c ****     {
 994:.\Generated_Source\PSoC4/CyLib.c ****         /* Prohibits writing to WDT registers and ILO/WCO registers when not equal 0 */
 995:.\Generated_Source\PSoC4/CyLib.c ****         return ((0u != (CY_SYS_CLK_SELECT_REG & (uint32)(CY_SYS_WDT_CLK_LOCK_BITS_MASK))) ? (uint32
 996:.\Generated_Source\PSoC4/CyLib.c ****     }
 997:.\Generated_Source\PSoC4/CyLib.c **** 
 998:.\Generated_Source\PSoC4/CyLib.c **** 
 999:.\Generated_Source\PSoC4/CyLib.c ****     /*******************************************************************************
1000:.\Generated_Source\PSoC4/CyLib.c ****     * Function Name: CySysWdtUnlock
1001:.\Generated_Source\PSoC4/CyLib.c ****     ********************************************************************************
1002:.\Generated_Source\PSoC4/CyLib.c ****     *
ARM GAS  C:\Users\Pablo\AppData\Local\Temp\ccDGsedh.s 			page 23


1003:.\Generated_Source\PSoC4/CyLib.c ****     * Summary:
1004:.\Generated_Source\PSoC4/CyLib.c ****     *  Unlocks the Watchdog Timer configuration register.
1005:.\Generated_Source\PSoC4/CyLib.c ****     *
1006:.\Generated_Source\PSoC4/CyLib.c ****     * Parameters:
1007:.\Generated_Source\PSoC4/CyLib.c ****     *  None
1008:.\Generated_Source\PSoC4/CyLib.c ****     *
1009:.\Generated_Source\PSoC4/CyLib.c ****     * Return:
1010:.\Generated_Source\PSoC4/CyLib.c ****     *  None
1011:.\Generated_Source\PSoC4/CyLib.c ****     *
1012:.\Generated_Source\PSoC4/CyLib.c ****     *******************************************************************************/
1013:.\Generated_Source\PSoC4/CyLib.c ****     void CySysWdtUnlock(void)
1014:.\Generated_Source\PSoC4/CyLib.c ****     {
 246              		.loc 1 1014 0
 247              		.cfi_startproc
 248 0000 10B5     		push	{r4, lr}
 249              		.cfi_def_cfa_offset 8
 250              		.cfi_offset 4, -8
 251              		.cfi_offset 14, -4
1015:.\Generated_Source\PSoC4/CyLib.c ****         uint8 interruptState;
1016:.\Generated_Source\PSoC4/CyLib.c ****         interruptState = CyEnterCriticalSection();
 252              		.loc 1 1016 0
 253 0002 FFF7FEFF 		bl	CyEnterCriticalSection
 254              	.LVL10:
1017:.\Generated_Source\PSoC4/CyLib.c **** 
1018:.\Generated_Source\PSoC4/CyLib.c ****         /* Removing WDT lock requires two writes */
1019:.\Generated_Source\PSoC4/CyLib.c ****         CY_SYS_CLK_SELECT_REG = ((CY_SYS_CLK_SELECT_REG & (uint32)(~CY_SYS_WDT_CLK_LOCK_BITS_MASK))
 255              		.loc 1 1019 0
 256 0006 084B     		ldr	r3, .L20
 257 0008 084A     		ldr	r2, .L20+4
 258 000a 1968     		ldr	r1, [r3]
 259 000c 8024     		mov	r4, #128
 260 000e 1140     		and	r1, r2
 261 0010 E401     		lsl	r4, r4, #7
 262 0012 2143     		orr	r1, r4
 263 0014 1960     		str	r1, [r3]
1020:.\Generated_Source\PSoC4/CyLib.c ****                 CY_SYS_WDT_CLK_LOCK_BIT0);
1021:.\Generated_Source\PSoC4/CyLib.c **** 
1022:.\Generated_Source\PSoC4/CyLib.c ****         CY_SYS_CLK_SELECT_REG = ((CY_SYS_CLK_SELECT_REG & (uint32)(~CY_SYS_WDT_CLK_LOCK_BITS_MASK))
 264              		.loc 1 1022 0
 265 0016 1968     		ldr	r1, [r3]
1023:.\Generated_Source\PSoC4/CyLib.c ****                 CY_SYS_WDT_CLK_LOCK_BIT1);
1024:.\Generated_Source\PSoC4/CyLib.c **** 
1025:.\Generated_Source\PSoC4/CyLib.c ****         CyExitCriticalSection(interruptState);
1026:.\Generated_Source\PSoC4/CyLib.c ****     }
 266              		.loc 1 1026 0
 267              		@ sp needed
1022:.\Generated_Source\PSoC4/CyLib.c ****         CY_SYS_CLK_SELECT_REG = ((CY_SYS_CLK_SELECT_REG & (uint32)(~CY_SYS_WDT_CLK_LOCK_BITS_MASK))
 268              		.loc 1 1022 0
 269 0018 0A40     		and	r2, r1
 270 001a 8021     		mov	r1, #128
 271 001c 0902     		lsl	r1, r1, #8
 272 001e 0A43     		orr	r2, r1
 273 0020 1A60     		str	r2, [r3]
1025:.\Generated_Source\PSoC4/CyLib.c ****         CyExitCriticalSection(interruptState);
 274              		.loc 1 1025 0
 275 0022 FFF7FEFF 		bl	CyExitCriticalSection
 276              	.LVL11:
ARM GAS  C:\Users\Pablo\AppData\Local\Temp\ccDGsedh.s 			page 24


 277              		.loc 1 1026 0
 278 0026 10BD     		pop	{r4, pc}
 279              	.L21:
 280              		.align	2
 281              	.L20:
 282 0028 00010B40 		.word	1074462976
 283 002c FF3FFFFF 		.word	-49153
 284              		.cfi_endproc
 285              	.LFE10:
 286              		.size	CySysWdtUnlock, .-CySysWdtUnlock
 287              		.section	.text.CySysWdtReadEnabledStatus,"ax",%progbits
 288              		.align	1
 289              		.global	CySysWdtReadEnabledStatus
 290              		.code	16
 291              		.thumb_func
 292              		.type	CySysWdtReadEnabledStatus, %function
 293              	CySysWdtReadEnabledStatus:
 294              	.LFB11:
1027:.\Generated_Source\PSoC4/CyLib.c **** 
1028:.\Generated_Source\PSoC4/CyLib.c **** 
1029:.\Generated_Source\PSoC4/CyLib.c ****     /*******************************************************************************
1030:.\Generated_Source\PSoC4/CyLib.c ****     * Function Name: CySysWdtReadEnabledStatus
1031:.\Generated_Source\PSoC4/CyLib.c ****     ********************************************************************************
1032:.\Generated_Source\PSoC4/CyLib.c ****     *
1033:.\Generated_Source\PSoC4/CyLib.c ****     * Summary:
1034:.\Generated_Source\PSoC4/CyLib.c ****     *  Reads the enabled status of one of the three WDT counters.
1035:.\Generated_Source\PSoC4/CyLib.c ****     *
1036:.\Generated_Source\PSoC4/CyLib.c ****     * Parameters:
1037:.\Generated_Source\PSoC4/CyLib.c ****     *  counterNum: Valid range [0-2].  Number of the WDT counter.
1038:.\Generated_Source\PSoC4/CyLib.c ****     *
1039:.\Generated_Source\PSoC4/CyLib.c ****     * Return:
1040:.\Generated_Source\PSoC4/CyLib.c ****     *  Status of WDT counter:
1041:.\Generated_Source\PSoC4/CyLib.c ****     *   0 - counter is disabled
1042:.\Generated_Source\PSoC4/CyLib.c ****     *   1 - counter is enabled
1043:.\Generated_Source\PSoC4/CyLib.c ****     *
1044:.\Generated_Source\PSoC4/CyLib.c ****     * Side Effects:
1045:.\Generated_Source\PSoC4/CyLib.c ****     *  This function returns actual WDT counter status from status register. It may
1046:.\Generated_Source\PSoC4/CyLib.c ****     *  take up to 3 LFCLK cycles since WDT counter was enabled for WDT status
1047:.\Generated_Source\PSoC4/CyLib.c ****     *  register to contain actual data.
1048:.\Generated_Source\PSoC4/CyLib.c ****     *
1049:.\Generated_Source\PSoC4/CyLib.c ****     *******************************************************************************/
1050:.\Generated_Source\PSoC4/CyLib.c ****     uint32 CySysWdtReadEnabledStatus(uint32 counterNum)
1051:.\Generated_Source\PSoC4/CyLib.c ****     {
 295              		.loc 1 1051 0
 296              		.cfi_startproc
 297              	.LVL12:
1052:.\Generated_Source\PSoC4/CyLib.c ****         CYASSERT(counterNum < CY_SYS_WDT_COUNTERS_MAX);
1053:.\Generated_Source\PSoC4/CyLib.c ****         return ((CY_SYS_WDT_CONTROL_REG >> ((CY_SYS_WDT_CNT_SHIFT * counterNum) + CY_SYS_WDT_CNT_ST
 298              		.loc 1 1053 0
 299 0000 044B     		ldr	r3, .L23
 300 0002 C000     		lsl	r0, r0, #3
 301              	.LVL13:
 302 0004 1B68     		ldr	r3, [r3]
 303 0006 0130     		add	r0, r0, #1
 304 0008 C340     		lsr	r3, r3, r0
 305 000a 181C     		mov	r0, r3
 306 000c 0123     		mov	r3, #1
ARM GAS  C:\Users\Pablo\AppData\Local\Temp\ccDGsedh.s 			page 25


 307 000e 1840     		and	r0, r3
1054:.\Generated_Source\PSoC4/CyLib.c ****     }
 308              		.loc 1 1054 0
 309              		@ sp needed
 310 0010 7047     		bx	lr
 311              	.L24:
 312 0012 C046     		.align	2
 313              	.L23:
 314 0014 10020B40 		.word	1074463248
 315              		.cfi_endproc
 316              	.LFE11:
 317              		.size	CySysWdtReadEnabledStatus, .-CySysWdtReadEnabledStatus
 318              		.section	.text.CySysWdtWriteMode,"ax",%progbits
 319              		.align	1
 320              		.global	CySysWdtWriteMode
 321              		.code	16
 322              		.thumb_func
 323              		.type	CySysWdtWriteMode, %function
 324              	CySysWdtWriteMode:
 325              	.LFB12:
1055:.\Generated_Source\PSoC4/CyLib.c **** 
1056:.\Generated_Source\PSoC4/CyLib.c **** 
1057:.\Generated_Source\PSoC4/CyLib.c ****     /*******************************************************************************
1058:.\Generated_Source\PSoC4/CyLib.c ****     * Function Name: CySysWdtWriteMode
1059:.\Generated_Source\PSoC4/CyLib.c ****     ********************************************************************************
1060:.\Generated_Source\PSoC4/CyLib.c ****     *
1061:.\Generated_Source\PSoC4/CyLib.c ****     * Summary:
1062:.\Generated_Source\PSoC4/CyLib.c ****     *   Writes the mode of one of the three WDT counters.
1063:.\Generated_Source\PSoC4/CyLib.c ****     *
1064:.\Generated_Source\PSoC4/CyLib.c ****     * Parameters:
1065:.\Generated_Source\PSoC4/CyLib.c ****     *   counterNum: Valid range [0-2].  Number of the WDT counter.
1066:.\Generated_Source\PSoC4/CyLib.c ****     *   mode:       Mode of operation for the counter
1067:.\Generated_Source\PSoC4/CyLib.c ****     *       Define                   Mode
1068:.\Generated_Source\PSoC4/CyLib.c ****     *    CY_SYS_WDT_MODE_NONE       Free running
1069:.\Generated_Source\PSoC4/CyLib.c ****     *    CY_SYS_WDT_MODE_INT        Interrupt generated on match for counter 0
1070:.\Generated_Source\PSoC4/CyLib.c ****     *                               and 1, and on bit toggle for counter 2.
1071:.\Generated_Source\PSoC4/CyLib.c ****     *    CY_SYS_WDT_MODE_RESET      Reset on match (valid for counter 0 and 1
1072:.\Generated_Source\PSoC4/CyLib.c ****     *                               only)
1073:.\Generated_Source\PSoC4/CyLib.c ****     *    CY_SYS_WDT_MODE_INT_RESET  Generate an interrupt.  Generate a reset on
1074:.\Generated_Source\PSoC4/CyLib.c ****     *                                    the 3rd unhandled interrupt.
1075:.\Generated_Source\PSoC4/CyLib.c ****     *                                    (valid for counter 0 and 1 only)
1076:.\Generated_Source\PSoC4/CyLib.c ****     * Return:
1077:.\Generated_Source\PSoC4/CyLib.c ****     *   None
1078:.\Generated_Source\PSoC4/CyLib.c ****     *
1079:.\Generated_Source\PSoC4/CyLib.c ****     * Side Effects:
1080:.\Generated_Source\PSoC4/CyLib.c ****     *   WDT counter counterNum should be disabled to set mode. Otherwise this
1081:.\Generated_Source\PSoC4/CyLib.c ****     *   function call will have no effect. If the specified counter is enabled,
1082:.\Generated_Source\PSoC4/CyLib.c ****     *   call CySysWdtDisable() function with the corresponding parameter to
1083:.\Generated_Source\PSoC4/CyLib.c ****     *   disable specified counter and wait for it to stop.
1084:.\Generated_Source\PSoC4/CyLib.c ****     *
1085:.\Generated_Source\PSoC4/CyLib.c ****     *******************************************************************************/
1086:.\Generated_Source\PSoC4/CyLib.c ****     void CySysWdtWriteMode(uint32 counterNum, uint32 mode)
1087:.\Generated_Source\PSoC4/CyLib.c ****     {
 326              		.loc 1 1087 0
 327              		.cfi_startproc
 328              	.LVL14:
 329 0000 38B5     		push	{r3, r4, r5, lr}
ARM GAS  C:\Users\Pablo\AppData\Local\Temp\ccDGsedh.s 			page 26


 330              		.cfi_def_cfa_offset 16
 331              		.cfi_offset 3, -16
 332              		.cfi_offset 4, -12
 333              		.cfi_offset 5, -8
 334              		.cfi_offset 14, -4
 335              		.loc 1 1087 0
 336 0002 041C     		mov	r4, r0
 337 0004 0D1C     		mov	r5, r1
1088:.\Generated_Source\PSoC4/CyLib.c ****         uint32 configRegValue;
1089:.\Generated_Source\PSoC4/CyLib.c **** 
1090:.\Generated_Source\PSoC4/CyLib.c ****         CYASSERT(counterNum < CY_SYS_WDT_COUNTERS_MAX);
1091:.\Generated_Source\PSoC4/CyLib.c **** 
1092:.\Generated_Source\PSoC4/CyLib.c ****         if(0u == CySysWdtReadEnabledStatus(counterNum))
 338              		.loc 1 1092 0
 339 0006 FFF7FEFF 		bl	CySysWdtReadEnabledStatus
 340              	.LVL15:
 341 000a 0028     		cmp	r0, #0
 342 000c 0BD1     		bne	.L25
 343              	.LVL16:
 344              	.LBB8:
 345              	.LBB9:
1093:.\Generated_Source\PSoC4/CyLib.c ****         {
1094:.\Generated_Source\PSoC4/CyLib.c ****             configRegValue = CY_SYS_WDT_CONFIG_REG &
 346              		.loc 1 1094 0
 347 000e 064B     		ldr	r3, .L28
1095:.\Generated_Source\PSoC4/CyLib.c ****                                 (uint32)~((uint32)(CY_SYS_WDT_MODE_MASK << (counterNum * CY_SYS_WDT
 348              		.loc 1 1095 0
 349 0010 0322     		mov	r2, #3
 350 0012 E400     		lsl	r4, r4, #3
 351              	.LVL17:
1094:.\Generated_Source\PSoC4/CyLib.c ****             configRegValue = CY_SYS_WDT_CONFIG_REG &
 352              		.loc 1 1094 0
 353 0014 1968     		ldr	r1, [r3]
 354              		.loc 1 1095 0
 355 0016 101C     		mov	r0, r2
 356 0018 A040     		lsl	r0, r0, r4
1094:.\Generated_Source\PSoC4/CyLib.c ****             configRegValue = CY_SYS_WDT_CONFIG_REG &
 357              		.loc 1 1094 0
 358 001a 8143     		bic	r1, r0
 359              	.LVL18:
1096:.\Generated_Source\PSoC4/CyLib.c ****             configRegValue |= (uint32)((mode & CY_SYS_WDT_MODE_MASK) << (counterNum * CY_SYS_WDT_CN
 360              		.loc 1 1096 0
 361 001c 1540     		and	r5, r2
 362              	.LVL19:
 363 001e A540     		lsl	r5, r5, r4
 364 0020 0C1C     		mov	r4, r1
 365 0022 2C43     		orr	r4, r5
 366              	.LVL20:
1097:.\Generated_Source\PSoC4/CyLib.c ****             CY_SYS_WDT_CONFIG_REG = configRegValue;
 367              		.loc 1 1097 0
 368 0024 1C60     		str	r4, [r3]
 369              	.LVL21:
 370              	.L25:
 371              	.LBE9:
 372              	.LBE8:
1098:.\Generated_Source\PSoC4/CyLib.c ****         }
1099:.\Generated_Source\PSoC4/CyLib.c ****     }
ARM GAS  C:\Users\Pablo\AppData\Local\Temp\ccDGsedh.s 			page 27


 373              		.loc 1 1099 0
 374              		@ sp needed
 375 0026 38BD     		pop	{r3, r4, r5, pc}
 376              	.L29:
 377              		.align	2
 378              	.L28:
 379 0028 0C020B40 		.word	1074463244
 380              		.cfi_endproc
 381              	.LFE12:
 382              		.size	CySysWdtWriteMode, .-CySysWdtWriteMode
 383              		.section	.text.CySysWdtReadMode,"ax",%progbits
 384              		.align	1
 385              		.global	CySysWdtReadMode
 386              		.code	16
 387              		.thumb_func
 388              		.type	CySysWdtReadMode, %function
 389              	CySysWdtReadMode:
 390              	.LFB13:
1100:.\Generated_Source\PSoC4/CyLib.c **** 
1101:.\Generated_Source\PSoC4/CyLib.c **** 
1102:.\Generated_Source\PSoC4/CyLib.c ****     /*******************************************************************************
1103:.\Generated_Source\PSoC4/CyLib.c ****     * Function Name: CySysWdtReadMode
1104:.\Generated_Source\PSoC4/CyLib.c ****     ********************************************************************************
1105:.\Generated_Source\PSoC4/CyLib.c ****     *
1106:.\Generated_Source\PSoC4/CyLib.c ****     * Summary:
1107:.\Generated_Source\PSoC4/CyLib.c ****     *  Reads the mode of one of the three WDT counters.
1108:.\Generated_Source\PSoC4/CyLib.c ****     *
1109:.\Generated_Source\PSoC4/CyLib.c ****     * Parameters:
1110:.\Generated_Source\PSoC4/CyLib.c ****     *  counterNum: Valid range [0-2].  Number of the WDT counter.
1111:.\Generated_Source\PSoC4/CyLib.c ****     *
1112:.\Generated_Source\PSoC4/CyLib.c ****     * Return:
1113:.\Generated_Source\PSoC4/CyLib.c ****     *  Mode of the counter.  Same enumerated values as mode parameter used in
1114:.\Generated_Source\PSoC4/CyLib.c ****     *  CySysWdtWriteMode().
1115:.\Generated_Source\PSoC4/CyLib.c ****     *
1116:.\Generated_Source\PSoC4/CyLib.c ****     *******************************************************************************/
1117:.\Generated_Source\PSoC4/CyLib.c ****     uint32 CySysWdtReadMode(uint32 counterNum)
1118:.\Generated_Source\PSoC4/CyLib.c ****     {
 391              		.loc 1 1118 0
 392              		.cfi_startproc
 393              	.LVL22:
1119:.\Generated_Source\PSoC4/CyLib.c ****         return ((CY_SYS_WDT_CONFIG_REG >> (counterNum * CY_SYS_WDT_CNT_SHIFT)) & CY_SYS_WDT_MODE_MA
 394              		.loc 1 1119 0
 395 0000 034B     		ldr	r3, .L31
 396 0002 C000     		lsl	r0, r0, #3
 397              	.LVL23:
 398 0004 1B68     		ldr	r3, [r3]
1120:.\Generated_Source\PSoC4/CyLib.c ****     }
 399              		.loc 1 1120 0
 400              		@ sp needed
1119:.\Generated_Source\PSoC4/CyLib.c ****         return ((CY_SYS_WDT_CONFIG_REG >> (counterNum * CY_SYS_WDT_CNT_SHIFT)) & CY_SYS_WDT_MODE_MA
 401              		.loc 1 1119 0
 402 0006 C340     		lsr	r3, r3, r0
 403 0008 181C     		mov	r0, r3
 404 000a 0323     		mov	r3, #3
 405 000c 1840     		and	r0, r3
 406              		.loc 1 1120 0
 407 000e 7047     		bx	lr
ARM GAS  C:\Users\Pablo\AppData\Local\Temp\ccDGsedh.s 			page 28


 408              	.L32:
 409              		.align	2
 410              	.L31:
 411 0010 0C020B40 		.word	1074463244
 412              		.cfi_endproc
 413              	.LFE13:
 414              		.size	CySysWdtReadMode, .-CySysWdtReadMode
 415              		.section	.text.CySysWdtWriteClearOnMatch,"ax",%progbits
 416              		.align	1
 417              		.global	CySysWdtWriteClearOnMatch
 418              		.code	16
 419              		.thumb_func
 420              		.type	CySysWdtWriteClearOnMatch, %function
 421              	CySysWdtWriteClearOnMatch:
 422              	.LFB14:
1121:.\Generated_Source\PSoC4/CyLib.c **** 
1122:.\Generated_Source\PSoC4/CyLib.c **** 
1123:.\Generated_Source\PSoC4/CyLib.c ****     /*******************************************************************************
1124:.\Generated_Source\PSoC4/CyLib.c ****     * Function Name: CySysWdtWriteClearOnMatch
1125:.\Generated_Source\PSoC4/CyLib.c ****     ********************************************************************************
1126:.\Generated_Source\PSoC4/CyLib.c ****     *
1127:.\Generated_Source\PSoC4/CyLib.c ****     * Summary:
1128:.\Generated_Source\PSoC4/CyLib.c ****     *  Configures the WDT counter clear on a match setting.  If configured to clear
1129:.\Generated_Source\PSoC4/CyLib.c ****     *  on match, the counter will count from 0 to the MatchValue giving it a
1130:.\Generated_Source\PSoC4/CyLib.c ****     *  period of (MatchValue + 1).
1131:.\Generated_Source\PSoC4/CyLib.c ****     *
1132:.\Generated_Source\PSoC4/CyLib.c ****     * Parameters:
1133:.\Generated_Source\PSoC4/CyLib.c ****     *  counterNum:
1134:.\Generated_Source\PSoC4/CyLib.c ****     *   Valid range [0-1].  Number of the WDT counter.  Match values are not
1135:.\Generated_Source\PSoC4/CyLib.c ****     *   supported by counter 2.
1136:.\Generated_Source\PSoC4/CyLib.c ****     *
1137:.\Generated_Source\PSoC4/CyLib.c ****     * enable:
1138:.\Generated_Source\PSoC4/CyLib.c ****     *   0 to disable, 1 to enable
1139:.\Generated_Source\PSoC4/CyLib.c ****     *
1140:.\Generated_Source\PSoC4/CyLib.c ****     * Return:
1141:.\Generated_Source\PSoC4/CyLib.c ****     *   None
1142:.\Generated_Source\PSoC4/CyLib.c ****     *
1143:.\Generated_Source\PSoC4/CyLib.c ****     * Side Effects:
1144:.\Generated_Source\PSoC4/CyLib.c ****     *   WDT counter counterNum should be disabled. Otherwise this function call will
1145:.\Generated_Source\PSoC4/CyLib.c ****     *   have no effect. If the specified counter is enabled, call CySysWdtDisable()
1146:.\Generated_Source\PSoC4/CyLib.c ****     *   function with the corresponding parameter to disable specified counter and
1147:.\Generated_Source\PSoC4/CyLib.c ****     *   wait for it to stop. This may take up to three LFCLK cycles.
1148:.\Generated_Source\PSoC4/CyLib.c ****     *
1149:.\Generated_Source\PSoC4/CyLib.c ****     *******************************************************************************/
1150:.\Generated_Source\PSoC4/CyLib.c ****     void CySysWdtWriteClearOnMatch(uint32 counterNum, uint32 enable)
1151:.\Generated_Source\PSoC4/CyLib.c ****     {
 423              		.loc 1 1151 0
 424              		.cfi_startproc
 425              	.LVL24:
 426 0000 38B5     		push	{r3, r4, r5, lr}
 427              		.cfi_def_cfa_offset 16
 428              		.cfi_offset 3, -16
 429              		.cfi_offset 4, -12
 430              		.cfi_offset 5, -8
 431              		.cfi_offset 14, -4
 432              		.loc 1 1151 0
 433 0002 041C     		mov	r4, r0
ARM GAS  C:\Users\Pablo\AppData\Local\Temp\ccDGsedh.s 			page 29


 434 0004 0D1C     		mov	r5, r1
1152:.\Generated_Source\PSoC4/CyLib.c ****         uint32 configRegValue;
1153:.\Generated_Source\PSoC4/CyLib.c **** 
1154:.\Generated_Source\PSoC4/CyLib.c ****         CYASSERT((counterNum == CY_SYS_WDT_COUNTER0) ||
1155:.\Generated_Source\PSoC4/CyLib.c ****                  (counterNum == CY_SYS_WDT_COUNTER1));
1156:.\Generated_Source\PSoC4/CyLib.c **** 
1157:.\Generated_Source\PSoC4/CyLib.c ****         if(0u == CySysWdtReadEnabledStatus(counterNum))
 435              		.loc 1 1157 0
 436 0006 FFF7FEFF 		bl	CySysWdtReadEnabledStatus
 437              	.LVL25:
 438 000a 0028     		cmp	r0, #0
 439 000c 0AD1     		bne	.L33
1158:.\Generated_Source\PSoC4/CyLib.c ****         {
1159:.\Generated_Source\PSoC4/CyLib.c ****             configRegValue = CY_SYS_WDT_CONFIG_REG &
 440              		.loc 1 1159 0
 441 000e 064B     		ldr	r3, .L35
1160:.\Generated_Source\PSoC4/CyLib.c ****                 (uint32)~((uint32)((uint32)1u << ((counterNum * CY_SYS_WDT_CNT_SHIFT) + CY_SYS_WDT_
 442              		.loc 1 1160 0
 443 0010 E400     		lsl	r4, r4, #3
 444              	.LVL26:
 445 0012 0234     		add	r4, r4, #2
1159:.\Generated_Source\PSoC4/CyLib.c ****             configRegValue = CY_SYS_WDT_CONFIG_REG &
 446              		.loc 1 1159 0
 447 0014 1A68     		ldr	r2, [r3]
 448              		.loc 1 1160 0
 449 0016 0121     		mov	r1, #1
 450 0018 A140     		lsl	r1, r1, r4
1159:.\Generated_Source\PSoC4/CyLib.c ****             configRegValue = CY_SYS_WDT_CONFIG_REG &
 451              		.loc 1 1159 0
 452 001a 8A43     		bic	r2, r1
 453              	.LVL27:
1161:.\Generated_Source\PSoC4/CyLib.c **** 
1162:.\Generated_Source\PSoC4/CyLib.c ****             configRegValue
1163:.\Generated_Source\PSoC4/CyLib.c ****                 |= (uint32)(enable << ((counterNum * CY_SYS_WDT_CNT_SHIFT) + CY_SYS_WDT_CNT_MATCH_C
 454              		.loc 1 1163 0
 455 001c A540     		lsl	r5, r5, r4
 456              	.LVL28:
 457 001e 141C     		mov	r4, r2
 458 0020 2C43     		orr	r4, r5
 459              	.LVL29:
1164:.\Generated_Source\PSoC4/CyLib.c **** 
1165:.\Generated_Source\PSoC4/CyLib.c ****             CY_SYS_WDT_CONFIG_REG = configRegValue;
 460              		.loc 1 1165 0
 461 0022 1C60     		str	r4, [r3]
 462              	.LVL30:
 463              	.L33:
1166:.\Generated_Source\PSoC4/CyLib.c ****         }
1167:.\Generated_Source\PSoC4/CyLib.c ****     }
 464              		.loc 1 1167 0
 465              		@ sp needed
 466 0024 38BD     		pop	{r3, r4, r5, pc}
 467              	.L36:
 468 0026 C046     		.align	2
 469              	.L35:
 470 0028 0C020B40 		.word	1074463244
 471              		.cfi_endproc
 472              	.LFE14:
ARM GAS  C:\Users\Pablo\AppData\Local\Temp\ccDGsedh.s 			page 30


 473              		.size	CySysWdtWriteClearOnMatch, .-CySysWdtWriteClearOnMatch
 474              		.section	.text.CySysWdtReadClearOnMatch,"ax",%progbits
 475              		.align	1
 476              		.global	CySysWdtReadClearOnMatch
 477              		.code	16
 478              		.thumb_func
 479              		.type	CySysWdtReadClearOnMatch, %function
 480              	CySysWdtReadClearOnMatch:
 481              	.LFB15:
1168:.\Generated_Source\PSoC4/CyLib.c **** 
1169:.\Generated_Source\PSoC4/CyLib.c **** 
1170:.\Generated_Source\PSoC4/CyLib.c ****     /*******************************************************************************
1171:.\Generated_Source\PSoC4/CyLib.c ****     * Function Name: CySysWdtReadClearOnMatch
1172:.\Generated_Source\PSoC4/CyLib.c ****     ********************************************************************************
1173:.\Generated_Source\PSoC4/CyLib.c ****     *
1174:.\Generated_Source\PSoC4/CyLib.c ****     * Summary:
1175:.\Generated_Source\PSoC4/CyLib.c ****     *  Reads the clear on match setting for the specified counter.
1176:.\Generated_Source\PSoC4/CyLib.c ****     *
1177:.\Generated_Source\PSoC4/CyLib.c ****     * Parameters:
1178:.\Generated_Source\PSoC4/CyLib.c ****     *   counterNum: Valid range [0-1].  Number of the WDT counter.  Match values are
1179:.\Generated_Source\PSoC4/CyLib.c ****     *               not supported by counter 2.
1180:.\Generated_Source\PSoC4/CyLib.c ****     *
1181:.\Generated_Source\PSoC4/CyLib.c ****     * Return:
1182:.\Generated_Source\PSoC4/CyLib.c ****     *   Clear on Match status: 1 if enabled, 0 if disabled
1183:.\Generated_Source\PSoC4/CyLib.c ****     *
1184:.\Generated_Source\PSoC4/CyLib.c ****     *******************************************************************************/
1185:.\Generated_Source\PSoC4/CyLib.c ****     uint32 CySysWdtReadClearOnMatch(uint32 counterNum)
1186:.\Generated_Source\PSoC4/CyLib.c ****     {
 482              		.loc 1 1186 0
 483              		.cfi_startproc
 484              	.LVL31:
1187:.\Generated_Source\PSoC4/CyLib.c ****         CYASSERT((counterNum == CY_SYS_WDT_COUNTER0) ||
1188:.\Generated_Source\PSoC4/CyLib.c ****                  (counterNum == CY_SYS_WDT_COUNTER1));
1189:.\Generated_Source\PSoC4/CyLib.c **** 
1190:.\Generated_Source\PSoC4/CyLib.c ****         return (uint32)((CY_SYS_WDT_CONFIG_REG >>
 485              		.loc 1 1190 0
 486 0000 044B     		ldr	r3, .L38
1191:.\Generated_Source\PSoC4/CyLib.c ****                         ((counterNum * CY_SYS_WDT_CNT_SHIFT) + CY_SYS_WDT_CNT_MATCH_CLR_SHIFT)) & 0
 487              		.loc 1 1191 0
 488 0002 C000     		lsl	r0, r0, #3
 489              	.LVL32:
1190:.\Generated_Source\PSoC4/CyLib.c ****         return (uint32)((CY_SYS_WDT_CONFIG_REG >>
 490              		.loc 1 1190 0
 491 0004 1B68     		ldr	r3, [r3]
 492              		.loc 1 1191 0
 493 0006 0230     		add	r0, r0, #2
1190:.\Generated_Source\PSoC4/CyLib.c ****         return (uint32)((CY_SYS_WDT_CONFIG_REG >>
 494              		.loc 1 1190 0
 495 0008 C340     		lsr	r3, r3, r0
 496 000a 181C     		mov	r0, r3
 497 000c 0123     		mov	r3, #1
 498 000e 1840     		and	r0, r3
1192:.\Generated_Source\PSoC4/CyLib.c ****     }
 499              		.loc 1 1192 0
 500              		@ sp needed
 501 0010 7047     		bx	lr
 502              	.L39:
ARM GAS  C:\Users\Pablo\AppData\Local\Temp\ccDGsedh.s 			page 31


 503 0012 C046     		.align	2
 504              	.L38:
 505 0014 0C020B40 		.word	1074463244
 506              		.cfi_endproc
 507              	.LFE15:
 508              		.size	CySysWdtReadClearOnMatch, .-CySysWdtReadClearOnMatch
 509              		.section	.text.CySysWdtEnable,"ax",%progbits
 510              		.align	1
 511              		.global	CySysWdtEnable
 512              		.code	16
 513              		.thumb_func
 514              		.type	CySysWdtEnable, %function
 515              	CySysWdtEnable:
 516              	.LFB16:
1193:.\Generated_Source\PSoC4/CyLib.c **** 
1194:.\Generated_Source\PSoC4/CyLib.c **** 
1195:.\Generated_Source\PSoC4/CyLib.c ****     /*******************************************************************************
1196:.\Generated_Source\PSoC4/CyLib.c ****     * Function Name: CySysWdtEnable
1197:.\Generated_Source\PSoC4/CyLib.c ****     ********************************************************************************
1198:.\Generated_Source\PSoC4/CyLib.c ****     *
1199:.\Generated_Source\PSoC4/CyLib.c ****     * Summary:
1200:.\Generated_Source\PSoC4/CyLib.c ****     *  Enables the specified WDT counters.  All the counters specified in the mask are
1201:.\Generated_Source\PSoC4/CyLib.c ****     *  enabled.
1202:.\Generated_Source\PSoC4/CyLib.c ****     *
1203:.\Generated_Source\PSoC4/CyLib.c ****     * Parameters:
1204:.\Generated_Source\PSoC4/CyLib.c ****     *  counterMask: Mask of all counters to enable
1205:.\Generated_Source\PSoC4/CyLib.c ****     *       Define                       Counter
1206:.\Generated_Source\PSoC4/CyLib.c ****     *      CY_SYS_WDT_COUNTER0_MASK      0
1207:.\Generated_Source\PSoC4/CyLib.c ****     *      CY_SYS_WDT_COUNTER1_MASK      1
1208:.\Generated_Source\PSoC4/CyLib.c ****     *      CY_SYS_WDT_COUNTER2_MASK      2
1209:.\Generated_Source\PSoC4/CyLib.c ****     *
1210:.\Generated_Source\PSoC4/CyLib.c ****     * Return:
1211:.\Generated_Source\PSoC4/CyLib.c ****     *  None
1212:.\Generated_Source\PSoC4/CyLib.c ****     *
1213:.\Generated_Source\PSoC4/CyLib.c ****     * Side Effects:
1214:.\Generated_Source\PSoC4/CyLib.c ****     *  Enabling or disabling a WDT requires 3 LFCLK cycles to come into effect.
1215:.\Generated_Source\PSoC4/CyLib.c ****     *  Therefore, the WDT enable state must not be changed more than once in
1216:.\Generated_Source\PSoC4/CyLib.c ****     *  that period.
1217:.\Generated_Source\PSoC4/CyLib.c ****     *
1218:.\Generated_Source\PSoC4/CyLib.c ****     *  After WDT is enabled, it is illegal to write WDT configuration (WDT_CONFIG)
1219:.\Generated_Source\PSoC4/CyLib.c ****     *  and control (WDT_CONTROL) registers. That means that all WDT functions that
1220:.\Generated_Source\PSoC4/CyLib.c ****     *  contain 'write' in the name (with the exception of CySysWdtWriteMatch()
1221:.\Generated_Source\PSoC4/CyLib.c ****     *  function) are illegal to call once WDT enabled.
1222:.\Generated_Source\PSoC4/CyLib.c ****     *
1223:.\Generated_Source\PSoC4/CyLib.c ****     *  PSoC 4100 / PSoC 4200:
1224:.\Generated_Source\PSoC4/CyLib.c ****     *  This function enables the ILO.
1225:.\Generated_Source\PSoC4/CyLib.c ****     *
1226:.\Generated_Source\PSoC4/CyLib.c ****     *  PSoC 4100-BL / PSoC 4200-BL:
1227:.\Generated_Source\PSoC4/CyLib.c ****     *  The LFLCK should be configured before calling this function. The desired
1228:.\Generated_Source\PSoC4/CyLib.c ****     *  source should be enabled and configured to be the source for the LFCLK.
1229:.\Generated_Source\PSoC4/CyLib.c ****     *
1230:.\Generated_Source\PSoC4/CyLib.c ****     *******************************************************************************/
1231:.\Generated_Source\PSoC4/CyLib.c ****     void CySysWdtEnable(uint32 counterMask)
1232:.\Generated_Source\PSoC4/CyLib.c ****     {
 517              		.loc 1 1232 0
 518              		.cfi_startproc
 519              	.LVL33:
ARM GAS  C:\Users\Pablo\AppData\Local\Temp\ccDGsedh.s 			page 32


 520 0000 10B5     		push	{r4, lr}
 521              		.cfi_def_cfa_offset 8
 522              		.cfi_offset 4, -8
 523              		.cfi_offset 14, -4
 524              		.loc 1 1232 0
 525 0002 041C     		mov	r4, r0
1233:.\Generated_Source\PSoC4/CyLib.c ****         #if (!CY_IP_WCO)
1234:.\Generated_Source\PSoC4/CyLib.c ****             CySysClkIloStart();
 526              		.loc 1 1234 0
 527 0004 FFF7FEFF 		bl	CySysClkIloStart
 528              	.LVL34:
1235:.\Generated_Source\PSoC4/CyLib.c ****         #endif /* (!CY_IP_WCO) */
1236:.\Generated_Source\PSoC4/CyLib.c **** 
1237:.\Generated_Source\PSoC4/CyLib.c ****         CY_SYS_WDT_CONTROL_REG |= counterMask;
 529              		.loc 1 1237 0
 530 0008 094B     		ldr	r3, .L56
 531 000a 1A68     		ldr	r2, [r3]
 532 000c 2243     		orr	r2, r4
 533 000e 1A60     		str	r2, [r3]
1238:.\Generated_Source\PSoC4/CyLib.c **** 
1239:.\Generated_Source\PSoC4/CyLib.c ****         if(0u != (counterMask & CY_SYS_WDT_COUNTER0_MASK))
 534              		.loc 1 1239 0
 535 0010 E107     		lsl	r1, r4, #31
 536 0012 02D5     		bpl	.L41
 537              	.L42:
 538              	.LVL35:
 539              	.LBB16:
 540              	.LBB17:
1053:.\Generated_Source\PSoC4/CyLib.c ****         return ((CY_SYS_WDT_CONTROL_REG >> ((CY_SYS_WDT_CNT_SHIFT * counterNum) + CY_SYS_WDT_CNT_ST
 541              		.loc 1 1053 0
 542 0014 1A68     		ldr	r2, [r3]
 543              	.LBE17:
 544              	.LBE16:
1240:.\Generated_Source\PSoC4/CyLib.c ****         {
1241:.\Generated_Source\PSoC4/CyLib.c ****             while (0u == CySysWdtReadEnabledStatus(CY_SYS_WDT_COUNTER0))
 545              		.loc 1 1241 0
 546 0016 9107     		lsl	r1, r2, #30
 547 0018 FCD5     		bpl	.L42
 548              	.LVL36:
 549              	.L41:
1242:.\Generated_Source\PSoC4/CyLib.c ****             {
1243:.\Generated_Source\PSoC4/CyLib.c ****                 /* Wait for the changes to come into effect */
1244:.\Generated_Source\PSoC4/CyLib.c ****             }
1245:.\Generated_Source\PSoC4/CyLib.c ****         }
1246:.\Generated_Source\PSoC4/CyLib.c **** 
1247:.\Generated_Source\PSoC4/CyLib.c ****         if(0u != (counterMask & CY_SYS_WDT_COUNTER1_MASK))
 550              		.loc 1 1247 0
 551 001a E205     		lsl	r2, r4, #23
 552 001c 02D5     		bpl	.L43
 553              	.L44:
 554              	.LVL37:
 555              	.LBB18:
 556              	.LBB19:
1053:.\Generated_Source\PSoC4/CyLib.c ****         return ((CY_SYS_WDT_CONTROL_REG >> ((CY_SYS_WDT_CNT_SHIFT * counterNum) + CY_SYS_WDT_CNT_ST
 557              		.loc 1 1053 0
 558 001e 1A68     		ldr	r2, [r3]
 559              	.LBE19:
ARM GAS  C:\Users\Pablo\AppData\Local\Temp\ccDGsedh.s 			page 33


 560              	.LBE18:
1248:.\Generated_Source\PSoC4/CyLib.c ****         {
1249:.\Generated_Source\PSoC4/CyLib.c ****             while (0u == CySysWdtReadEnabledStatus(CY_SYS_WDT_COUNTER1))
 561              		.loc 1 1249 0
 562 0020 9105     		lsl	r1, r2, #22
 563 0022 FCD5     		bpl	.L44
 564              	.LVL38:
 565              	.L43:
1250:.\Generated_Source\PSoC4/CyLib.c ****             {
1251:.\Generated_Source\PSoC4/CyLib.c ****                 /* Wait for the changes to come into effect */
1252:.\Generated_Source\PSoC4/CyLib.c ****             }
1253:.\Generated_Source\PSoC4/CyLib.c ****         }
1254:.\Generated_Source\PSoC4/CyLib.c **** 
1255:.\Generated_Source\PSoC4/CyLib.c ****         if(0u != (counterMask & CY_SYS_WDT_COUNTER2_MASK))
 566              		.loc 1 1255 0
 567 0024 E203     		lsl	r2, r4, #15
 568 0026 02D5     		bpl	.L40
 569              	.L46:
 570              	.LVL39:
 571              	.LBB20:
 572              	.LBB21:
1053:.\Generated_Source\PSoC4/CyLib.c ****         return ((CY_SYS_WDT_CONTROL_REG >> ((CY_SYS_WDT_CNT_SHIFT * counterNum) + CY_SYS_WDT_CNT_ST
 573              		.loc 1 1053 0
 574 0028 1A68     		ldr	r2, [r3]
 575              	.LBE21:
 576              	.LBE20:
1256:.\Generated_Source\PSoC4/CyLib.c ****         {
1257:.\Generated_Source\PSoC4/CyLib.c ****             while (0u == CySysWdtReadEnabledStatus(CY_SYS_WDT_COUNTER2))
 577              		.loc 1 1257 0
 578 002a 9103     		lsl	r1, r2, #14
 579 002c FCD5     		bpl	.L46
 580              	.LVL40:
 581              	.L40:
1258:.\Generated_Source\PSoC4/CyLib.c ****             {
1259:.\Generated_Source\PSoC4/CyLib.c ****                 /* Wait for the changes to come into effect */
1260:.\Generated_Source\PSoC4/CyLib.c ****             }
1261:.\Generated_Source\PSoC4/CyLib.c ****         }
1262:.\Generated_Source\PSoC4/CyLib.c ****     }
 582              		.loc 1 1262 0
 583              		@ sp needed
 584              	.LVL41:
 585 002e 10BD     		pop	{r4, pc}
 586              	.L57:
 587              		.align	2
 588              	.L56:
 589 0030 10020B40 		.word	1074463248
 590              		.cfi_endproc
 591              	.LFE16:
 592              		.size	CySysWdtEnable, .-CySysWdtEnable
 593              		.section	.text.CySysWdtDisable,"ax",%progbits
 594              		.align	1
 595              		.global	CySysWdtDisable
 596              		.code	16
 597              		.thumb_func
 598              		.type	CySysWdtDisable, %function
 599              	CySysWdtDisable:
 600              	.LFB17:
ARM GAS  C:\Users\Pablo\AppData\Local\Temp\ccDGsedh.s 			page 34


1263:.\Generated_Source\PSoC4/CyLib.c **** 
1264:.\Generated_Source\PSoC4/CyLib.c **** 
1265:.\Generated_Source\PSoC4/CyLib.c ****     /*******************************************************************************
1266:.\Generated_Source\PSoC4/CyLib.c ****     * Function Name: CySysWdtDisable
1267:.\Generated_Source\PSoC4/CyLib.c ****     ********************************************************************************
1268:.\Generated_Source\PSoC4/CyLib.c ****     *
1269:.\Generated_Source\PSoC4/CyLib.c ****     * Summary:
1270:.\Generated_Source\PSoC4/CyLib.c ****     *  Disables the specified WDT counters. All the counters specified in the mask
1271:.\Generated_Source\PSoC4/CyLib.c ****     *  are disabled. The function waits for the changes to come into effect.
1272:.\Generated_Source\PSoC4/CyLib.c ****     *
1273:.\Generated_Source\PSoC4/CyLib.c ****     * Parameters:
1274:.\Generated_Source\PSoC4/CyLib.c ****     *  uint32 counterMask: Mask of all counters to disable
1275:.\Generated_Source\PSoC4/CyLib.c ****     *    Define                       Counter
1276:.\Generated_Source\PSoC4/CyLib.c ****     *   CY_SYS_WDT_COUNTER0_MASK      0
1277:.\Generated_Source\PSoC4/CyLib.c ****     *   CY_SYS_WDT_COUNTER1_MASK      1
1278:.\Generated_Source\PSoC4/CyLib.c ****     *   CY_SYS_WDT_COUNTER2_MASK      2
1279:.\Generated_Source\PSoC4/CyLib.c ****     *
1280:.\Generated_Source\PSoC4/CyLib.c ****     * Return:
1281:.\Generated_Source\PSoC4/CyLib.c ****     *   None
1282:.\Generated_Source\PSoC4/CyLib.c ****     *
1283:.\Generated_Source\PSoC4/CyLib.c ****     *******************************************************************************/
1284:.\Generated_Source\PSoC4/CyLib.c ****     void CySysWdtDisable(uint32 counterMask)
1285:.\Generated_Source\PSoC4/CyLib.c ****     {
 601              		.loc 1 1285 0
 602              		.cfi_startproc
 603              	.LVL42:
1286:.\Generated_Source\PSoC4/CyLib.c ****         CY_SYS_WDT_CONTROL_REG &= ~counterMask;
 604              		.loc 1 1286 0
 605 0000 094B     		ldr	r3, .L83
 606 0002 1A68     		ldr	r2, [r3]
 607 0004 8243     		bic	r2, r0
 608 0006 1A60     		str	r2, [r3]
1287:.\Generated_Source\PSoC4/CyLib.c **** 
1288:.\Generated_Source\PSoC4/CyLib.c ****         if(0u != (counterMask & CY_SYS_WDT_COUNTER0_MASK))
 609              		.loc 1 1288 0
 610 0008 C107     		lsl	r1, r0, #31
 611 000a 02D5     		bpl	.L59
 612              	.L60:
 613              	.LVL43:
 614              	.LBB28:
 615              	.LBB29:
1053:.\Generated_Source\PSoC4/CyLib.c ****         return ((CY_SYS_WDT_CONTROL_REG >> ((CY_SYS_WDT_CNT_SHIFT * counterNum) + CY_SYS_WDT_CNT_ST
 616              		.loc 1 1053 0
 617 000c 1A68     		ldr	r2, [r3]
 618              	.LBE29:
 619              	.LBE28:
1289:.\Generated_Source\PSoC4/CyLib.c ****         {
1290:.\Generated_Source\PSoC4/CyLib.c ****             while (0u != CySysWdtReadEnabledStatus(CY_SYS_WDT_COUNTER0))
 620              		.loc 1 1290 0
 621 000e 9107     		lsl	r1, r2, #30
 622 0010 FCD4     		bmi	.L60
 623              	.LVL44:
 624              	.L59:
1291:.\Generated_Source\PSoC4/CyLib.c ****             {
1292:.\Generated_Source\PSoC4/CyLib.c ****                 /* Wait for the changes to come into effect */
1293:.\Generated_Source\PSoC4/CyLib.c ****             }
1294:.\Generated_Source\PSoC4/CyLib.c ****         }
ARM GAS  C:\Users\Pablo\AppData\Local\Temp\ccDGsedh.s 			page 35


1295:.\Generated_Source\PSoC4/CyLib.c **** 
1296:.\Generated_Source\PSoC4/CyLib.c ****         if(0u != (counterMask & CY_SYS_WDT_COUNTER1_MASK))
 625              		.loc 1 1296 0
 626 0012 C205     		lsl	r2, r0, #23
 627 0014 02D5     		bpl	.L61
 628              	.L62:
 629              	.LVL45:
 630              	.LBB30:
 631              	.LBB31:
1053:.\Generated_Source\PSoC4/CyLib.c ****         return ((CY_SYS_WDT_CONTROL_REG >> ((CY_SYS_WDT_CNT_SHIFT * counterNum) + CY_SYS_WDT_CNT_ST
 632              		.loc 1 1053 0
 633 0016 1A68     		ldr	r2, [r3]
 634              	.LBE31:
 635              	.LBE30:
1297:.\Generated_Source\PSoC4/CyLib.c ****         {
1298:.\Generated_Source\PSoC4/CyLib.c ****             while (0u != CySysWdtReadEnabledStatus(CY_SYS_WDT_COUNTER1))
 636              		.loc 1 1298 0
 637 0018 9105     		lsl	r1, r2, #22
 638 001a FCD4     		bmi	.L62
 639              	.LVL46:
 640              	.L61:
1299:.\Generated_Source\PSoC4/CyLib.c ****             {
1300:.\Generated_Source\PSoC4/CyLib.c ****                 /* Wait for the changes to come into effect */
1301:.\Generated_Source\PSoC4/CyLib.c ****             }
1302:.\Generated_Source\PSoC4/CyLib.c ****         }
1303:.\Generated_Source\PSoC4/CyLib.c **** 
1304:.\Generated_Source\PSoC4/CyLib.c ****         if(0u != (counterMask & CY_SYS_WDT_COUNTER2_MASK))
 641              		.loc 1 1304 0
 642 001c C203     		lsl	r2, r0, #15
 643 001e 02D5     		bpl	.L58
 644              	.L64:
 645              	.LVL47:
 646              	.LBB32:
 647              	.LBB33:
1053:.\Generated_Source\PSoC4/CyLib.c ****         return ((CY_SYS_WDT_CONTROL_REG >> ((CY_SYS_WDT_CNT_SHIFT * counterNum) + CY_SYS_WDT_CNT_ST
 648              		.loc 1 1053 0
 649 0020 1A68     		ldr	r2, [r3]
 650              	.LBE33:
 651              	.LBE32:
1305:.\Generated_Source\PSoC4/CyLib.c ****         {
1306:.\Generated_Source\PSoC4/CyLib.c ****             while (0u != CySysWdtReadEnabledStatus(CY_SYS_WDT_COUNTER2))
 652              		.loc 1 1306 0
 653 0022 9103     		lsl	r1, r2, #14
 654 0024 FCD4     		bmi	.L64
 655              	.LVL48:
 656              	.L58:
1307:.\Generated_Source\PSoC4/CyLib.c ****             {
1308:.\Generated_Source\PSoC4/CyLib.c ****                 /* Wait for the changes to come into effect */
1309:.\Generated_Source\PSoC4/CyLib.c ****             }
1310:.\Generated_Source\PSoC4/CyLib.c ****         }
1311:.\Generated_Source\PSoC4/CyLib.c ****     }
 657              		.loc 1 1311 0
 658              		@ sp needed
 659 0026 7047     		bx	lr
 660              	.L84:
 661              		.align	2
 662              	.L83:
ARM GAS  C:\Users\Pablo\AppData\Local\Temp\ccDGsedh.s 			page 36


 663 0028 10020B40 		.word	1074463248
 664              		.cfi_endproc
 665              	.LFE17:
 666              		.size	CySysWdtDisable, .-CySysWdtDisable
 667              		.section	.text.CySysWdtWriteCascade,"ax",%progbits
 668              		.align	1
 669              		.global	CySysWdtWriteCascade
 670              		.code	16
 671              		.thumb_func
 672              		.type	CySysWdtWriteCascade, %function
 673              	CySysWdtWriteCascade:
 674              	.LFB18:
1312:.\Generated_Source\PSoC4/CyLib.c **** 
1313:.\Generated_Source\PSoC4/CyLib.c **** 
1314:.\Generated_Source\PSoC4/CyLib.c ****     /*******************************************************************************
1315:.\Generated_Source\PSoC4/CyLib.c ****     * Function Name: CySysWdtWriteCascade
1316:.\Generated_Source\PSoC4/CyLib.c ****     ********************************************************************************
1317:.\Generated_Source\PSoC4/CyLib.c ****     *
1318:.\Generated_Source\PSoC4/CyLib.c ****     * Summary:
1319:.\Generated_Source\PSoC4/CyLib.c ****     *   Writes the two WDT cascade values based on the combination of mask values
1320:.\Generated_Source\PSoC4/CyLib.c ****     *   specified.
1321:.\Generated_Source\PSoC4/CyLib.c ****     *
1322:.\Generated_Source\PSoC4/CyLib.c ****     * Parameters:
1323:.\Generated_Source\PSoC4/CyLib.c ****     *   cascadeMask: Mask value used to set or clear the cascade values.
1324:.\Generated_Source\PSoC4/CyLib.c ****     *   Define                     Cascade
1325:.\Generated_Source\PSoC4/CyLib.c ****     *   CY_SYS_WDT_CASCADE_NONE    Neither
1326:.\Generated_Source\PSoC4/CyLib.c ****     *   CY_SYS_WDT_CASCADE_01      Cascade 01
1327:.\Generated_Source\PSoC4/CyLib.c ****     *   CY_SYS_WDT_CASCADE_12      Cascade 12
1328:.\Generated_Source\PSoC4/CyLib.c ****     *
1329:.\Generated_Source\PSoC4/CyLib.c ****     *   To set both cascade modes, two defines should be ORed:
1330:.\Generated_Source\PSoC4/CyLib.c ****     *   (CY_SYS_WDT_CASCADE_01 | CY_SYS_WDT_CASCADE_12)
1331:.\Generated_Source\PSoC4/CyLib.c ****     *
1332:.\Generated_Source\PSoC4/CyLib.c ****     * Return:
1333:.\Generated_Source\PSoC4/CyLib.c ****     *   None
1334:.\Generated_Source\PSoC4/CyLib.c ****     *
1335:.\Generated_Source\PSoC4/CyLib.c ****     * Side effects:
1336:.\Generated_Source\PSoC4/CyLib.c ****     *   If only one cascade mask is specified, the second cascade is disabled.
1337:.\Generated_Source\PSoC4/CyLib.c ****     *   To set both cascade modes two defines should be ORed:
1338:.\Generated_Source\PSoC4/CyLib.c ****     *    (CY_SYS_WDT_CASCADE_01 | CY_SYS_WDT_CASCADE_12).
1339:.\Generated_Source\PSoC4/CyLib.c ****     *
1340:.\Generated_Source\PSoC4/CyLib.c ****     *   WDT counters that are part of the specified cascade, should be disabled.
1341:.\Generated_Source\PSoC4/CyLib.c ****     *   Otherwise this function call will have no effect. If the specified
1342:.\Generated_Source\PSoC4/CyLib.c ****     *   counter is enabled, call CySysWdtDisable() function with the corresponding
1343:.\Generated_Source\PSoC4/CyLib.c ****     *   parameter to disable specified counter and wait for it to stop. This may
1344:.\Generated_Source\PSoC4/CyLib.c ****     *   take up to 3 LFCLK cycles.
1345:.\Generated_Source\PSoC4/CyLib.c ****     *
1346:.\Generated_Source\PSoC4/CyLib.c ****     *******************************************************************************/
1347:.\Generated_Source\PSoC4/CyLib.c ****     void CySysWdtWriteCascade(uint32 cascadeMask)
1348:.\Generated_Source\PSoC4/CyLib.c ****     {
 675              		.loc 1 1348 0
 676              		.cfi_startproc
 677              	.LVL49:
 678              	.LBB40:
 679              	.LBB41:
1053:.\Generated_Source\PSoC4/CyLib.c ****         return ((CY_SYS_WDT_CONTROL_REG >> ((CY_SYS_WDT_CNT_SHIFT * counterNum) + CY_SYS_WDT_CNT_ST
 680              		.loc 1 1053 0
 681 0000 094B     		ldr	r3, .L87
ARM GAS  C:\Users\Pablo\AppData\Local\Temp\ccDGsedh.s 			page 37


 682              	.LBE41:
 683              	.LBE40:
 684              		.loc 1 1348 0
 685 0002 10B5     		push	{r4, lr}
 686              		.cfi_def_cfa_offset 8
 687              		.cfi_offset 4, -8
 688              		.cfi_offset 14, -4
 689              	.LBB44:
 690              	.LBB42:
1053:.\Generated_Source\PSoC4/CyLib.c ****         return ((CY_SYS_WDT_CONTROL_REG >> ((CY_SYS_WDT_CNT_SHIFT * counterNum) + CY_SYS_WDT_CNT_ST
 691              		.loc 1 1053 0
 692 0004 1C68     		ldr	r4, [r3]
 693              	.LVL50:
 694              	.LBE42:
 695              	.LBE44:
 696              	.LBB45:
 697              	.LBB46:
 698 0006 1968     		ldr	r1, [r3]
 699              	.LVL51:
 700              	.LBE46:
 701              	.LBE45:
 702              	.LBB48:
 703              	.LBB49:
 704 0008 1A68     		ldr	r2, [r3]
 705              	.LVL52:
 706              	.LBE49:
 707              	.LBE48:
 708              	.LBB51:
 709              	.LBB47:
 710 000a 490A     		lsr	r1, r1, #9
 711              	.LVL53:
 712              	.LBE47:
 713              	.LBE51:
 714              	.LBB52:
 715              	.LBB43:
 716 000c 6308     		lsr	r3, r4, #1
 717              	.LBE43:
 718              	.LBE52:
1349:.\Generated_Source\PSoC4/CyLib.c ****         uint32 configRegValue;
1350:.\Generated_Source\PSoC4/CyLib.c ****         uint32 countersEnableStatus;
1351:.\Generated_Source\PSoC4/CyLib.c **** 
1352:.\Generated_Source\PSoC4/CyLib.c ****         countersEnableStatus = CySysWdtReadEnabledStatus(CY_SYS_WDT_COUNTER0) |
 719              		.loc 1 1352 0
 720 000e 0B43     		orr	r3, r1
 721              	.LBB53:
 722              	.LBB50:
1053:.\Generated_Source\PSoC4/CyLib.c ****         return ((CY_SYS_WDT_CONTROL_REG >> ((CY_SYS_WDT_CNT_SHIFT * counterNum) + CY_SYS_WDT_CNT_ST
 723              		.loc 1 1053 0
 724 0010 520C     		lsr	r2, r2, #17
 725              	.LBE50:
 726              	.LBE53:
 727              		.loc 1 1352 0
 728 0012 1343     		orr	r3, r2
1353:.\Generated_Source\PSoC4/CyLib.c ****                             CySysWdtReadEnabledStatus(CY_SYS_WDT_COUNTER1) |
1354:.\Generated_Source\PSoC4/CyLib.c ****                             CySysWdtReadEnabledStatus(CY_SYS_WDT_COUNTER2);
1355:.\Generated_Source\PSoC4/CyLib.c **** 
1356:.\Generated_Source\PSoC4/CyLib.c ****         if (0u == countersEnableStatus)
ARM GAS  C:\Users\Pablo\AppData\Local\Temp\ccDGsedh.s 			page 38


 729              		.loc 1 1356 0
 730 0014 DA07     		lsl	r2, r3, #31
 731 0016 05D4     		bmi	.L85
1357:.\Generated_Source\PSoC4/CyLib.c ****         {
1358:.\Generated_Source\PSoC4/CyLib.c ****             configRegValue = CY_SYS_WDT_CONFIG_REG;
 732              		.loc 1 1358 0
 733 0018 044B     		ldr	r3, .L87+4
1359:.\Generated_Source\PSoC4/CyLib.c ****             configRegValue &= ((uint32)(~(CY_SYS_WDT_CASCADE_01|CY_SYS_WDT_CASCADE_12)));
 734              		.loc 1 1359 0
 735 001a 054A     		ldr	r2, .L87+8
1358:.\Generated_Source\PSoC4/CyLib.c ****             configRegValue = CY_SYS_WDT_CONFIG_REG;
 736              		.loc 1 1358 0
 737 001c 1968     		ldr	r1, [r3]
 738              	.LVL54:
 739              		.loc 1 1359 0
 740 001e 0A40     		and	r2, r1
 741              	.LVL55:
1360:.\Generated_Source\PSoC4/CyLib.c ****             configRegValue |= cascadeMask;
 742              		.loc 1 1360 0
 743 0020 1043     		orr	r0, r2
 744              	.LVL56:
1361:.\Generated_Source\PSoC4/CyLib.c ****             CY_SYS_WDT_CONFIG_REG = configRegValue;
 745              		.loc 1 1361 0
 746 0022 1860     		str	r0, [r3]
 747              	.LVL57:
 748              	.L85:
1362:.\Generated_Source\PSoC4/CyLib.c ****         }
1363:.\Generated_Source\PSoC4/CyLib.c ****     }
 749              		.loc 1 1363 0
 750              		@ sp needed
 751 0024 10BD     		pop	{r4, pc}
 752              	.L88:
 753 0026 C046     		.align	2
 754              	.L87:
 755 0028 10020B40 		.word	1074463248
 756 002c 0C020B40 		.word	1074463244
 757 0030 F7F7FFFF 		.word	-2057
 758              		.cfi_endproc
 759              	.LFE18:
 760              		.size	CySysWdtWriteCascade, .-CySysWdtWriteCascade
 761              		.section	.text.CySysWdtReadCascade,"ax",%progbits
 762              		.align	1
 763              		.global	CySysWdtReadCascade
 764              		.code	16
 765              		.thumb_func
 766              		.type	CySysWdtReadCascade, %function
 767              	CySysWdtReadCascade:
 768              	.LFB19:
1364:.\Generated_Source\PSoC4/CyLib.c **** 
1365:.\Generated_Source\PSoC4/CyLib.c **** 
1366:.\Generated_Source\PSoC4/CyLib.c ****     /*******************************************************************************
1367:.\Generated_Source\PSoC4/CyLib.c ****     * Function Name: CySysWdtReadCascade
1368:.\Generated_Source\PSoC4/CyLib.c ****     ********************************************************************************
1369:.\Generated_Source\PSoC4/CyLib.c ****     *
1370:.\Generated_Source\PSoC4/CyLib.c ****     * Summary:
1371:.\Generated_Source\PSoC4/CyLib.c ****     *   Reads the two WDT cascade values returning a mask of the bits set.
1372:.\Generated_Source\PSoC4/CyLib.c ****     *
ARM GAS  C:\Users\Pablo\AppData\Local\Temp\ccDGsedh.s 			page 39


1373:.\Generated_Source\PSoC4/CyLib.c ****     * Parameters:
1374:.\Generated_Source\PSoC4/CyLib.c ****     *   None
1375:.\Generated_Source\PSoC4/CyLib.c ****     *
1376:.\Generated_Source\PSoC4/CyLib.c ****     * Return:
1377:.\Generated_Source\PSoC4/CyLib.c ****     *   Mask of cascade values set.
1378:.\Generated_Source\PSoC4/CyLib.c ****     *   Define                     Cascade
1379:.\Generated_Source\PSoC4/CyLib.c ****     *   CY_SYS_WDT_CASCADE_NONE    Neither
1380:.\Generated_Source\PSoC4/CyLib.c ****     *   CY_SYS_WDT_CASCADE_01      Cascade 01
1381:.\Generated_Source\PSoC4/CyLib.c ****     *   CY_SYS_WDT_CASCADE_12      Cascade 12
1382:.\Generated_Source\PSoC4/CyLib.c ****     *
1383:.\Generated_Source\PSoC4/CyLib.c ****     *******************************************************************************/
1384:.\Generated_Source\PSoC4/CyLib.c ****     uint32 CySysWdtReadCascade(void)
1385:.\Generated_Source\PSoC4/CyLib.c ****     {
 769              		.loc 1 1385 0
 770              		.cfi_startproc
1386:.\Generated_Source\PSoC4/CyLib.c ****         return (CY_SYS_WDT_CONFIG_REG & (CY_SYS_WDT_CASCADE_01 | CY_SYS_WDT_CASCADE_12));
 771              		.loc 1 1386 0
 772 0000 024B     		ldr	r3, .L90
1387:.\Generated_Source\PSoC4/CyLib.c ****     }
 773              		.loc 1 1387 0
 774              		@ sp needed
1386:.\Generated_Source\PSoC4/CyLib.c ****         return (CY_SYS_WDT_CONFIG_REG & (CY_SYS_WDT_CASCADE_01 | CY_SYS_WDT_CASCADE_12));
 775              		.loc 1 1386 0
 776 0002 1868     		ldr	r0, [r3]
 777 0004 024B     		ldr	r3, .L90+4
 778 0006 1840     		and	r0, r3
 779              		.loc 1 1387 0
 780 0008 7047     		bx	lr
 781              	.L91:
 782 000a C046     		.align	2
 783              	.L90:
 784 000c 0C020B40 		.word	1074463244
 785 0010 08080000 		.word	2056
 786              		.cfi_endproc
 787              	.LFE19:
 788              		.size	CySysWdtReadCascade, .-CySysWdtReadCascade
 789              		.section	.text.CySysWdtWriteToggleBit,"ax",%progbits
 790              		.align	1
 791              		.global	CySysWdtWriteToggleBit
 792              		.code	16
 793              		.thumb_func
 794              		.type	CySysWdtWriteToggleBit, %function
 795              	CySysWdtWriteToggleBit:
 796              	.LFB21:
1388:.\Generated_Source\PSoC4/CyLib.c **** 
1389:.\Generated_Source\PSoC4/CyLib.c **** 
1390:.\Generated_Source\PSoC4/CyLib.c ****     /*******************************************************************************
1391:.\Generated_Source\PSoC4/CyLib.c ****     * Function Name: CySysWdtWriteMatch
1392:.\Generated_Source\PSoC4/CyLib.c ****     ********************************************************************************
1393:.\Generated_Source\PSoC4/CyLib.c ****     *
1394:.\Generated_Source\PSoC4/CyLib.c ****     * Summary:
1395:.\Generated_Source\PSoC4/CyLib.c ****     *  Configures the WDT counter match comparison value.
1396:.\Generated_Source\PSoC4/CyLib.c ****     *
1397:.\Generated_Source\PSoC4/CyLib.c ****     * Parameters:
1398:.\Generated_Source\PSoC4/CyLib.c ****     *  counterNum:
1399:.\Generated_Source\PSoC4/CyLib.c ****     *   Valid range [0-1]. Number of the WDT counter. Match values are not
1400:.\Generated_Source\PSoC4/CyLib.c ****     *   supported by counter 2.
ARM GAS  C:\Users\Pablo\AppData\Local\Temp\ccDGsedh.s 			page 40


1401:.\Generated_Source\PSoC4/CyLib.c ****     *
1402:.\Generated_Source\PSoC4/CyLib.c ****     *  match:
1403:.\Generated_Source\PSoC4/CyLib.c ****     *   Valid range [0-65535]. Value to be used to match against the counter.
1404:.\Generated_Source\PSoC4/CyLib.c ****     *
1405:.\Generated_Source\PSoC4/CyLib.c ****     * Return:
1406:.\Generated_Source\PSoC4/CyLib.c ****     *   None
1407:.\Generated_Source\PSoC4/CyLib.c ****     *
1408:.\Generated_Source\PSoC4/CyLib.c ****     *******************************************************************************/
1409:.\Generated_Source\PSoC4/CyLib.c ****     void CySysWdtWriteMatch(uint32 counterNum, uint32 match)
1410:.\Generated_Source\PSoC4/CyLib.c ****     {
1411:.\Generated_Source\PSoC4/CyLib.c ****         uint32 regValue;
1412:.\Generated_Source\PSoC4/CyLib.c **** 
1413:.\Generated_Source\PSoC4/CyLib.c ****         CYASSERT((counterNum == CY_SYS_WDT_COUNTER0) ||
1414:.\Generated_Source\PSoC4/CyLib.c ****                  (counterNum == CY_SYS_WDT_COUNTER1));
1415:.\Generated_Source\PSoC4/CyLib.c **** 
1416:.\Generated_Source\PSoC4/CyLib.c ****         /* Wait for the previous changes to come into effect */
1417:.\Generated_Source\PSoC4/CyLib.c ****         CyDelayUs(CY_SYS_WDT_3LFCLK_DELAY_US);
1418:.\Generated_Source\PSoC4/CyLib.c **** 
1419:.\Generated_Source\PSoC4/CyLib.c ****         regValue = CY_SYS_WDT_MATCH_REG;
1420:.\Generated_Source\PSoC4/CyLib.c ****         regValue &= (uint32)~((uint32)(CY_SYS_WDT_LOWER_16BITS_MASK << (counterNum * CY_SYS_WDT_CNT
1421:.\Generated_Source\PSoC4/CyLib.c ****         CY_SYS_WDT_MATCH_REG = (regValue | (match << (counterNum * CY_SYS_WDT_CNT_MATCH_SHIFT)));
1422:.\Generated_Source\PSoC4/CyLib.c **** 
1423:.\Generated_Source\PSoC4/CyLib.c ****         /* Make sure the match synchronization started */
1424:.\Generated_Source\PSoC4/CyLib.c ****         CyDelayUs(CY_SYS_WDT_1LFCLK_DELAY_US);
1425:.\Generated_Source\PSoC4/CyLib.c ****     }
1426:.\Generated_Source\PSoC4/CyLib.c **** 
1427:.\Generated_Source\PSoC4/CyLib.c **** 
1428:.\Generated_Source\PSoC4/CyLib.c ****     /*******************************************************************************
1429:.\Generated_Source\PSoC4/CyLib.c ****     * Function Name: CySysWdtWriteToggleBit
1430:.\Generated_Source\PSoC4/CyLib.c ****     ********************************************************************************
1431:.\Generated_Source\PSoC4/CyLib.c ****     *
1432:.\Generated_Source\PSoC4/CyLib.c ****     * Summary:
1433:.\Generated_Source\PSoC4/CyLib.c ****     *  Configures which bit in the WDT counter 2 to monitor for a toggle. When that
1434:.\Generated_Source\PSoC4/CyLib.c ****     *  bit toggles, an interrupt is generated if the mode for counter 2 has
1435:.\Generated_Source\PSoC4/CyLib.c ****     *  interrupts enabled.
1436:.\Generated_Source\PSoC4/CyLib.c ****     *
1437:.\Generated_Source\PSoC4/CyLib.c ****     * Parameters:
1438:.\Generated_Source\PSoC4/CyLib.c ****     *  bit:
1439:.\Generated_Source\PSoC4/CyLib.c ****     *   Valid range [0-31].  Counter 2 bit to monitor for a toggle.
1440:.\Generated_Source\PSoC4/CyLib.c ****     *
1441:.\Generated_Source\PSoC4/CyLib.c ****     * Return:
1442:.\Generated_Source\PSoC4/CyLib.c ****     *   None
1443:.\Generated_Source\PSoC4/CyLib.c ****     *
1444:.\Generated_Source\PSoC4/CyLib.c ****     * Side effects:
1445:.\Generated_Source\PSoC4/CyLib.c ****     *   WDT Counter 2 should be disabled. Otherwise this function call will have no
1446:.\Generated_Source\PSoC4/CyLib.c ****     *   effect.
1447:.\Generated_Source\PSoC4/CyLib.c ****     *
1448:.\Generated_Source\PSoC4/CyLib.c ****     *   If the specified counter is enabled, call CySysWdtDisable() function with
1449:.\Generated_Source\PSoC4/CyLib.c ****     *   the corresponding parameter to disable specified counter and wait for it to
1450:.\Generated_Source\PSoC4/CyLib.c ****     *   stop. This may take up to 3 LFCLK cycles.
1451:.\Generated_Source\PSoC4/CyLib.c ****     *
1452:.\Generated_Source\PSoC4/CyLib.c ****     *******************************************************************************/
1453:.\Generated_Source\PSoC4/CyLib.c ****     void CySysWdtWriteToggleBit(uint32 bits)
1454:.\Generated_Source\PSoC4/CyLib.c ****     {
 797              		.loc 1 1454 0
 798              		.cfi_startproc
 799              	.LVL58:
ARM GAS  C:\Users\Pablo\AppData\Local\Temp\ccDGsedh.s 			page 41


 800              	.LBB56:
 801              	.LBB57:
1053:.\Generated_Source\PSoC4/CyLib.c ****         return ((CY_SYS_WDT_CONTROL_REG >> ((CY_SYS_WDT_CNT_SHIFT * counterNum) + CY_SYS_WDT_CNT_ST
 802              		.loc 1 1053 0
 803 0000 064B     		ldr	r3, .L94
 804 0002 1B68     		ldr	r3, [r3]
 805              	.LBE57:
 806              	.LBE56:
1455:.\Generated_Source\PSoC4/CyLib.c ****         uint32 configRegValue;
1456:.\Generated_Source\PSoC4/CyLib.c **** 
1457:.\Generated_Source\PSoC4/CyLib.c ****         if (0u == CySysWdtReadEnabledStatus(CY_SYS_WDT_COUNTER2))
 807              		.loc 1 1457 0
 808 0004 9A03     		lsl	r2, r3, #14
 809 0006 08D4     		bmi	.L92
1458:.\Generated_Source\PSoC4/CyLib.c ****         {
1459:.\Generated_Source\PSoC4/CyLib.c ****             configRegValue = CY_SYS_WDT_CONFIG_REG;
 810              		.loc 1 1459 0
 811 0008 054B     		ldr	r3, .L94+4
1460:.\Generated_Source\PSoC4/CyLib.c ****             configRegValue &= (uint32)(~((uint32)(CY_SYS_WDT_CONFIG_BITS2_MASK << CY_SYS_WDT_CONFIG
 812              		.loc 1 1460 0
 813 000a 064A     		ldr	r2, .L94+8
1459:.\Generated_Source\PSoC4/CyLib.c ****             configRegValue = CY_SYS_WDT_CONFIG_REG;
 814              		.loc 1 1459 0
 815 000c 1968     		ldr	r1, [r3]
 816              	.LVL59:
 817              		.loc 1 1460 0
 818 000e 0A40     		and	r2, r1
 819              	.LVL60:
1461:.\Generated_Source\PSoC4/CyLib.c ****             configRegValue |= ((bits & CY_SYS_WDT_CONFIG_BITS2_MASK) << CY_SYS_WDT_CONFIG_BITS2_POS
 820              		.loc 1 1461 0
 821 0010 1F21     		mov	r1, #31
 822 0012 0840     		and	r0, r1
 823              	.LVL61:
 824 0014 0006     		lsl	r0, r0, #24
 825 0016 1043     		orr	r0, r2
 826              	.LVL62:
1462:.\Generated_Source\PSoC4/CyLib.c ****             CY_SYS_WDT_CONFIG_REG = configRegValue;
 827              		.loc 1 1462 0
 828 0018 1860     		str	r0, [r3]
 829              	.LVL63:
 830              	.L92:
1463:.\Generated_Source\PSoC4/CyLib.c ****         }
1464:.\Generated_Source\PSoC4/CyLib.c ****     }
 831              		.loc 1 1464 0
 832              		@ sp needed
 833 001a 7047     		bx	lr
 834              	.L95:
 835              		.align	2
 836              	.L94:
 837 001c 10020B40 		.word	1074463248
 838 0020 0C020B40 		.word	1074463244
 839 0024 FFFFFFE0 		.word	-520093697
 840              		.cfi_endproc
 841              	.LFE21:
 842              		.size	CySysWdtWriteToggleBit, .-CySysWdtWriteToggleBit
 843              		.section	.text.CySysWdtReadToggleBit,"ax",%progbits
 844              		.align	1
ARM GAS  C:\Users\Pablo\AppData\Local\Temp\ccDGsedh.s 			page 42


 845              		.global	CySysWdtReadToggleBit
 846              		.code	16
 847              		.thumb_func
 848              		.type	CySysWdtReadToggleBit, %function
 849              	CySysWdtReadToggleBit:
 850              	.LFB22:
1465:.\Generated_Source\PSoC4/CyLib.c **** 
1466:.\Generated_Source\PSoC4/CyLib.c **** 
1467:.\Generated_Source\PSoC4/CyLib.c ****     /*******************************************************************************
1468:.\Generated_Source\PSoC4/CyLib.c ****     * Function Name: CySysWdtReadToggleBit
1469:.\Generated_Source\PSoC4/CyLib.c ****     ********************************************************************************
1470:.\Generated_Source\PSoC4/CyLib.c ****     *
1471:.\Generated_Source\PSoC4/CyLib.c ****     * Summary:
1472:.\Generated_Source\PSoC4/CyLib.c ****     *  Reads which bit in the WDT counter 2 is monitored for a toggle.
1473:.\Generated_Source\PSoC4/CyLib.c ****     *
1474:.\Generated_Source\PSoC4/CyLib.c ****     * Parameters:
1475:.\Generated_Source\PSoC4/CyLib.c ****     *  None
1476:.\Generated_Source\PSoC4/CyLib.c ****     *
1477:.\Generated_Source\PSoC4/CyLib.c ****     * Return:
1478:.\Generated_Source\PSoC4/CyLib.c ****     *  The bit that is monitored (range of 0 to 31)
1479:.\Generated_Source\PSoC4/CyLib.c ****     *
1480:.\Generated_Source\PSoC4/CyLib.c ****     *******************************************************************************/
1481:.\Generated_Source\PSoC4/CyLib.c ****     uint32 CySysWdtReadToggleBit(void)
1482:.\Generated_Source\PSoC4/CyLib.c ****     {
 851              		.loc 1 1482 0
 852              		.cfi_startproc
1483:.\Generated_Source\PSoC4/CyLib.c ****         return ((CY_SYS_WDT_CONFIG_REG >> CY_SYS_WDT_CONFIG_BITS2_POS) & CY_SYS_WDT_CONFIG_BITS2_MA
 853              		.loc 1 1483 0
 854 0000 024B     		ldr	r3, .L97
1484:.\Generated_Source\PSoC4/CyLib.c ****     }
 855              		.loc 1 1484 0
 856              		@ sp needed
1483:.\Generated_Source\PSoC4/CyLib.c ****         return ((CY_SYS_WDT_CONFIG_REG >> CY_SYS_WDT_CONFIG_BITS2_POS) & CY_SYS_WDT_CONFIG_BITS2_MA
 857              		.loc 1 1483 0
 858 0002 1868     		ldr	r0, [r3]
 859 0004 C000     		lsl	r0, r0, #3
 860 0006 C00E     		lsr	r0, r0, #27
 861              		.loc 1 1484 0
 862 0008 7047     		bx	lr
 863              	.L98:
 864 000a C046     		.align	2
 865              	.L97:
 866 000c 0C020B40 		.word	1074463244
 867              		.cfi_endproc
 868              	.LFE22:
 869              		.size	CySysWdtReadToggleBit, .-CySysWdtReadToggleBit
 870              		.section	.text.CySysWdtReadMatch,"ax",%progbits
 871              		.align	1
 872              		.global	CySysWdtReadMatch
 873              		.code	16
 874              		.thumb_func
 875              		.type	CySysWdtReadMatch, %function
 876              	CySysWdtReadMatch:
 877              	.LFB23:
1485:.\Generated_Source\PSoC4/CyLib.c **** 
1486:.\Generated_Source\PSoC4/CyLib.c **** 
1487:.\Generated_Source\PSoC4/CyLib.c ****     /*******************************************************************************
ARM GAS  C:\Users\Pablo\AppData\Local\Temp\ccDGsedh.s 			page 43


1488:.\Generated_Source\PSoC4/CyLib.c ****     * Function Name: CySysWdtReadMatch
1489:.\Generated_Source\PSoC4/CyLib.c ****     ********************************************************************************
1490:.\Generated_Source\PSoC4/CyLib.c ****     *
1491:.\Generated_Source\PSoC4/CyLib.c ****     * Summary:
1492:.\Generated_Source\PSoC4/CyLib.c ****     *  Reads the WDT counter match comparison value.
1493:.\Generated_Source\PSoC4/CyLib.c ****     *
1494:.\Generated_Source\PSoC4/CyLib.c ****     * Parameters:
1495:.\Generated_Source\PSoC4/CyLib.c ****     *  counterNum: Valid range [0-1].  Number of the WDT counter.  Match values
1496:.\Generated_Source\PSoC4/CyLib.c ****     *               are not supported by counter 2.
1497:.\Generated_Source\PSoC4/CyLib.c ****     *
1498:.\Generated_Source\PSoC4/CyLib.c ****     * Return:
1499:.\Generated_Source\PSoC4/CyLib.c ****     *  16-bit match value.
1500:.\Generated_Source\PSoC4/CyLib.c ****     *
1501:.\Generated_Source\PSoC4/CyLib.c ****     *******************************************************************************/
1502:.\Generated_Source\PSoC4/CyLib.c ****     uint32 CySysWdtReadMatch(uint32 counterNum)
1503:.\Generated_Source\PSoC4/CyLib.c ****     {
 878              		.loc 1 1503 0
 879              		.cfi_startproc
 880              	.LVL64:
1504:.\Generated_Source\PSoC4/CyLib.c ****         CYASSERT((counterNum == CY_SYS_WDT_COUNTER0) ||
1505:.\Generated_Source\PSoC4/CyLib.c ****                  (counterNum == CY_SYS_WDT_COUNTER1));
1506:.\Generated_Source\PSoC4/CyLib.c **** 
1507:.\Generated_Source\PSoC4/CyLib.c ****         return ((uint32)(CY_SYS_WDT_MATCH_REG >> (counterNum * CY_SYS_WDT_CNT_MATCH_SHIFT)) & CY_SY
 881              		.loc 1 1507 0
 882 0000 024B     		ldr	r3, .L100
 883 0002 0001     		lsl	r0, r0, #4
 884              	.LVL65:
 885 0004 1B68     		ldr	r3, [r3]
1508:.\Generated_Source\PSoC4/CyLib.c ****     }
 886              		.loc 1 1508 0
 887              		@ sp needed
1507:.\Generated_Source\PSoC4/CyLib.c ****         return ((uint32)(CY_SYS_WDT_MATCH_REG >> (counterNum * CY_SYS_WDT_CNT_MATCH_SHIFT)) & CY_SY
 888              		.loc 1 1507 0
 889 0006 C340     		lsr	r3, r3, r0
 890 0008 98B2     		uxth	r0, r3
 891              		.loc 1 1508 0
 892 000a 7047     		bx	lr
 893              	.L101:
 894              		.align	2
 895              	.L100:
 896 000c 08020B40 		.word	1074463240
 897              		.cfi_endproc
 898              	.LFE23:
 899              		.size	CySysWdtReadMatch, .-CySysWdtReadMatch
 900              		.section	.text.CySysWdtReadCount,"ax",%progbits
 901              		.align	1
 902              		.global	CySysWdtReadCount
 903              		.code	16
 904              		.thumb_func
 905              		.type	CySysWdtReadCount, %function
 906              	CySysWdtReadCount:
 907              	.LFB24:
1509:.\Generated_Source\PSoC4/CyLib.c **** 
1510:.\Generated_Source\PSoC4/CyLib.c **** 
1511:.\Generated_Source\PSoC4/CyLib.c ****     /*******************************************************************************
1512:.\Generated_Source\PSoC4/CyLib.c ****     * Function Name: CySysWdtReadCount
1513:.\Generated_Source\PSoC4/CyLib.c ****     ********************************************************************************
ARM GAS  C:\Users\Pablo\AppData\Local\Temp\ccDGsedh.s 			page 44


1514:.\Generated_Source\PSoC4/CyLib.c ****     *
1515:.\Generated_Source\PSoC4/CyLib.c ****     * Summary:
1516:.\Generated_Source\PSoC4/CyLib.c ****     *  Reads the current WDT counter value.
1517:.\Generated_Source\PSoC4/CyLib.c ****     *
1518:.\Generated_Source\PSoC4/CyLib.c ****     * Parameters:
1519:.\Generated_Source\PSoC4/CyLib.c ****     *  counterNum: Valid range [0-2].  Number of the WDT counter.
1520:.\Generated_Source\PSoC4/CyLib.c ****     *
1521:.\Generated_Source\PSoC4/CyLib.c ****     * Return:
1522:.\Generated_Source\PSoC4/CyLib.c ****     *  Live counter value.  Counter 0 and 1 are 16 bit counters and counter
1523:.\Generated_Source\PSoC4/CyLib.c ****     *  2 is a 32 bit counter.
1524:.\Generated_Source\PSoC4/CyLib.c ****     *
1525:.\Generated_Source\PSoC4/CyLib.c ****     *******************************************************************************/
1526:.\Generated_Source\PSoC4/CyLib.c ****     uint32 CySysWdtReadCount(uint32 counterNum)
1527:.\Generated_Source\PSoC4/CyLib.c ****     {
 908              		.loc 1 1527 0
 909              		.cfi_startproc
 910              	.LVL66:
1528:.\Generated_Source\PSoC4/CyLib.c ****         uint32 regValue = 0u;
1529:.\Generated_Source\PSoC4/CyLib.c **** 
1530:.\Generated_Source\PSoC4/CyLib.c ****         switch(counterNum)
 911              		.loc 1 1530 0
 912 0000 0128     		cmp	r0, #1
 913 0002 0AD0     		beq	.L104
 914 0004 0028     		cmp	r0, #0
 915 0006 04D0     		beq	.L105
 916 0008 0228     		cmp	r0, #2
 917 000a 0AD1     		bne	.L109
1531:.\Generated_Source\PSoC4/CyLib.c ****         {
1532:.\Generated_Source\PSoC4/CyLib.c ****             /* WDT Counter 0 */
1533:.\Generated_Source\PSoC4/CyLib.c ****             case 0u:
1534:.\Generated_Source\PSoC4/CyLib.c ****                 regValue = CY_SYS_WDT_CTRLOW_REG & CY_SYS_WDT_LOWER_16BITS_MASK;
1535:.\Generated_Source\PSoC4/CyLib.c ****             break;
1536:.\Generated_Source\PSoC4/CyLib.c **** 
1537:.\Generated_Source\PSoC4/CyLib.c ****             /* WDT Counter 1 */
1538:.\Generated_Source\PSoC4/CyLib.c ****             case 1u:
1539:.\Generated_Source\PSoC4/CyLib.c ****                 regValue = (CY_SYS_WDT_CTRLOW_REG >> CY_SYS_WDT_CNT_MATCH_SHIFT) & CY_SYS_WDT_LOWER
1540:.\Generated_Source\PSoC4/CyLib.c ****             break;
1541:.\Generated_Source\PSoC4/CyLib.c **** 
1542:.\Generated_Source\PSoC4/CyLib.c ****             /* WDT Counter 2 */
1543:.\Generated_Source\PSoC4/CyLib.c ****             case 2u:
1544:.\Generated_Source\PSoC4/CyLib.c ****                 regValue = CY_SYS_WDT_CTRHIGH_REG;
 918              		.loc 1 1544 0
 919 000c 064B     		ldr	r3, .L110
 920 000e 1868     		ldr	r0, [r3]
 921              	.LVL67:
1545:.\Generated_Source\PSoC4/CyLib.c ****             break;
 922              		.loc 1 1545 0
 923 0010 08E0     		b	.L103
 924              	.LVL68:
 925              	.L105:
1534:.\Generated_Source\PSoC4/CyLib.c ****                 regValue = CY_SYS_WDT_CTRLOW_REG & CY_SYS_WDT_LOWER_16BITS_MASK;
 926              		.loc 1 1534 0
 927 0012 064B     		ldr	r3, .L110+4
 928 0014 1868     		ldr	r0, [r3]
 929              	.LVL69:
 930 0016 80B2     		uxth	r0, r0
 931              	.LVL70:
ARM GAS  C:\Users\Pablo\AppData\Local\Temp\ccDGsedh.s 			page 45


1535:.\Generated_Source\PSoC4/CyLib.c ****             break;
 932              		.loc 1 1535 0
 933 0018 04E0     		b	.L103
 934              	.LVL71:
 935              	.L104:
1539:.\Generated_Source\PSoC4/CyLib.c ****                 regValue = (CY_SYS_WDT_CTRLOW_REG >> CY_SYS_WDT_CNT_MATCH_SHIFT) & CY_SYS_WDT_LOWER
 936              		.loc 1 1539 0
 937 001a 044B     		ldr	r3, .L110+4
 938 001c 1868     		ldr	r0, [r3]
 939              	.LVL72:
 940 001e 000C     		lsr	r0, r0, #16
 941              	.LVL73:
1540:.\Generated_Source\PSoC4/CyLib.c ****             break;
 942              		.loc 1 1540 0
 943 0020 00E0     		b	.L103
 944              	.LVL74:
 945              	.L109:
1528:.\Generated_Source\PSoC4/CyLib.c ****         uint32 regValue = 0u;
 946              		.loc 1 1528 0
 947 0022 0020     		mov	r0, #0
 948              	.LVL75:
 949              	.L103:
1546:.\Generated_Source\PSoC4/CyLib.c **** 
1547:.\Generated_Source\PSoC4/CyLib.c ****             default:
1548:.\Generated_Source\PSoC4/CyLib.c ****                 CYASSERT(0u != 0u);
1549:.\Generated_Source\PSoC4/CyLib.c ****             break;
1550:.\Generated_Source\PSoC4/CyLib.c ****         }
1551:.\Generated_Source\PSoC4/CyLib.c **** 
1552:.\Generated_Source\PSoC4/CyLib.c ****         return (regValue);
1553:.\Generated_Source\PSoC4/CyLib.c ****     }
 950              		.loc 1 1553 0
 951              		@ sp needed
 952 0024 7047     		bx	lr
 953              	.L111:
 954 0026 C046     		.align	2
 955              	.L110:
 956 0028 04020B40 		.word	1074463236
 957 002c 00020B40 		.word	1074463232
 958              		.cfi_endproc
 959              	.LFE24:
 960              		.size	CySysWdtReadCount, .-CySysWdtReadCount
 961              		.section	.text.CySysClkIloStop,"ax",%progbits
 962              		.align	1
 963              		.global	CySysClkIloStop
 964              		.code	16
 965              		.thumb_func
 966              		.type	CySysClkIloStop, %function
 967              	CySysClkIloStop:
 968              	.LFB3:
 159:.\Generated_Source\PSoC4/CyLib.c **** {
 969              		.loc 1 159 0
 970              		.cfi_startproc
 971 0000 F7B5     		push	{r0, r1, r2, r4, r5, r6, r7, lr}
 972              		.cfi_def_cfa_offset 32
 973              		.cfi_offset 0, -32
 974              		.cfi_offset 1, -28
 975              		.cfi_offset 2, -24
ARM GAS  C:\Users\Pablo\AppData\Local\Temp\ccDGsedh.s 			page 46


 976              		.cfi_offset 4, -20
 977              		.cfi_offset 5, -16
 978              		.cfi_offset 6, -12
 979              		.cfi_offset 7, -8
 980              		.cfi_offset 14, -4
 981              	.LBB74:
 982              	.LBB75:
 995:.\Generated_Source\PSoC4/CyLib.c ****         return ((0u != (CY_SYS_CLK_SELECT_REG & (uint32)(CY_SYS_WDT_CLK_LOCK_BITS_MASK))) ? (uint32
 983              		.loc 1 995 0
 984 0002 274B     		ldr	r3, .L129
 985 0004 1A68     		ldr	r2, [r3]
 986 0006 C023     		mov	r3, #192
 987 0008 1B02     		lsl	r3, r3, #8
 988 000a 1A40     		and	r2, r3
 989 000c 0092     		str	r2, [sp]
 990 000e 46D1     		bne	.L112
 991              	.LBE75:
 992              	.LBE74:
 993              	.LBB76:
 994              	.LBB77:
 213:.\Generated_Source\PSoC4/CyLib.c ****         return ((0u != (CY_SYS_CLK_ILO_CONFIG_REG & (uint32)(CY_SYS_CLK_ILO_CONFIG_ENABLE))) ?
 995              		.loc 1 213 0
 996 0010 244F     		ldr	r7, .L129+4
 997 0012 3B68     		ldr	r3, [r7]
 214:.\Generated_Source\PSoC4/CyLib.c ****             (uint32) 1u :
 998              		.loc 1 214 0
 999 0014 002B     		cmp	r3, #0
 1000 0016 42DA     		bge	.L112
 1001              	.LBE77:
 1002              	.LBE76:
 174:.\Generated_Source\PSoC4/CyLib.c ****                 interruptState = CyEnterCriticalSection();
 1003              		.loc 1 174 0
 1004 0018 FFF7FEFF 		bl	CyEnterCriticalSection
 1005              	.LVL76:
 1006              	.LBB78:
 1007              	.LBB79:
 1008              	.LBB80:
 1009              	.LBB81:
1053:.\Generated_Source\PSoC4/CyLib.c ****         return ((CY_SYS_WDT_CONTROL_REG >> ((CY_SYS_WDT_CNT_SHIFT * counterNum) + CY_SYS_WDT_CNT_ST
 1010              		.loc 1 1053 0
 1011 001c 224E     		ldr	r6, .L129+8
 1012              	.LBE81:
 1013              	.LBE80:
 1014              	.LBE79:
 1015              	.LBE78:
 174:.\Generated_Source\PSoC4/CyLib.c ****                 interruptState = CyEnterCriticalSection();
 1016              		.loc 1 174 0
 1017 001e 0190     		str	r0, [sp, #4]
 1018              	.LVL77:
 1019              	.LBB93:
 1020              	.LBB92:
 1021              	.LBB83:
 1022              	.LBB82:
1053:.\Generated_Source\PSoC4/CyLib.c ****         return ((CY_SYS_WDT_CONTROL_REG >> ((CY_SYS_WDT_CNT_SHIFT * counterNum) + CY_SYS_WDT_CNT_ST
 1023              		.loc 1 1053 0
 1024 0020 3368     		ldr	r3, [r6]
 1025 0022 0125     		mov	r5, #1
ARM GAS  C:\Users\Pablo\AppData\Local\Temp\ccDGsedh.s 			page 47


 1026 0024 214C     		ldr	r4, .L129+12
 1027              	.LBE82:
 1028              	.LBE83:
1554:.\Generated_Source\PSoC4/CyLib.c **** 
1555:.\Generated_Source\PSoC4/CyLib.c **** 
1556:.\Generated_Source\PSoC4/CyLib.c ****     /*******************************************************************************
1557:.\Generated_Source\PSoC4/CyLib.c ****     * Function Name: CySysWdtGetInterruptSource
1558:.\Generated_Source\PSoC4/CyLib.c ****     ********************************************************************************
1559:.\Generated_Source\PSoC4/CyLib.c ****     *
1560:.\Generated_Source\PSoC4/CyLib.c ****     * Summary:
1561:.\Generated_Source\PSoC4/CyLib.c ****     *   Reads a mask containing all the WDT counters interrupts that are currently
1562:.\Generated_Source\PSoC4/CyLib.c ****     *   set by the hardware, if a corresponding mode is selected.
1563:.\Generated_Source\PSoC4/CyLib.c ****     *
1564:.\Generated_Source\PSoC4/CyLib.c ****     * Parameters:
1565:.\Generated_Source\PSoC4/CyLib.c ****     *   None
1566:.\Generated_Source\PSoC4/CyLib.c ****     *
1567:.\Generated_Source\PSoC4/CyLib.c ****     * Return:
1568:.\Generated_Source\PSoC4/CyLib.c ****     *   Mask of interrupts set.
1569:.\Generated_Source\PSoC4/CyLib.c ****     *   Define                    Counter
1570:.\Generated_Source\PSoC4/CyLib.c ****     *   CY_SYS_WDT_COUNTER0_INT    0
1571:.\Generated_Source\PSoC4/CyLib.c ****     *   CY_SYS_WDT_COUNTER1_INT    1
1572:.\Generated_Source\PSoC4/CyLib.c ****     *   CY_SYS_WDT_COUNTER2_INT    2
1573:.\Generated_Source\PSoC4/CyLib.c ****     *
1574:.\Generated_Source\PSoC4/CyLib.c ****     *******************************************************************************/
1575:.\Generated_Source\PSoC4/CyLib.c ****     uint32 CySysWdtGetInterruptSource(void)
1576:.\Generated_Source\PSoC4/CyLib.c ****     {
1577:.\Generated_Source\PSoC4/CyLib.c ****         return (CY_SYS_WDT_CONTROL_REG & (CY_SYS_WDT_COUNTER0_INT | CY_SYS_WDT_COUNTER1_INT | CY_SY
1578:.\Generated_Source\PSoC4/CyLib.c ****     }
1579:.\Generated_Source\PSoC4/CyLib.c **** 
1580:.\Generated_Source\PSoC4/CyLib.c **** 
1581:.\Generated_Source\PSoC4/CyLib.c ****     /*******************************************************************************
1582:.\Generated_Source\PSoC4/CyLib.c ****     * Function Name: CySysWdtClearInterrupt
1583:.\Generated_Source\PSoC4/CyLib.c ****     ********************************************************************************
1584:.\Generated_Source\PSoC4/CyLib.c ****     *
1585:.\Generated_Source\PSoC4/CyLib.c ****     * Summary:
1586:.\Generated_Source\PSoC4/CyLib.c ****     *   Clears all the WDT counter interrupts set in the mask. Calling this function
1587:.\Generated_Source\PSoC4/CyLib.c ****     *   also prevents Reset from happening when the counter mode is set to generate
1588:.\Generated_Source\PSoC4/CyLib.c ****     *   3 interrupts and then reset the device.
1589:.\Generated_Source\PSoC4/CyLib.c ****     *
1590:.\Generated_Source\PSoC4/CyLib.c ****     *   All the WDT interrupts are to be cleared by the firmware, otherwise interrupts
1591:.\Generated_Source\PSoC4/CyLib.c ****     *   will be generated continuously.
1592:.\Generated_Source\PSoC4/CyLib.c ****     *
1593:.\Generated_Source\PSoC4/CyLib.c ****     * Parameters:
1594:.\Generated_Source\PSoC4/CyLib.c ****     *   counterMask: Mask of all counters to enable
1595:.\Generated_Source\PSoC4/CyLib.c ****     *   Define                    Counter
1596:.\Generated_Source\PSoC4/CyLib.c ****     *   CY_SYS_WDT_COUNTER0_INT    0
1597:.\Generated_Source\PSoC4/CyLib.c ****     *   CY_SYS_WDT_COUNTER1_INT    1
1598:.\Generated_Source\PSoC4/CyLib.c ****     *   CY_SYS_WDT_COUNTER2_INT    2
1599:.\Generated_Source\PSoC4/CyLib.c ****     *
1600:.\Generated_Source\PSoC4/CyLib.c ****     * Return:
1601:.\Generated_Source\PSoC4/CyLib.c ****     *   None
1602:.\Generated_Source\PSoC4/CyLib.c ****     *
1603:.\Generated_Source\PSoC4/CyLib.c ****     * Side effects:
1604:.\Generated_Source\PSoC4/CyLib.c ****     *   This function temporary removes the watchdog lock, if it was set, and
1605:.\Generated_Source\PSoC4/CyLib.c ****     *   restores the lock state, after cleaning the WDT interrupts, that are set in
1606:.\Generated_Source\PSoC4/CyLib.c ****     *   a mask.
1607:.\Generated_Source\PSoC4/CyLib.c ****     *
ARM GAS  C:\Users\Pablo\AppData\Local\Temp\ccDGsedh.s 			page 48


1608:.\Generated_Source\PSoC4/CyLib.c ****     *******************************************************************************/
1609:.\Generated_Source\PSoC4/CyLib.c ****     void CySysWdtClearInterrupt(uint32 counterMask)
1610:.\Generated_Source\PSoC4/CyLib.c ****     {
1611:.\Generated_Source\PSoC4/CyLib.c ****         uint8 interruptState;
1612:.\Generated_Source\PSoC4/CyLib.c ****         uint32 wdtLockState;
1613:.\Generated_Source\PSoC4/CyLib.c **** 
1614:.\Generated_Source\PSoC4/CyLib.c ****         interruptState = CyEnterCriticalSection();
1615:.\Generated_Source\PSoC4/CyLib.c **** 
1616:.\Generated_Source\PSoC4/CyLib.c ****         if (0u != CySysWdtLocked())
1617:.\Generated_Source\PSoC4/CyLib.c ****         {
1618:.\Generated_Source\PSoC4/CyLib.c ****             wdtLockState = 1u;
1619:.\Generated_Source\PSoC4/CyLib.c ****             CySysWdtUnlock();
1620:.\Generated_Source\PSoC4/CyLib.c ****         }
1621:.\Generated_Source\PSoC4/CyLib.c ****         else
1622:.\Generated_Source\PSoC4/CyLib.c ****         {
1623:.\Generated_Source\PSoC4/CyLib.c ****             wdtLockState = 0u;
1624:.\Generated_Source\PSoC4/CyLib.c ****         }
1625:.\Generated_Source\PSoC4/CyLib.c **** 
1626:.\Generated_Source\PSoC4/CyLib.c ****         /* Set new WDT control register value */
1627:.\Generated_Source\PSoC4/CyLib.c ****         counterMask &= (CY_SYS_WDT_COUNTER0_INT |
1628:.\Generated_Source\PSoC4/CyLib.c ****                         CY_SYS_WDT_COUNTER1_INT |
1629:.\Generated_Source\PSoC4/CyLib.c ****                         CY_SYS_WDT_COUNTER2_INT);
1630:.\Generated_Source\PSoC4/CyLib.c **** 
1631:.\Generated_Source\PSoC4/CyLib.c ****         CY_SYS_WDT_CONTROL_REG = counterMask | (CY_SYS_WDT_CONTROL_REG & ~(CY_SYS_WDT_COUNTER0_INT 
1632:.\Generated_Source\PSoC4/CyLib.c ****                                                                            CY_SYS_WDT_COUNTER1_INT 
1633:.\Generated_Source\PSoC4/CyLib.c ****                                                                            CY_SYS_WDT_COUNTER2_INT)
1634:.\Generated_Source\PSoC4/CyLib.c **** 
1635:.\Generated_Source\PSoC4/CyLib.c ****         if (1u == wdtLockState)
1636:.\Generated_Source\PSoC4/CyLib.c ****         {
1637:.\Generated_Source\PSoC4/CyLib.c ****             CySysWdtLock();
1638:.\Generated_Source\PSoC4/CyLib.c ****         }
1639:.\Generated_Source\PSoC4/CyLib.c **** 
1640:.\Generated_Source\PSoC4/CyLib.c ****         CyExitCriticalSection(interruptState);
1641:.\Generated_Source\PSoC4/CyLib.c ****     }
1642:.\Generated_Source\PSoC4/CyLib.c **** 
1643:.\Generated_Source\PSoC4/CyLib.c **** 
1644:.\Generated_Source\PSoC4/CyLib.c ****     /*******************************************************************************
1645:.\Generated_Source\PSoC4/CyLib.c ****     * Function Name: CySysWdtResetCounters
1646:.\Generated_Source\PSoC4/CyLib.c ****     ********************************************************************************
1647:.\Generated_Source\PSoC4/CyLib.c ****     *
1648:.\Generated_Source\PSoC4/CyLib.c ****     * Summary:
1649:.\Generated_Source\PSoC4/CyLib.c ****     *  Resets all WDT counters set in the mask.
1650:.\Generated_Source\PSoC4/CyLib.c ****     *
1651:.\Generated_Source\PSoC4/CyLib.c ****     * Parameters:
1652:.\Generated_Source\PSoC4/CyLib.c ****     *  counterMask: Mask of all counters to reset.
1653:.\Generated_Source\PSoC4/CyLib.c ****     *   Define                       Counter
1654:.\Generated_Source\PSoC4/CyLib.c ****     *   CY_SYS_WDT_COUNTER0_RESET    0
1655:.\Generated_Source\PSoC4/CyLib.c ****     *   CY_SYS_WDT_COUNTER1_RESET    1
1656:.\Generated_Source\PSoC4/CyLib.c ****     *   CY_SYS_WDT_COUNTER2_RESET    2
1657:.\Generated_Source\PSoC4/CyLib.c ****     *
1658:.\Generated_Source\PSoC4/CyLib.c ****     * Return:
1659:.\Generated_Source\PSoC4/CyLib.c ****     *   None
1660:.\Generated_Source\PSoC4/CyLib.c ****     *
1661:.\Generated_Source\PSoC4/CyLib.c ****     * Side effects:
1662:.\Generated_Source\PSoC4/CyLib.c ****     *   This function will not reset counter values if the Watchdog is locked.
1663:.\Generated_Source\PSoC4/CyLib.c ****     *
1664:.\Generated_Source\PSoC4/CyLib.c ****     *******************************************************************************/
ARM GAS  C:\Users\Pablo\AppData\Local\Temp\ccDGsedh.s 			page 49


1665:.\Generated_Source\PSoC4/CyLib.c ****     void CySysWdtResetCounters(uint32 countersMask)
1666:.\Generated_Source\PSoC4/CyLib.c ****     {
1667:.\Generated_Source\PSoC4/CyLib.c ****         /* Set new WDT reset value */
1668:.\Generated_Source\PSoC4/CyLib.c ****         CY_SYS_WDT_CONTROL_REG |= (countersMask & (CY_SYS_WDT_COUNTER0_RESET |
1669:.\Generated_Source\PSoC4/CyLib.c ****             CY_SYS_WDT_COUNTER1_RESET | CY_SYS_WDT_COUNTER2_RESET));
1670:.\Generated_Source\PSoC4/CyLib.c ****     }
1671:.\Generated_Source\PSoC4/CyLib.c **** 
1672:.\Generated_Source\PSoC4/CyLib.c **** 
1673:.\Generated_Source\PSoC4/CyLib.c ****     /*******************************************************************************
1674:.\Generated_Source\PSoC4/CyLib.c ****     * Function Name: CySysClkLfclkPosedgeCatch
1675:.\Generated_Source\PSoC4/CyLib.c ****     ********************************************************************************
1676:.\Generated_Source\PSoC4/CyLib.c ****     *
1677:.\Generated_Source\PSoC4/CyLib.c ****     * Summary:
1678:.\Generated_Source\PSoC4/CyLib.c ****     *  Returns once LFCLK positive edge occurred.
1679:.\Generated_Source\PSoC4/CyLib.c ****     *
1680:.\Generated_Source\PSoC4/CyLib.c ****     *  The CySysClkLfclkPosedgeRestore() should be called after this function in
1681:.\Generated_Source\PSoC4/CyLib.c ****     *  order to restore WDT configuration.
1682:.\Generated_Source\PSoC4/CyLib.c ****     *
1683:.\Generated_Source\PSoC4/CyLib.c ****     *  The pair of the CySysClkLfclkPosedgeCatch() and CySysClkLfclkPosedgeRestore()
1684:.\Generated_Source\PSoC4/CyLib.c ****     *  functions expected to be called inside of a critical section.
1685:.\Generated_Source\PSoC4/CyLib.c ****     *
1686:.\Generated_Source\PSoC4/CyLib.c ****     *  To ensure that the WDT counter value is read until it changes. The enabled
1687:.\Generated_Source\PSoC4/CyLib.c ****     *  WDT counter is used for that purpose. If no counters are enabled, the counter
1688:.\Generated_Source\PSoC4/CyLib.c ****     *  0 is enabled. And after LFCLK source is switched, the counter 0 configuration
1689:.\Generated_Source\PSoC4/CyLib.c ****     *  is restored back.
1690:.\Generated_Source\PSoC4/CyLib.c ****     *
1691:.\Generated_Source\PSoC4/CyLib.c ****     *  Not applicable for the PSoC 4000 devices.
1692:.\Generated_Source\PSoC4/CyLib.c ****     *
1693:.\Generated_Source\PSoC4/CyLib.c ****     * Parameters:
1694:.\Generated_Source\PSoC4/CyLib.c ****     *  None
1695:.\Generated_Source\PSoC4/CyLib.c ****     *
1696:.\Generated_Source\PSoC4/CyLib.c ****     * Return:
1697:.\Generated_Source\PSoC4/CyLib.c ****     *  None
1698:.\Generated_Source\PSoC4/CyLib.c ****     *
1699:.\Generated_Source\PSoC4/CyLib.c ****     * Side Effects:
1700:.\Generated_Source\PSoC4/CyLib.c ****     *  This function will have no effect if the WDT is locked (CySysWdtLock() is
1701:.\Generated_Source\PSoC4/CyLib.c ****     *  called). Call CySysWdtUnlock() to unlock the WDT.
1702:.\Generated_Source\PSoC4/CyLib.c ****     *
1703:.\Generated_Source\PSoC4/CyLib.c ****     *******************************************************************************/
1704:.\Generated_Source\PSoC4/CyLib.c ****     static void CySysClkLfclkPosedgeCatch(void)
1705:.\Generated_Source\PSoC4/CyLib.c ****     {
1706:.\Generated_Source\PSoC4/CyLib.c ****         uint32 firstCount;
1707:.\Generated_Source\PSoC4/CyLib.c **** 
1708:.\Generated_Source\PSoC4/CyLib.c ****         if (0u != CySysWdtReadEnabledStatus(CY_SYS_WDT_COUNTER0))
 1029              		.loc 1 1708 0
 1030 0026 9A07     		lsl	r2, r3, #30
 1031 0028 02D5     		bpl	.L128
1709:.\Generated_Source\PSoC4/CyLib.c ****         {
1710:.\Generated_Source\PSoC4/CyLib.c ****             lfclkPosedgeEnabledWdtCounter = CY_SYS_WDT_COUNTER0;
 1032              		.loc 1 1710 0
 1033 002a 009A     		ldr	r2, [sp]
 1034 002c 2260     		str	r2, [r4]
 1035 002e 19E0     		b	.L115
 1036              	.L128:
 1037              	.LVL78:
 1038              	.LBB84:
 1039              	.LBB85:
ARM GAS  C:\Users\Pablo\AppData\Local\Temp\ccDGsedh.s 			page 50


1053:.\Generated_Source\PSoC4/CyLib.c ****         return ((CY_SYS_WDT_CONTROL_REG >> ((CY_SYS_WDT_CNT_SHIFT * counterNum) + CY_SYS_WDT_CNT_ST
 1040              		.loc 1 1053 0
 1041 0030 3368     		ldr	r3, [r6]
 1042 0032 5B0A     		lsr	r3, r3, #9
 1043              	.LBE85:
 1044              	.LBE84:
1711:.\Generated_Source\PSoC4/CyLib.c ****         }
1712:.\Generated_Source\PSoC4/CyLib.c ****         else if (0u != CySysWdtReadEnabledStatus(CY_SYS_WDT_COUNTER1))
 1045              		.loc 1 1712 0
 1046 0034 2B42     		tst	r3, r5
 1047 0036 01D0     		beq	.L116
1713:.\Generated_Source\PSoC4/CyLib.c ****         {
1714:.\Generated_Source\PSoC4/CyLib.c ****             lfclkPosedgeEnabledWdtCounter = CY_SYS_WDT_COUNTER1;
 1048              		.loc 1 1714 0
 1049 0038 2560     		str	r5, [r4]
 1050 003a 13E0     		b	.L115
 1051              	.L116:
 1052              	.LVL79:
 1053              	.LBB86:
 1054              	.LBB87:
1053:.\Generated_Source\PSoC4/CyLib.c ****         return ((CY_SYS_WDT_CONTROL_REG >> ((CY_SYS_WDT_CNT_SHIFT * counterNum) + CY_SYS_WDT_CNT_ST
 1055              		.loc 1 1053 0
 1056 003c 3168     		ldr	r1, [r6]
 1057 003e 490C     		lsr	r1, r1, #17
 1058 0040 2940     		and	r1, r5
 1059              	.LBE87:
 1060              	.LBE86:
1715:.\Generated_Source\PSoC4/CyLib.c ****         }
1716:.\Generated_Source\PSoC4/CyLib.c ****         else if (0u != CySysWdtReadEnabledStatus(CY_SYS_WDT_COUNTER2))
 1061              		.loc 1 1716 0
 1062 0042 02D0     		beq	.L117
1717:.\Generated_Source\PSoC4/CyLib.c ****         {
1718:.\Generated_Source\PSoC4/CyLib.c ****             lfclkPosedgeEnabledWdtCounter = CY_SYS_WDT_COUNTER2;
 1063              		.loc 1 1718 0
 1064 0044 0223     		mov	r3, #2
 1065 0046 2360     		str	r3, [r4]
 1066 0048 0CE0     		b	.L115
 1067              	.L117:
 1068              	.LBB88:
 1069              	.LBB89:
1119:.\Generated_Source\PSoC4/CyLib.c ****         return ((CY_SYS_WDT_CONFIG_REG >> (counterNum * CY_SYS_WDT_CNT_SHIFT)) & CY_SYS_WDT_MODE_MA
 1070              		.loc 1 1119 0
 1071 004a 194B     		ldr	r3, .L129+16
 1072              	.LBE89:
 1073              	.LBE88:
1719:.\Generated_Source\PSoC4/CyLib.c ****         }
1720:.\Generated_Source\PSoC4/CyLib.c ****         else /* All WDT counters are disabled */
1721:.\Generated_Source\PSoC4/CyLib.c ****         {
1722:.\Generated_Source\PSoC4/CyLib.c ****             /* Configure WDT counter # 0 */
1723:.\Generated_Source\PSoC4/CyLib.c ****             lfclkPosedgeWdtCounter0Enabled = 1u;
 1074              		.loc 1 1723 0
 1075 004c 6560     		str	r5, [r4, #4]
1724:.\Generated_Source\PSoC4/CyLib.c ****             lfclkPosedgeEnabledWdtCounter = CY_SYS_WDT_COUNTER0;
 1076              		.loc 1 1724 0
 1077 004e 2160     		str	r1, [r4]
 1078              	.LVL80:
 1079              	.LBB91:
ARM GAS  C:\Users\Pablo\AppData\Local\Temp\ccDGsedh.s 			page 51


 1080              	.LBB90:
1119:.\Generated_Source\PSoC4/CyLib.c ****         return ((CY_SYS_WDT_CONFIG_REG >> (counterNum * CY_SYS_WDT_CNT_SHIFT)) & CY_SYS_WDT_MODE_MA
 1081              		.loc 1 1119 0
 1082 0050 1A68     		ldr	r2, [r3]
 1083 0052 0323     		mov	r3, #3
 1084 0054 1340     		and	r3, r2
 1085              	.LBE90:
 1086              	.LBE91:
1725:.\Generated_Source\PSoC4/CyLib.c **** 
1726:.\Generated_Source\PSoC4/CyLib.c ****             lfclkPosedgeWdtCounter0Mode = CySysWdtReadMode(CY_SYS_WDT_COUNTER0);
1727:.\Generated_Source\PSoC4/CyLib.c ****             CySysWdtWriteMode(CY_SYS_WDT_COUNTER0, CY_SYS_WDT_MODE_NONE);
 1087              		.loc 1 1727 0
 1088 0056 081C     		mov	r0, r1
1726:.\Generated_Source\PSoC4/CyLib.c ****             lfclkPosedgeWdtCounter0Mode = CySysWdtReadMode(CY_SYS_WDT_COUNTER0);
 1089              		.loc 1 1726 0
 1090 0058 A360     		str	r3, [r4, #8]
 1091              		.loc 1 1727 0
 1092 005a FFF7FEFF 		bl	CySysWdtWriteMode
 1093              	.LVL81:
1728:.\Generated_Source\PSoC4/CyLib.c ****             CySysWdtEnable(CY_SYS_WDT_COUNTER0_MASK);
 1094              		.loc 1 1728 0
 1095 005e 281C     		mov	r0, r5
 1096 0060 FFF7FEFF 		bl	CySysWdtEnable
 1097              	.LVL82:
 1098              	.L115:
1729:.\Generated_Source\PSoC4/CyLib.c ****         }
1730:.\Generated_Source\PSoC4/CyLib.c **** 
1731:.\Generated_Source\PSoC4/CyLib.c ****         firstCount = CySysWdtReadCount(lfclkPosedgeEnabledWdtCounter);
 1099              		.loc 1 1731 0
 1100 0064 2068     		ldr	r0, [r4]
 1101 0066 FFF7FEFF 		bl	CySysWdtReadCount
 1102              	.LVL83:
 1103 006a 051C     		mov	r5, r0
 1104              	.LVL84:
 1105              	.L119:
1732:.\Generated_Source\PSoC4/CyLib.c ****         while (CySysWdtReadCount(lfclkPosedgeEnabledWdtCounter) == firstCount)
 1106              		.loc 1 1732 0
 1107 006c 2068     		ldr	r0, [r4]
 1108 006e FFF7FEFF 		bl	CySysWdtReadCount
 1109              	.LVL85:
 1110 0072 A842     		cmp	r0, r5
 1111 0074 FAD0     		beq	.L119
 1112              	.LBE92:
 1113              	.LBE93:
 176:.\Generated_Source\PSoC4/CyLib.c ****                 CY_SYS_CLK_ILO_CONFIG_REG &= ( uint32 ) ( ~( uint32 )CY_SYS_CLK_ILO_CONFIG_ENABLE);
 1114              		.loc 1 176 0
 1115 0076 3B68     		ldr	r3, [r7]
 1116 0078 5B00     		lsl	r3, r3, #1
 1117 007a 5B08     		lsr	r3, r3, #1
 1118 007c 3B60     		str	r3, [r7]
 1119              	.LBB94:
 1120              	.LBB95:
1733:.\Generated_Source\PSoC4/CyLib.c ****         {
1734:.\Generated_Source\PSoC4/CyLib.c ****             /* Wait for counter to increment */
1735:.\Generated_Source\PSoC4/CyLib.c ****         }
1736:.\Generated_Source\PSoC4/CyLib.c ****     }
1737:.\Generated_Source\PSoC4/CyLib.c **** 
ARM GAS  C:\Users\Pablo\AppData\Local\Temp\ccDGsedh.s 			page 52


1738:.\Generated_Source\PSoC4/CyLib.c **** 
1739:.\Generated_Source\PSoC4/CyLib.c ****     /*******************************************************************************
1740:.\Generated_Source\PSoC4/CyLib.c ****     * Function Name: CySysClkLfclkPosedgeRestore
1741:.\Generated_Source\PSoC4/CyLib.c ****     ********************************************************************************
1742:.\Generated_Source\PSoC4/CyLib.c ****     *
1743:.\Generated_Source\PSoC4/CyLib.c ****     * Summary:
1744:.\Generated_Source\PSoC4/CyLib.c ****     *  Restores WDT configuration after CySysClkLfclkPosedgeCatch() call.
1745:.\Generated_Source\PSoC4/CyLib.c ****     *
1746:.\Generated_Source\PSoC4/CyLib.c ****     *  The pair of the CySysClkLfclkPosedgeCatch() and CySysClkLfclkPosedgeRestore()
1747:.\Generated_Source\PSoC4/CyLib.c ****     *  functions expected to be called inside of a critical section.
1748:.\Generated_Source\PSoC4/CyLib.c ****     *
1749:.\Generated_Source\PSoC4/CyLib.c ****     *  Not applicable for the PSoC 4000 devices.
1750:.\Generated_Source\PSoC4/CyLib.c ****     *
1751:.\Generated_Source\PSoC4/CyLib.c ****     * Parameters:
1752:.\Generated_Source\PSoC4/CyLib.c ****     *  None
1753:.\Generated_Source\PSoC4/CyLib.c ****     *
1754:.\Generated_Source\PSoC4/CyLib.c ****     * Return:
1755:.\Generated_Source\PSoC4/CyLib.c ****     *  None
1756:.\Generated_Source\PSoC4/CyLib.c ****     *
1757:.\Generated_Source\PSoC4/CyLib.c ****     * Side Effects:
1758:.\Generated_Source\PSoC4/CyLib.c ****     *  This function will have no effect if the WDT is locked (CySysWdtLock() is
1759:.\Generated_Source\PSoC4/CyLib.c ****     *  called). Call CySysWdtUnlock() to unlock the WDT.
1760:.\Generated_Source\PSoC4/CyLib.c ****     *
1761:.\Generated_Source\PSoC4/CyLib.c ****     *******************************************************************************/
1762:.\Generated_Source\PSoC4/CyLib.c ****     static void CySysClkLfclkPosedgeRestore(void)
1763:.\Generated_Source\PSoC4/CyLib.c ****     {
1764:.\Generated_Source\PSoC4/CyLib.c ****         if (lfclkPosedgeWdtCounter0Enabled != 0u)
 1121              		.loc 1 1764 0
 1122 007e 6368     		ldr	r3, [r4, #4]
 1123 0080 002B     		cmp	r3, #0
 1124 0082 09D0     		beq	.L120
1765:.\Generated_Source\PSoC4/CyLib.c ****         {
1766:.\Generated_Source\PSoC4/CyLib.c ****             /* Restore counter # 0 configuration and force it's shutdown */
1767:.\Generated_Source\PSoC4/CyLib.c ****             CY_SYS_WDT_CONTROL_REG &= (uint32)(~CY_SYS_WDT_COUNTER0_MASK);
 1125              		.loc 1 1767 0
 1126 0084 3368     		ldr	r3, [r6]
 1127 0086 0122     		mov	r2, #1
 1128 0088 9343     		bic	r3, r2
 1129 008a 3360     		str	r3, [r6]
1768:.\Generated_Source\PSoC4/CyLib.c ****             CySysWdtWriteMode(CY_SYS_WDT_COUNTER0, lfclkPosedgeWdtCounter0Mode);
 1130              		.loc 1 1768 0
 1131 008c 0020     		mov	r0, #0
 1132 008e A168     		ldr	r1, [r4, #8]
 1133 0090 FFF7FEFF 		bl	CySysWdtWriteMode
 1134              	.LVL86:
1769:.\Generated_Source\PSoC4/CyLib.c ****             lfclkPosedgeWdtCounter0Enabled = 0u;
 1135              		.loc 1 1769 0
 1136 0094 0023     		mov	r3, #0
 1137 0096 6360     		str	r3, [r4, #4]
 1138              	.L120:
 1139              	.LBE95:
 1140              	.LBE94:
 178:.\Generated_Source\PSoC4/CyLib.c ****                 CyExitCriticalSection(interruptState);
 1141              		.loc 1 178 0
 1142 0098 0198     		ldr	r0, [sp, #4]
 1143 009a FFF7FEFF 		bl	CyExitCriticalSection
 1144              	.LVL87:
ARM GAS  C:\Users\Pablo\AppData\Local\Temp\ccDGsedh.s 			page 53


 1145              	.L112:
 193:.\Generated_Source\PSoC4/CyLib.c **** }
 1146              		.loc 1 193 0
 1147              		@ sp needed
 1148 009e F7BD     		pop	{r0, r1, r2, r4, r5, r6, r7, pc}
 1149              	.L130:
 1150              		.align	2
 1151              	.L129:
 1152 00a0 00010B40 		.word	1074462976
 1153 00a4 04010B40 		.word	1074462980
 1154 00a8 10020B40 		.word	1074463248
 1155 00ac 00000000 		.word	.LANCHOR0
 1156 00b0 0C020B40 		.word	1074463244
 1157              		.cfi_endproc
 1158              	.LFE3:
 1159              		.size	CySysClkIloStop, .-CySysClkIloStop
 1160              		.section	.text.CySysWdtGetInterruptSource,"ax",%progbits
 1161              		.align	1
 1162              		.global	CySysWdtGetInterruptSource
 1163              		.code	16
 1164              		.thumb_func
 1165              		.type	CySysWdtGetInterruptSource, %function
 1166              	CySysWdtGetInterruptSource:
 1167              	.LFB25:
1576:.\Generated_Source\PSoC4/CyLib.c ****     {
 1168              		.loc 1 1576 0
 1169              		.cfi_startproc
1577:.\Generated_Source\PSoC4/CyLib.c ****         return (CY_SYS_WDT_CONTROL_REG & (CY_SYS_WDT_COUNTER0_INT | CY_SYS_WDT_COUNTER1_INT | CY_SY
 1170              		.loc 1 1577 0
 1171 0000 024B     		ldr	r3, .L132
1578:.\Generated_Source\PSoC4/CyLib.c ****     }
 1172              		.loc 1 1578 0
 1173              		@ sp needed
1577:.\Generated_Source\PSoC4/CyLib.c ****         return (CY_SYS_WDT_CONTROL_REG & (CY_SYS_WDT_COUNTER0_INT | CY_SYS_WDT_COUNTER1_INT | CY_SY
 1174              		.loc 1 1577 0
 1175 0002 1868     		ldr	r0, [r3]
 1176 0004 024B     		ldr	r3, .L132+4
 1177 0006 1840     		and	r0, r3
1578:.\Generated_Source\PSoC4/CyLib.c ****     }
 1178              		.loc 1 1578 0
 1179 0008 7047     		bx	lr
 1180              	.L133:
 1181 000a C046     		.align	2
 1182              	.L132:
 1183 000c 10020B40 		.word	1074463248
 1184 0010 04040400 		.word	263172
 1185              		.cfi_endproc
 1186              	.LFE25:
 1187              		.size	CySysWdtGetInterruptSource, .-CySysWdtGetInterruptSource
 1188              		.section	.text.CySysWdtClearInterrupt,"ax",%progbits
 1189              		.align	1
 1190              		.global	CySysWdtClearInterrupt
 1191              		.code	16
 1192              		.thumb_func
 1193              		.type	CySysWdtClearInterrupt, %function
 1194              	CySysWdtClearInterrupt:
 1195              	.LFB26:
ARM GAS  C:\Users\Pablo\AppData\Local\Temp\ccDGsedh.s 			page 54


1610:.\Generated_Source\PSoC4/CyLib.c ****     {
 1196              		.loc 1 1610 0
 1197              		.cfi_startproc
 1198              	.LVL88:
 1199 0000 38B5     		push	{r3, r4, r5, lr}
 1200              		.cfi_def_cfa_offset 16
 1201              		.cfi_offset 3, -16
 1202              		.cfi_offset 4, -12
 1203              		.cfi_offset 5, -8
 1204              		.cfi_offset 14, -4
1610:.\Generated_Source\PSoC4/CyLib.c ****     {
 1205              		.loc 1 1610 0
 1206 0002 041C     		mov	r4, r0
1614:.\Generated_Source\PSoC4/CyLib.c ****         interruptState = CyEnterCriticalSection();
 1207              		.loc 1 1614 0
 1208 0004 FFF7FEFF 		bl	CyEnterCriticalSection
 1209              	.LVL89:
 1210              	.LBB98:
 1211              	.LBB99:
 995:.\Generated_Source\PSoC4/CyLib.c ****         return ((0u != (CY_SYS_CLK_SELECT_REG & (uint32)(CY_SYS_WDT_CLK_LOCK_BITS_MASK))) ? (uint32
 1212              		.loc 1 995 0
 1213 0008 0D4B     		ldr	r3, .L139
 1214              	.LBE99:
 1215              	.LBE98:
1614:.\Generated_Source\PSoC4/CyLib.c ****         interruptState = CyEnterCriticalSection();
 1216              		.loc 1 1614 0
 1217 000a 051C     		mov	r5, r0
 1218              	.LVL90:
 1219              	.LBB101:
 1220              	.LBB100:
 995:.\Generated_Source\PSoC4/CyLib.c ****         return ((0u != (CY_SYS_CLK_SELECT_REG & (uint32)(CY_SYS_WDT_CLK_LOCK_BITS_MASK))) ? (uint32
 1221              		.loc 1 995 0
 1222 000c 1A68     		ldr	r2, [r3]
 1223 000e C023     		mov	r3, #192
 1224 0010 1B02     		lsl	r3, r3, #8
 1225 0012 1340     		and	r3, r2
 1226 0014 0FD1     		bne	.L135
 1227              	.LVL91:
 1228              	.L137:
 1229              	.LBE100:
 1230              	.LBE101:
1631:.\Generated_Source\PSoC4/CyLib.c ****         CY_SYS_WDT_CONTROL_REG = counterMask | (CY_SYS_WDT_CONTROL_REG & ~(CY_SYS_WDT_COUNTER0_INT 
 1231              		.loc 1 1631 0
 1232 0016 0B4A     		ldr	r2, .L139+4
1627:.\Generated_Source\PSoC4/CyLib.c ****         counterMask &= (CY_SYS_WDT_COUNTER0_INT |
 1233              		.loc 1 1627 0
 1234 0018 0B49     		ldr	r1, .L139+8
1631:.\Generated_Source\PSoC4/CyLib.c ****         CY_SYS_WDT_CONTROL_REG = counterMask | (CY_SYS_WDT_CONTROL_REG & ~(CY_SYS_WDT_COUNTER0_INT 
 1235              		.loc 1 1631 0
 1236 001a 1068     		ldr	r0, [r2]
1627:.\Generated_Source\PSoC4/CyLib.c ****         counterMask &= (CY_SYS_WDT_COUNTER0_INT |
 1237              		.loc 1 1627 0
 1238 001c 0C40     		and	r4, r1
 1239              	.LVL92:
1631:.\Generated_Source\PSoC4/CyLib.c ****         CY_SYS_WDT_CONTROL_REG = counterMask | (CY_SYS_WDT_CONTROL_REG & ~(CY_SYS_WDT_COUNTER0_INT 
 1240              		.loc 1 1631 0
 1241 001e 0B49     		ldr	r1, .L139+12
ARM GAS  C:\Users\Pablo\AppData\Local\Temp\ccDGsedh.s 			page 55


 1242 0020 0140     		and	r1, r0
 1243 0022 0C43     		orr	r4, r1
 1244              	.LVL93:
 1245 0024 1460     		str	r4, [r2]
1635:.\Generated_Source\PSoC4/CyLib.c ****         if (1u == wdtLockState)
 1246              		.loc 1 1635 0
 1247 0026 012B     		cmp	r3, #1
 1248 0028 01D1     		bne	.L136
 1249              	.LVL94:
1637:.\Generated_Source\PSoC4/CyLib.c ****             CySysWdtLock();
 1250              		.loc 1 1637 0
 1251 002a FFF7FEFF 		bl	CySysWdtLock
 1252              	.LVL95:
 1253              	.L136:
1640:.\Generated_Source\PSoC4/CyLib.c ****         CyExitCriticalSection(interruptState);
 1254              		.loc 1 1640 0
 1255 002e 281C     		mov	r0, r5
 1256 0030 FFF7FEFF 		bl	CyExitCriticalSection
 1257              	.LVL96:
1641:.\Generated_Source\PSoC4/CyLib.c ****     }
 1258              		.loc 1 1641 0
 1259              		@ sp needed
 1260              	.LVL97:
 1261 0034 38BD     		pop	{r3, r4, r5, pc}
 1262              	.LVL98:
 1263              	.L135:
1619:.\Generated_Source\PSoC4/CyLib.c ****             CySysWdtUnlock();
 1264              		.loc 1 1619 0
 1265 0036 FFF7FEFF 		bl	CySysWdtUnlock
 1266              	.LVL99:
1618:.\Generated_Source\PSoC4/CyLib.c ****             wdtLockState = 1u;
 1267              		.loc 1 1618 0
 1268 003a 0123     		mov	r3, #1
 1269 003c EBE7     		b	.L137
 1270              	.L140:
 1271 003e C046     		.align	2
 1272              	.L139:
 1273 0040 00010B40 		.word	1074462976
 1274 0044 10020B40 		.word	1074463248
 1275 0048 04040400 		.word	263172
 1276 004c FBFBFBFF 		.word	-263173
 1277              		.cfi_endproc
 1278              	.LFE26:
 1279              		.size	CySysWdtClearInterrupt, .-CySysWdtClearInterrupt
 1280              		.section	.text.CySysWdtResetCounters,"ax",%progbits
 1281              		.align	1
 1282              		.global	CySysWdtResetCounters
 1283              		.code	16
 1284              		.thumb_func
 1285              		.type	CySysWdtResetCounters, %function
 1286              	CySysWdtResetCounters:
 1287              	.LFB27:
1666:.\Generated_Source\PSoC4/CyLib.c ****     {
 1288              		.loc 1 1666 0
 1289              		.cfi_startproc
 1290              	.LVL100:
1668:.\Generated_Source\PSoC4/CyLib.c ****         CY_SYS_WDT_CONTROL_REG |= (countersMask & (CY_SYS_WDT_COUNTER0_RESET |
ARM GAS  C:\Users\Pablo\AppData\Local\Temp\ccDGsedh.s 			page 56


 1291              		.loc 1 1668 0
 1292 0000 034B     		ldr	r3, .L142
 1293 0002 0449     		ldr	r1, .L142+4
 1294 0004 1A68     		ldr	r2, [r3]
 1295 0006 0840     		and	r0, r1
 1296              	.LVL101:
 1297 0008 1043     		orr	r0, r2
 1298 000a 1860     		str	r0, [r3]
1670:.\Generated_Source\PSoC4/CyLib.c ****     }
 1299              		.loc 1 1670 0
 1300              		@ sp needed
 1301 000c 7047     		bx	lr
 1302              	.L143:
 1303 000e C046     		.align	2
 1304              	.L142:
 1305 0010 10020B40 		.word	1074463248
 1306 0014 08080800 		.word	526344
 1307              		.cfi_endproc
 1308              	.LFE27:
 1309              		.size	CySysWdtResetCounters, .-CySysWdtResetCounters
 1310              		.section	.text.CySysLvdEnable,"ax",%progbits
 1311              		.align	1
 1312              		.global	CySysLvdEnable
 1313              		.code	16
 1314              		.thumb_func
 1315              		.type	CySysLvdEnable, %function
 1316              	CySysLvdEnable:
 1317              	.LFB30:
1770:.\Generated_Source\PSoC4/CyLib.c ****         }
1771:.\Generated_Source\PSoC4/CyLib.c ****     }
1772:.\Generated_Source\PSoC4/CyLib.c **** 
1773:.\Generated_Source\PSoC4/CyLib.c **** #else
1774:.\Generated_Source\PSoC4/CyLib.c **** 
1775:.\Generated_Source\PSoC4/CyLib.c ****     /*******************************************************************************
1776:.\Generated_Source\PSoC4/CyLib.c ****     * Function Name: CySysWdtReadEnabledStatus
1777:.\Generated_Source\PSoC4/CyLib.c ****     ********************************************************************************
1778:.\Generated_Source\PSoC4/CyLib.c ****     *
1779:.\Generated_Source\PSoC4/CyLib.c ****     * Summary:
1780:.\Generated_Source\PSoC4/CyLib.c ****     *  Reads the enabled status WDT counter.
1781:.\Generated_Source\PSoC4/CyLib.c ****     *
1782:.\Generated_Source\PSoC4/CyLib.c ****     * Parameters:
1783:.\Generated_Source\PSoC4/CyLib.c ****     *  None
1784:.\Generated_Source\PSoC4/CyLib.c ****     *
1785:.\Generated_Source\PSoC4/CyLib.c ****     * Return:
1786:.\Generated_Source\PSoC4/CyLib.c ****     *  Status of WDT counter:
1787:.\Generated_Source\PSoC4/CyLib.c ****     *   0 - counter is disabled
1788:.\Generated_Source\PSoC4/CyLib.c ****     *   1 - counter is enabled
1789:.\Generated_Source\PSoC4/CyLib.c ****     *
1790:.\Generated_Source\PSoC4/CyLib.c ****     *******************************************************************************/
1791:.\Generated_Source\PSoC4/CyLib.c ****     uint32 CySysWdtReadEnabledStatus(void)
1792:.\Generated_Source\PSoC4/CyLib.c ****     {
1793:.\Generated_Source\PSoC4/CyLib.c ****         return ((CY_SYS_WDT_DISABLE_KEY_REG == CY_SYS_WDT_KEY) ? (uint32) 0u : (uint32) 1u);
1794:.\Generated_Source\PSoC4/CyLib.c ****     }
1795:.\Generated_Source\PSoC4/CyLib.c **** 
1796:.\Generated_Source\PSoC4/CyLib.c **** 
1797:.\Generated_Source\PSoC4/CyLib.c ****     /*******************************************************************************
1798:.\Generated_Source\PSoC4/CyLib.c ****     * Function Name: CySysWdtEnable
ARM GAS  C:\Users\Pablo\AppData\Local\Temp\ccDGsedh.s 			page 57


1799:.\Generated_Source\PSoC4/CyLib.c ****     ********************************************************************************
1800:.\Generated_Source\PSoC4/CyLib.c ****     *
1801:.\Generated_Source\PSoC4/CyLib.c ****     * Summary:
1802:.\Generated_Source\PSoC4/CyLib.c ****     *  Enables the watchdog timer reset generation. The CySysWdtClearInterrupt()
1803:.\Generated_Source\PSoC4/CyLib.c ****     *  feeds the watch dog. Two unserviced interrupts will lead to a system reset
1804:.\Generated_Source\PSoC4/CyLib.c ****     *  (i.e. at the third match).
1805:.\Generated_Source\PSoC4/CyLib.c ****     *
1806:.\Generated_Source\PSoC4/CyLib.c ****     * Parameters:
1807:.\Generated_Source\PSoC4/CyLib.c ****     *  None
1808:.\Generated_Source\PSoC4/CyLib.c ****     *
1809:.\Generated_Source\PSoC4/CyLib.c ****     * Return:
1810:.\Generated_Source\PSoC4/CyLib.c ****     *  None
1811:.\Generated_Source\PSoC4/CyLib.c ****     *
1812:.\Generated_Source\PSoC4/CyLib.c ****     * Side Effects:
1813:.\Generated_Source\PSoC4/CyLib.c ****     *  The ILO is enabled by hardware once WDT is started.
1814:.\Generated_Source\PSoC4/CyLib.c ****     *
1815:.\Generated_Source\PSoC4/CyLib.c ****     *******************************************************************************/
1816:.\Generated_Source\PSoC4/CyLib.c ****     void CySysWdtEnable(void)
1817:.\Generated_Source\PSoC4/CyLib.c ****     {
1818:.\Generated_Source\PSoC4/CyLib.c ****         CY_SYS_WDT_DISABLE_KEY_REG = 0u;
1819:.\Generated_Source\PSoC4/CyLib.c ****     }
1820:.\Generated_Source\PSoC4/CyLib.c **** 
1821:.\Generated_Source\PSoC4/CyLib.c **** 
1822:.\Generated_Source\PSoC4/CyLib.c ****     /*******************************************************************************
1823:.\Generated_Source\PSoC4/CyLib.c ****     * Function Name: CySysWdtDisable
1824:.\Generated_Source\PSoC4/CyLib.c ****     ********************************************************************************
1825:.\Generated_Source\PSoC4/CyLib.c ****     *
1826:.\Generated_Source\PSoC4/CyLib.c ****     * Summary:
1827:.\Generated_Source\PSoC4/CyLib.c ****     *  Disables the WDT reset generation.
1828:.\Generated_Source\PSoC4/CyLib.c ****     *
1829:.\Generated_Source\PSoC4/CyLib.c ****     * Parameters:
1830:.\Generated_Source\PSoC4/CyLib.c ****     *  None
1831:.\Generated_Source\PSoC4/CyLib.c ****     *
1832:.\Generated_Source\PSoC4/CyLib.c ****     * Return:
1833:.\Generated_Source\PSoC4/CyLib.c ****     *  None
1834:.\Generated_Source\PSoC4/CyLib.c ****     *
1835:.\Generated_Source\PSoC4/CyLib.c ****     *******************************************************************************/
1836:.\Generated_Source\PSoC4/CyLib.c ****     void CySysWdtDisable(void)
1837:.\Generated_Source\PSoC4/CyLib.c ****     {
1838:.\Generated_Source\PSoC4/CyLib.c ****         CY_SYS_WDT_DISABLE_KEY_REG = CY_SYS_WDT_KEY;
1839:.\Generated_Source\PSoC4/CyLib.c ****     }
1840:.\Generated_Source\PSoC4/CyLib.c **** 
1841:.\Generated_Source\PSoC4/CyLib.c **** 
1842:.\Generated_Source\PSoC4/CyLib.c ****     /*******************************************************************************
1843:.\Generated_Source\PSoC4/CyLib.c ****     * Function Name: CySysWdtWriteMatch
1844:.\Generated_Source\PSoC4/CyLib.c ****     ********************************************************************************
1845:.\Generated_Source\PSoC4/CyLib.c ****     *
1846:.\Generated_Source\PSoC4/CyLib.c ****     * Summary:
1847:.\Generated_Source\PSoC4/CyLib.c ****     *  Configures the WDT counter match comparison value.
1848:.\Generated_Source\PSoC4/CyLib.c ****     *
1849:.\Generated_Source\PSoC4/CyLib.c ****     * Parameters:
1850:.\Generated_Source\PSoC4/CyLib.c ****     *  match:
1851:.\Generated_Source\PSoC4/CyLib.c ****     *   Valid range [0-65535]. Value to be used to match against the counter.
1852:.\Generated_Source\PSoC4/CyLib.c ****     *
1853:.\Generated_Source\PSoC4/CyLib.c ****     * Return:
1854:.\Generated_Source\PSoC4/CyLib.c ****     *  None
1855:.\Generated_Source\PSoC4/CyLib.c ****     *
ARM GAS  C:\Users\Pablo\AppData\Local\Temp\ccDGsedh.s 			page 58


1856:.\Generated_Source\PSoC4/CyLib.c ****     *******************************************************************************/
1857:.\Generated_Source\PSoC4/CyLib.c ****     void CySysWdtWriteMatch(uint32 match)
1858:.\Generated_Source\PSoC4/CyLib.c ****     {
1859:.\Generated_Source\PSoC4/CyLib.c ****         CY_SYS_WDT_MATCH_REG = (CY_SYS_WDT_MATCH_REG & (uint32)(~ (uint32)CY_SYS_WDT_MATCH_MASK)) |
1860:.\Generated_Source\PSoC4/CyLib.c ****     }
1861:.\Generated_Source\PSoC4/CyLib.c **** 
1862:.\Generated_Source\PSoC4/CyLib.c **** 
1863:.\Generated_Source\PSoC4/CyLib.c ****     /*******************************************************************************
1864:.\Generated_Source\PSoC4/CyLib.c ****     * Function Name: CySysWdtReadMatch
1865:.\Generated_Source\PSoC4/CyLib.c ****     ********************************************************************************
1866:.\Generated_Source\PSoC4/CyLib.c ****     *
1867:.\Generated_Source\PSoC4/CyLib.c ****     * Summary:
1868:.\Generated_Source\PSoC4/CyLib.c ****     *  Reads the WDT counter match comparison value.
1869:.\Generated_Source\PSoC4/CyLib.c ****     *
1870:.\Generated_Source\PSoC4/CyLib.c ****     * Parameters:
1871:.\Generated_Source\PSoC4/CyLib.c ****     *  None
1872:.\Generated_Source\PSoC4/CyLib.c ****     *
1873:.\Generated_Source\PSoC4/CyLib.c ****     * Return:
1874:.\Generated_Source\PSoC4/CyLib.c ****     *  Counter match value.
1875:.\Generated_Source\PSoC4/CyLib.c ****     *
1876:.\Generated_Source\PSoC4/CyLib.c ****     *******************************************************************************/
1877:.\Generated_Source\PSoC4/CyLib.c ****     uint32 CySysWdtReadMatch(void)
1878:.\Generated_Source\PSoC4/CyLib.c ****     {
1879:.\Generated_Source\PSoC4/CyLib.c ****         return (CY_SYS_WDT_MATCH_REG & CY_SYS_WDT_MATCH_MASK);
1880:.\Generated_Source\PSoC4/CyLib.c ****     }
1881:.\Generated_Source\PSoC4/CyLib.c **** 
1882:.\Generated_Source\PSoC4/CyLib.c **** 
1883:.\Generated_Source\PSoC4/CyLib.c ****     /*******************************************************************************
1884:.\Generated_Source\PSoC4/CyLib.c ****     * Function Name: CySysWdtReadCount
1885:.\Generated_Source\PSoC4/CyLib.c ****     ********************************************************************************
1886:.\Generated_Source\PSoC4/CyLib.c ****     *
1887:.\Generated_Source\PSoC4/CyLib.c ****     * Summary:
1888:.\Generated_Source\PSoC4/CyLib.c ****     *  Reads the current WDT counter value.
1889:.\Generated_Source\PSoC4/CyLib.c ****     *
1890:.\Generated_Source\PSoC4/CyLib.c ****     * Parameters:
1891:.\Generated_Source\PSoC4/CyLib.c ****     *  None
1892:.\Generated_Source\PSoC4/CyLib.c ****     *
1893:.\Generated_Source\PSoC4/CyLib.c ****     * Return:
1894:.\Generated_Source\PSoC4/CyLib.c ****     *  Live counter value
1895:.\Generated_Source\PSoC4/CyLib.c ****     *
1896:.\Generated_Source\PSoC4/CyLib.c ****     *******************************************************************************/
1897:.\Generated_Source\PSoC4/CyLib.c ****     uint32 CySysWdtReadCount(void)
1898:.\Generated_Source\PSoC4/CyLib.c ****     {
1899:.\Generated_Source\PSoC4/CyLib.c ****         return ((uint32)CY_SYS_WDT_COUNTER_REG);
1900:.\Generated_Source\PSoC4/CyLib.c ****     }
1901:.\Generated_Source\PSoC4/CyLib.c **** 
1902:.\Generated_Source\PSoC4/CyLib.c **** 
1903:.\Generated_Source\PSoC4/CyLib.c ****     /*******************************************************************************
1904:.\Generated_Source\PSoC4/CyLib.c ****     * Function Name: CySysWdtWriteIgnoreBits
1905:.\Generated_Source\PSoC4/CyLib.c ****     ********************************************************************************
1906:.\Generated_Source\PSoC4/CyLib.c ****     *
1907:.\Generated_Source\PSoC4/CyLib.c ****     * Summary:
1908:.\Generated_Source\PSoC4/CyLib.c ****     *  Configures the number of the MSB bits of the watchdog timer that are not
1909:.\Generated_Source\PSoC4/CyLib.c ****     *  checked against the match.
1910:.\Generated_Source\PSoC4/CyLib.c ****     *
1911:.\Generated_Source\PSoC4/CyLib.c ****     * Parameters:
1912:.\Generated_Source\PSoC4/CyLib.c ****     *  bitsNum:
ARM GAS  C:\Users\Pablo\AppData\Local\Temp\ccDGsedh.s 			page 59


1913:.\Generated_Source\PSoC4/CyLib.c ****     *   Valid range [0-15]. Number of MSB bits.
1914:.\Generated_Source\PSoC4/CyLib.c ****     *
1915:.\Generated_Source\PSoC4/CyLib.c ****     * Return:
1916:.\Generated_Source\PSoC4/CyLib.c ****     *  None
1917:.\Generated_Source\PSoC4/CyLib.c ****     *
1918:.\Generated_Source\PSoC4/CyLib.c ****     * Side Effects:
1919:.\Generated_Source\PSoC4/CyLib.c ****     *  The value of bitsNum provides control over the time-to-reset of the watchdog
1920:.\Generated_Source\PSoC4/CyLib.c ****     *  (which happens after 3 successive matches).
1921:.\Generated_Source\PSoC4/CyLib.c ****     *
1922:.\Generated_Source\PSoC4/CyLib.c ****     *******************************************************************************/
1923:.\Generated_Source\PSoC4/CyLib.c ****     void CySysWdtWriteIgnoreBits(uint32 bitsNum)
1924:.\Generated_Source\PSoC4/CyLib.c ****     {
1925:.\Generated_Source\PSoC4/CyLib.c ****         bitsNum = ((uint32)(bitsNum << CY_SYS_WDT_IGNORE_BITS_SHIFT) & CY_SYS_WDT_IGNORE_BITS_MASK)
1926:.\Generated_Source\PSoC4/CyLib.c ****         CY_SYS_WDT_MATCH_REG = (CY_SYS_WDT_MATCH_REG & (uint32)(~CY_SYS_WDT_IGNORE_BITS_MASK)) | bi
1927:.\Generated_Source\PSoC4/CyLib.c ****     }
1928:.\Generated_Source\PSoC4/CyLib.c **** 
1929:.\Generated_Source\PSoC4/CyLib.c **** 
1930:.\Generated_Source\PSoC4/CyLib.c ****     /*******************************************************************************
1931:.\Generated_Source\PSoC4/CyLib.c ****     * Function Name: CySysWdtReadIgnoreBits
1932:.\Generated_Source\PSoC4/CyLib.c ****     ********************************************************************************
1933:.\Generated_Source\PSoC4/CyLib.c ****     *
1934:.\Generated_Source\PSoC4/CyLib.c ****     * Summary:
1935:.\Generated_Source\PSoC4/CyLib.c ****     *  Reads the number of the  MSB bits of the watchdog timer that are not
1936:.\Generated_Source\PSoC4/CyLib.c ****     *  checked against the match.
1937:.\Generated_Source\PSoC4/CyLib.c ****     *
1938:.\Generated_Source\PSoC4/CyLib.c ****     * Parameters:
1939:.\Generated_Source\PSoC4/CyLib.c ****     *  None
1940:.\Generated_Source\PSoC4/CyLib.c ****     *
1941:.\Generated_Source\PSoC4/CyLib.c ****     * Return:
1942:.\Generated_Source\PSoC4/CyLib.c ****     *  Number of MSB bits.
1943:.\Generated_Source\PSoC4/CyLib.c ****     *
1944:.\Generated_Source\PSoC4/CyLib.c ****     *******************************************************************************/
1945:.\Generated_Source\PSoC4/CyLib.c ****     uint32 CySysWdtReadIgnoreBits(void)
1946:.\Generated_Source\PSoC4/CyLib.c ****     {
1947:.\Generated_Source\PSoC4/CyLib.c ****         return((uint32)((CY_SYS_WDT_MATCH_REG & CY_SYS_WDT_IGNORE_BITS_MASK) >> CY_SYS_WDT_IGNORE_B
1948:.\Generated_Source\PSoC4/CyLib.c ****     }
1949:.\Generated_Source\PSoC4/CyLib.c **** 
1950:.\Generated_Source\PSoC4/CyLib.c **** 
1951:.\Generated_Source\PSoC4/CyLib.c ****     /*******************************************************************************
1952:.\Generated_Source\PSoC4/CyLib.c ****     * Function Name: CySysWdtClearInterrupt
1953:.\Generated_Source\PSoC4/CyLib.c ****     ********************************************************************************
1954:.\Generated_Source\PSoC4/CyLib.c ****     *
1955:.\Generated_Source\PSoC4/CyLib.c ****     * Summary:
1956:.\Generated_Source\PSoC4/CyLib.c ****     *  Feeds the watch dog. Cleans the WDT match flag, which is set every time the
1957:.\Generated_Source\PSoC4/CyLib.c ****     *  WDT counter reaches a WDT match value.  Two unserviced interrupts will lead
1958:.\Generated_Source\PSoC4/CyLib.c ****     *  to a system reset (i.e. at the third match).
1959:.\Generated_Source\PSoC4/CyLib.c ****     *
1960:.\Generated_Source\PSoC4/CyLib.c ****     * Parameters:
1961:.\Generated_Source\PSoC4/CyLib.c ****     *  None
1962:.\Generated_Source\PSoC4/CyLib.c ****     *
1963:.\Generated_Source\PSoC4/CyLib.c ****     * Return:
1964:.\Generated_Source\PSoC4/CyLib.c ****     *  None
1965:.\Generated_Source\PSoC4/CyLib.c ****     *
1966:.\Generated_Source\PSoC4/CyLib.c ****     *******************************************************************************/
1967:.\Generated_Source\PSoC4/CyLib.c ****     void CySysWdtClearInterrupt(void)
1968:.\Generated_Source\PSoC4/CyLib.c ****     {
1969:.\Generated_Source\PSoC4/CyLib.c ****         CY_SYS_SRSS_INTR_REG |= CY_SYS_WDT_LOWER_BIT_MASK;
ARM GAS  C:\Users\Pablo\AppData\Local\Temp\ccDGsedh.s 			page 60


1970:.\Generated_Source\PSoC4/CyLib.c ****     }
1971:.\Generated_Source\PSoC4/CyLib.c **** 
1972:.\Generated_Source\PSoC4/CyLib.c **** 
1973:.\Generated_Source\PSoC4/CyLib.c ****     /*******************************************************************************
1974:.\Generated_Source\PSoC4/CyLib.c ****     * Function Name: CySysWdtMaskInterrupt
1975:.\Generated_Source\PSoC4/CyLib.c ****     ********************************************************************************
1976:.\Generated_Source\PSoC4/CyLib.c ****     *
1977:.\Generated_Source\PSoC4/CyLib.c ****     * Summary:
1978:.\Generated_Source\PSoC4/CyLib.c ****     *  After masking interrupts from the WDT, they are not passed to the CPU.
1979:.\Generated_Source\PSoC4/CyLib.c ****     *  This function does not disable the WDT reset generation.
1980:.\Generated_Source\PSoC4/CyLib.c ****     *
1981:.\Generated_Source\PSoC4/CyLib.c ****     * Parameters:
1982:.\Generated_Source\PSoC4/CyLib.c ****     *  None
1983:.\Generated_Source\PSoC4/CyLib.c ****     *
1984:.\Generated_Source\PSoC4/CyLib.c ****     * Return:
1985:.\Generated_Source\PSoC4/CyLib.c ****     *  None
1986:.\Generated_Source\PSoC4/CyLib.c ****     *
1987:.\Generated_Source\PSoC4/CyLib.c ****     *******************************************************************************/
1988:.\Generated_Source\PSoC4/CyLib.c ****     void CySysWdtMaskInterrupt(void)
1989:.\Generated_Source\PSoC4/CyLib.c ****     {
1990:.\Generated_Source\PSoC4/CyLib.c ****         CY_SYS_SRSS_INTR_MASK_REG &= (uint32)(~ (uint32)CY_SYS_WDT_LOWER_BIT_MASK);
1991:.\Generated_Source\PSoC4/CyLib.c ****     }
1992:.\Generated_Source\PSoC4/CyLib.c **** 
1993:.\Generated_Source\PSoC4/CyLib.c **** 
1994:.\Generated_Source\PSoC4/CyLib.c ****     /*******************************************************************************
1995:.\Generated_Source\PSoC4/CyLib.c ****     * Function Name: CySysWdtUnmaskInterrupt
1996:.\Generated_Source\PSoC4/CyLib.c ****     ********************************************************************************
1997:.\Generated_Source\PSoC4/CyLib.c ****     *
1998:.\Generated_Source\PSoC4/CyLib.c ****     * Summary:
1999:.\Generated_Source\PSoC4/CyLib.c ****     *  Unmasks WDT interrupts.
2000:.\Generated_Source\PSoC4/CyLib.c ****     *
2001:.\Generated_Source\PSoC4/CyLib.c ****     * Parameters:
2002:.\Generated_Source\PSoC4/CyLib.c ****     *  None
2003:.\Generated_Source\PSoC4/CyLib.c ****     *
2004:.\Generated_Source\PSoC4/CyLib.c ****     * Return:
2005:.\Generated_Source\PSoC4/CyLib.c ****     *  None
2006:.\Generated_Source\PSoC4/CyLib.c ****     *
2007:.\Generated_Source\PSoC4/CyLib.c ****     *******************************************************************************/
2008:.\Generated_Source\PSoC4/CyLib.c ****     void CySysWdtUnmaskInterrupt(void)
2009:.\Generated_Source\PSoC4/CyLib.c ****     {
2010:.\Generated_Source\PSoC4/CyLib.c ****         CY_SYS_SRSS_INTR_MASK_REG |= CY_SYS_WDT_LOWER_BIT_MASK;
2011:.\Generated_Source\PSoC4/CyLib.c ****     }
2012:.\Generated_Source\PSoC4/CyLib.c **** 
2013:.\Generated_Source\PSoC4/CyLib.c **** #endif /* (CY_IP_SRSSV2) */
2014:.\Generated_Source\PSoC4/CyLib.c **** 
2015:.\Generated_Source\PSoC4/CyLib.c **** 
2016:.\Generated_Source\PSoC4/CyLib.c **** #if(CY_IP_SRSSV2)
2017:.\Generated_Source\PSoC4/CyLib.c **** 
2018:.\Generated_Source\PSoC4/CyLib.c ****     /*******************************************************************************
2019:.\Generated_Source\PSoC4/CyLib.c ****     * Function Name: CySysLvdEnable
2020:.\Generated_Source\PSoC4/CyLib.c ****     ********************************************************************************
2021:.\Generated_Source\PSoC4/CyLib.c ****     *
2022:.\Generated_Source\PSoC4/CyLib.c ****     * Summary:
2023:.\Generated_Source\PSoC4/CyLib.c ****     *  Enables the output of the low-voltage monitor when Vddd is at or below the
2024:.\Generated_Source\PSoC4/CyLib.c ****     *  trip point, configures the device to generate an interrupt, and sets the voltage
2025:.\Generated_Source\PSoC4/CyLib.c ****     *  trip level.
2026:.\Generated_Source\PSoC4/CyLib.c ****     *
ARM GAS  C:\Users\Pablo\AppData\Local\Temp\ccDGsedh.s 			page 61


2027:.\Generated_Source\PSoC4/CyLib.c ****     * Parameters:
2028:.\Generated_Source\PSoC4/CyLib.c ****     *  threshold: Threshold selection for Low Voltage Detect circuit.
2029:.\Generated_Source\PSoC4/CyLib.c ****     *  Threshold variation is +/- 2.5% from these typical voltage choices.
2030:.\Generated_Source\PSoC4/CyLib.c ****     *         Define                     Voltage threshold
2031:.\Generated_Source\PSoC4/CyLib.c ****     *    CY_LVD_THRESHOLD_1_75_V       1.7500 V
2032:.\Generated_Source\PSoC4/CyLib.c ****     *    CY_LVD_THRESHOLD_1_80_V       1.8000 V
2033:.\Generated_Source\PSoC4/CyLib.c ****     *    CY_LVD_THRESHOLD_1_90_V       1.9000 V
2034:.\Generated_Source\PSoC4/CyLib.c ****     *    CY_LVD_THRESHOLD_2_00_V       2.0000 V
2035:.\Generated_Source\PSoC4/CyLib.c ****     *    CY_LVD_THRESHOLD_2_10_V       2.1000 V
2036:.\Generated_Source\PSoC4/CyLib.c ****     *    CY_LVD_THRESHOLD_2_20_V       2.2000 V
2037:.\Generated_Source\PSoC4/CyLib.c ****     *    CY_LVD_THRESHOLD_2_30_V       2.3000 V
2038:.\Generated_Source\PSoC4/CyLib.c ****     *    CY_LVD_THRESHOLD_2_40_V       2.4000 V
2039:.\Generated_Source\PSoC4/CyLib.c ****     *    CY_LVD_THRESHOLD_2_50_V       2.5000 V
2040:.\Generated_Source\PSoC4/CyLib.c ****     *    CY_LVD_THRESHOLD_2_60_V       2.6000 V
2041:.\Generated_Source\PSoC4/CyLib.c ****     *    CY_LVD_THRESHOLD_2_70_V       2.7000 V
2042:.\Generated_Source\PSoC4/CyLib.c ****     *    CY_LVD_THRESHOLD_2_80_V       2.8000 V
2043:.\Generated_Source\PSoC4/CyLib.c ****     *    CY_LVD_THRESHOLD_2_90_V       2.9000 V
2044:.\Generated_Source\PSoC4/CyLib.c ****     *    CY_LVD_THRESHOLD_3_00_V       3.0000 V
2045:.\Generated_Source\PSoC4/CyLib.c ****     *    CY_LVD_THRESHOLD_3_20_V       3.2000 V
2046:.\Generated_Source\PSoC4/CyLib.c ****     *    CY_LVD_THRESHOLD_4_50_V       4.5000 V
2047:.\Generated_Source\PSoC4/CyLib.c ****     *
2048:.\Generated_Source\PSoC4/CyLib.c ****     * Return:
2049:.\Generated_Source\PSoC4/CyLib.c ****     *  None
2050:.\Generated_Source\PSoC4/CyLib.c ****     *
2051:.\Generated_Source\PSoC4/CyLib.c ****     *******************************************************************************/
2052:.\Generated_Source\PSoC4/CyLib.c ****     void CySysLvdEnable(uint32 threshold)
2053:.\Generated_Source\PSoC4/CyLib.c ****     {
 1318              		.loc 1 2053 0
 1319              		.cfi_startproc
 1320              	.LVL102:
2054:.\Generated_Source\PSoC4/CyLib.c ****         /* Set threshold */
2055:.\Generated_Source\PSoC4/CyLib.c ****         CY_LVD_PWR_VMON_CONFIG_REG = (CY_LVD_PWR_VMON_CONFIG_REG & ~CY_LVD_PWR_VMON_CONFIG_LVD_SEL_
 1321              		.loc 1 2055 0
 1322 0000 084B     		ldr	r3, .L145
2056:.\Generated_Source\PSoC4/CyLib.c ****                 ((threshold << CY_LVD_PWR_VMON_CONFIG_LVD_SEL_SHIFT) & CY_LVD_PWR_VMON_CONFIG_LVD_S
 1323              		.loc 1 2056 0
 1324 0002 1E22     		mov	r2, #30
2055:.\Generated_Source\PSoC4/CyLib.c ****         CY_LVD_PWR_VMON_CONFIG_REG = (CY_LVD_PWR_VMON_CONFIG_REG & ~CY_LVD_PWR_VMON_CONFIG_LVD_SEL_
 1325              		.loc 1 2055 0
 1326 0004 1968     		ldr	r1, [r3]
 1327              		.loc 1 2056 0
 1328 0006 4000     		lsl	r0, r0, #1
 1329              	.LVL103:
2055:.\Generated_Source\PSoC4/CyLib.c ****         CY_LVD_PWR_VMON_CONFIG_REG = (CY_LVD_PWR_VMON_CONFIG_REG & ~CY_LVD_PWR_VMON_CONFIG_LVD_SEL_
 1330              		.loc 1 2055 0
 1331 0008 9143     		bic	r1, r2
 1332              		.loc 1 2056 0
 1333 000a 1040     		and	r0, r2
2055:.\Generated_Source\PSoC4/CyLib.c ****         CY_LVD_PWR_VMON_CONFIG_REG = (CY_LVD_PWR_VMON_CONFIG_REG & ~CY_LVD_PWR_VMON_CONFIG_LVD_SEL_
 1334              		.loc 1 2055 0
 1335 000c 0843     		orr	r0, r1
 1336 000e 1860     		str	r0, [r3]
2057:.\Generated_Source\PSoC4/CyLib.c **** 
2058:.\Generated_Source\PSoC4/CyLib.c ****         CY_LVD_PWR_VMON_CONFIG_REG |= CY_LVD_PWR_VMON_CONFIG_LVD_EN;
 1337              		.loc 1 2058 0
 1338 0010 1A68     		ldr	r2, [r3]
 1339 0012 0121     		mov	r1, #1
ARM GAS  C:\Users\Pablo\AppData\Local\Temp\ccDGsedh.s 			page 62


 1340 0014 0A43     		orr	r2, r1
 1341 0016 1A60     		str	r2, [r3]
2059:.\Generated_Source\PSoC4/CyLib.c ****         CY_LVD_PWR_INTR_MASK_REG   |= CY_LVD_PROPAGATE_INT_TO_CPU;
 1342              		.loc 1 2059 0
 1343 0018 034B     		ldr	r3, .L145+4
 1344 001a 0221     		mov	r1, #2
 1345 001c 1A68     		ldr	r2, [r3]
2060:.\Generated_Source\PSoC4/CyLib.c ****     }
 1346              		.loc 1 2060 0
 1347              		@ sp needed
2059:.\Generated_Source\PSoC4/CyLib.c ****         CY_LVD_PWR_INTR_MASK_REG   |= CY_LVD_PROPAGATE_INT_TO_CPU;
 1348              		.loc 1 2059 0
 1349 001e 0A43     		orr	r2, r1
 1350 0020 1A60     		str	r2, [r3]
 1351              		.loc 1 2060 0
 1352 0022 7047     		bx	lr
 1353              	.L146:
 1354              		.align	2
 1355              	.L145:
 1356 0024 18000B40 		.word	1074462744
 1357 0028 08000B40 		.word	1074462728
 1358              		.cfi_endproc
 1359              	.LFE30:
 1360              		.size	CySysLvdEnable, .-CySysLvdEnable
 1361              		.section	.text.CySysLvdDisable,"ax",%progbits
 1362              		.align	1
 1363              		.global	CySysLvdDisable
 1364              		.code	16
 1365              		.thumb_func
 1366              		.type	CySysLvdDisable, %function
 1367              	CySysLvdDisable:
 1368              	.LFB31:
2061:.\Generated_Source\PSoC4/CyLib.c **** 
2062:.\Generated_Source\PSoC4/CyLib.c **** 
2063:.\Generated_Source\PSoC4/CyLib.c ****     /*******************************************************************************
2064:.\Generated_Source\PSoC4/CyLib.c ****     * Function Name: CySysLvdDisable
2065:.\Generated_Source\PSoC4/CyLib.c ****     ********************************************************************************
2066:.\Generated_Source\PSoC4/CyLib.c ****     *
2067:.\Generated_Source\PSoC4/CyLib.c ****     * Summary:
2068:.\Generated_Source\PSoC4/CyLib.c ****     *  Disables the low voltage detection. A low voltage interrupt is disabled.
2069:.\Generated_Source\PSoC4/CyLib.c ****     *
2070:.\Generated_Source\PSoC4/CyLib.c ****     * Parameters:
2071:.\Generated_Source\PSoC4/CyLib.c ****     *  None
2072:.\Generated_Source\PSoC4/CyLib.c ****     *
2073:.\Generated_Source\PSoC4/CyLib.c ****     * Return:
2074:.\Generated_Source\PSoC4/CyLib.c ****     *  None
2075:.\Generated_Source\PSoC4/CyLib.c ****     *
2076:.\Generated_Source\PSoC4/CyLib.c ****     *******************************************************************************/
2077:.\Generated_Source\PSoC4/CyLib.c ****     void CySysLvdDisable(void)
2078:.\Generated_Source\PSoC4/CyLib.c ****     {
 1369              		.loc 1 2078 0
 1370              		.cfi_startproc
2079:.\Generated_Source\PSoC4/CyLib.c ****         CY_LVD_PWR_INTR_MASK_REG   &= ~CY_LVD_PROPAGATE_INT_TO_CPU;
 1371              		.loc 1 2079 0
 1372 0000 054B     		ldr	r3, .L148
 1373 0002 0221     		mov	r1, #2
 1374 0004 1A68     		ldr	r2, [r3]
ARM GAS  C:\Users\Pablo\AppData\Local\Temp\ccDGsedh.s 			page 63


2080:.\Generated_Source\PSoC4/CyLib.c ****         CY_LVD_PWR_VMON_CONFIG_REG &= ~CY_LVD_PWR_VMON_CONFIG_LVD_EN;
2081:.\Generated_Source\PSoC4/CyLib.c ****     }
 1375              		.loc 1 2081 0
 1376              		@ sp needed
2079:.\Generated_Source\PSoC4/CyLib.c ****         CY_LVD_PWR_INTR_MASK_REG   &= ~CY_LVD_PROPAGATE_INT_TO_CPU;
 1377              		.loc 1 2079 0
 1378 0006 8A43     		bic	r2, r1
 1379 0008 1A60     		str	r2, [r3]
2080:.\Generated_Source\PSoC4/CyLib.c ****         CY_LVD_PWR_VMON_CONFIG_REG &= ~CY_LVD_PWR_VMON_CONFIG_LVD_EN;
 1380              		.loc 1 2080 0
 1381 000a 044B     		ldr	r3, .L148+4
 1382 000c 0121     		mov	r1, #1
 1383 000e 1A68     		ldr	r2, [r3]
 1384 0010 8A43     		bic	r2, r1
 1385 0012 1A60     		str	r2, [r3]
 1386              		.loc 1 2081 0
 1387 0014 7047     		bx	lr
 1388              	.L149:
 1389 0016 C046     		.align	2
 1390              	.L148:
 1391 0018 08000B40 		.word	1074462728
 1392 001c 18000B40 		.word	1074462744
 1393              		.cfi_endproc
 1394              	.LFE31:
 1395              		.size	CySysLvdDisable, .-CySysLvdDisable
 1396              		.section	.text.CySysLvdGetInterruptSource,"ax",%progbits
 1397              		.align	1
 1398              		.global	CySysLvdGetInterruptSource
 1399              		.code	16
 1400              		.thumb_func
 1401              		.type	CySysLvdGetInterruptSource, %function
 1402              	CySysLvdGetInterruptSource:
 1403              	.LFB32:
2082:.\Generated_Source\PSoC4/CyLib.c **** 
2083:.\Generated_Source\PSoC4/CyLib.c **** 
2084:.\Generated_Source\PSoC4/CyLib.c ****     /*******************************************************************************
2085:.\Generated_Source\PSoC4/CyLib.c ****     * Function Name: CySysLvdGetInterruptSource
2086:.\Generated_Source\PSoC4/CyLib.c ****     ********************************************************************************
2087:.\Generated_Source\PSoC4/CyLib.c ****     *
2088:.\Generated_Source\PSoC4/CyLib.c ****     * Summary:
2089:.\Generated_Source\PSoC4/CyLib.c ****     *  Gets the low voltage detection interrupt status (without clearing).
2090:.\Generated_Source\PSoC4/CyLib.c ****     *
2091:.\Generated_Source\PSoC4/CyLib.c ****     * Parameters:
2092:.\Generated_Source\PSoC4/CyLib.c ****     *  None
2093:.\Generated_Source\PSoC4/CyLib.c ****     *
2094:.\Generated_Source\PSoC4/CyLib.c ****     * Return:
2095:.\Generated_Source\PSoC4/CyLib.c ****     *  Interrupt request value:
2096:.\Generated_Source\PSoC4/CyLib.c ****     *    CY_SYS_LVD_INT - Indicates an Low Voltage Detect interrupt
2097:.\Generated_Source\PSoC4/CyLib.c ****     *
2098:.\Generated_Source\PSoC4/CyLib.c ****     *******************************************************************************/
2099:.\Generated_Source\PSoC4/CyLib.c ****     uint32 CySysLvdGetInterruptSource(void)
2100:.\Generated_Source\PSoC4/CyLib.c ****     {
 1404              		.loc 1 2100 0
 1405              		.cfi_startproc
2101:.\Generated_Source\PSoC4/CyLib.c ****         return (CY_LVD_PWR_INTR_REG & CY_SYS_LVD_INT);
 1406              		.loc 1 2101 0
 1407 0000 024B     		ldr	r3, .L151
ARM GAS  C:\Users\Pablo\AppData\Local\Temp\ccDGsedh.s 			page 64


2102:.\Generated_Source\PSoC4/CyLib.c ****     }
 1408              		.loc 1 2102 0
 1409              		@ sp needed
2101:.\Generated_Source\PSoC4/CyLib.c ****         return (CY_LVD_PWR_INTR_REG & CY_SYS_LVD_INT);
 1410              		.loc 1 2101 0
 1411 0002 1868     		ldr	r0, [r3]
 1412 0004 0223     		mov	r3, #2
 1413 0006 1840     		and	r0, r3
 1414              		.loc 1 2102 0
 1415 0008 7047     		bx	lr
 1416              	.L152:
 1417 000a C046     		.align	2
 1418              	.L151:
 1419 000c 04000B40 		.word	1074462724
 1420              		.cfi_endproc
 1421              	.LFE32:
 1422              		.size	CySysLvdGetInterruptSource, .-CySysLvdGetInterruptSource
 1423              		.section	.text.CySysLvdClearInterrupt,"ax",%progbits
 1424              		.align	1
 1425              		.global	CySysLvdClearInterrupt
 1426              		.code	16
 1427              		.thumb_func
 1428              		.type	CySysLvdClearInterrupt, %function
 1429              	CySysLvdClearInterrupt:
 1430              	.LFB33:
2103:.\Generated_Source\PSoC4/CyLib.c **** 
2104:.\Generated_Source\PSoC4/CyLib.c **** 
2105:.\Generated_Source\PSoC4/CyLib.c ****     /*******************************************************************************
2106:.\Generated_Source\PSoC4/CyLib.c ****     * Function Name: CySysLvdClearInterrupt
2107:.\Generated_Source\PSoC4/CyLib.c ****     ********************************************************************************
2108:.\Generated_Source\PSoC4/CyLib.c ****     *
2109:.\Generated_Source\PSoC4/CyLib.c ****     * Summary:
2110:.\Generated_Source\PSoC4/CyLib.c ****     *  Clears the low voltage detection interrupt status.
2111:.\Generated_Source\PSoC4/CyLib.c ****     *
2112:.\Generated_Source\PSoC4/CyLib.c ****     * Parameters:
2113:.\Generated_Source\PSoC4/CyLib.c ****     *  None
2114:.\Generated_Source\PSoC4/CyLib.c ****     *
2115:.\Generated_Source\PSoC4/CyLib.c ****     * Return:
2116:.\Generated_Source\PSoC4/CyLib.c ****     *  None
2117:.\Generated_Source\PSoC4/CyLib.c ****     *
2118:.\Generated_Source\PSoC4/CyLib.c ****     *******************************************************************************/
2119:.\Generated_Source\PSoC4/CyLib.c ****     void CySysLvdClearInterrupt(void)
2120:.\Generated_Source\PSoC4/CyLib.c ****     {
 1431              		.loc 1 2120 0
 1432              		.cfi_startproc
2121:.\Generated_Source\PSoC4/CyLib.c ****         CY_LVD_PWR_INTR_REG = CY_SYS_LVD_INT;
 1433              		.loc 1 2121 0
 1434 0000 014B     		ldr	r3, .L154
 1435 0002 0222     		mov	r2, #2
 1436 0004 1A60     		str	r2, [r3]
2122:.\Generated_Source\PSoC4/CyLib.c ****     }
 1437              		.loc 1 2122 0
 1438              		@ sp needed
 1439 0006 7047     		bx	lr
 1440              	.L155:
 1441              		.align	2
 1442              	.L154:
ARM GAS  C:\Users\Pablo\AppData\Local\Temp\ccDGsedh.s 			page 65


 1443 0008 04000B40 		.word	1074462724
 1444              		.cfi_endproc
 1445              	.LFE33:
 1446              		.size	CySysLvdClearInterrupt, .-CySysLvdClearInterrupt
 1447              		.section	.text.CySysGetResetReason,"ax",%progbits
 1448              		.align	1
 1449              		.global	CySysGetResetReason
 1450              		.code	16
 1451              		.thumb_func
 1452              		.type	CySysGetResetReason, %function
 1453              	CySysGetResetReason:
 1454              	.LFB34:
2123:.\Generated_Source\PSoC4/CyLib.c **** 
2124:.\Generated_Source\PSoC4/CyLib.c **** #endif /* (CY_IP_SRSSV2) */
2125:.\Generated_Source\PSoC4/CyLib.c **** 
2126:.\Generated_Source\PSoC4/CyLib.c **** 
2127:.\Generated_Source\PSoC4/CyLib.c **** /*******************************************************************************
2128:.\Generated_Source\PSoC4/CyLib.c **** * Function Name: CySysGetResetReason
2129:.\Generated_Source\PSoC4/CyLib.c **** ********************************************************************************
2130:.\Generated_Source\PSoC4/CyLib.c **** *
2131:.\Generated_Source\PSoC4/CyLib.c **** * Summary:
2132:.\Generated_Source\PSoC4/CyLib.c **** *  Reports the cause for the latest reset(s) that occurred in the system. All the
2133:.\Generated_Source\PSoC4/CyLib.c **** *  bits in the RES_CAUSE register assert when the corresponding reset cause
2134:.\Generated_Source\PSoC4/CyLib.c **** *  occurs and must be cleared by the firmware. These bits are cleared by the hardware
2135:.\Generated_Source\PSoC4/CyLib.c **** *  only during XRES, POR, or a detected brown-out.
2136:.\Generated_Source\PSoC4/CyLib.c **** *
2137:.\Generated_Source\PSoC4/CyLib.c **** * Parameters:
2138:.\Generated_Source\PSoC4/CyLib.c **** *  reason: bits in the RES_CAUSE register to clear.
2139:.\Generated_Source\PSoC4/CyLib.c **** *   CY_SYS_RESET_WDT       - WDT caused a reset
2140:.\Generated_Source\PSoC4/CyLib.c **** *   CY_SYS_RESET_PROTFAULT - A protection violation occurred that requires a RESET
2141:.\Generated_Source\PSoC4/CyLib.c **** *   CY_SYS_RESET_SW        - Cortex-M0 requested a system reset.
2142:.\Generated_Source\PSoC4/CyLib.c **** *
2143:.\Generated_Source\PSoC4/CyLib.c **** * Return:
2144:.\Generated_Source\PSoC4/CyLib.c **** *  Status. Same enumerated bit values as used for the reason parameter.
2145:.\Generated_Source\PSoC4/CyLib.c **** *
2146:.\Generated_Source\PSoC4/CyLib.c **** *******************************************************************************/
2147:.\Generated_Source\PSoC4/CyLib.c **** uint32 CySysGetResetReason(uint32 reason)
2148:.\Generated_Source\PSoC4/CyLib.c **** {
 1455              		.loc 1 2148 0
 1456              		.cfi_startproc
 1457              	.LVL104:
2149:.\Generated_Source\PSoC4/CyLib.c ****     uint32 status;
2150:.\Generated_Source\PSoC4/CyLib.c **** 
2151:.\Generated_Source\PSoC4/CyLib.c ****     reason &= (CY_SYS_RESET_WDT | CY_SYS_RESET_PROTFAULT | CY_SYS_RESET_SW);
2152:.\Generated_Source\PSoC4/CyLib.c ****     status = CY_SYS_RES_CAUSE_REG &
 1458              		.loc 1 2152 0
 1459 0000 034A     		ldr	r2, .L157
2151:.\Generated_Source\PSoC4/CyLib.c ****     reason &= (CY_SYS_RESET_WDT | CY_SYS_RESET_PROTFAULT | CY_SYS_RESET_SW);
 1460              		.loc 1 2151 0
 1461 0002 1923     		mov	r3, #25
 1462 0004 011C     		mov	r1, r0
 1463              		.loc 1 2152 0
 1464 0006 1068     		ldr	r0, [r2]
 1465              	.LVL105:
2151:.\Generated_Source\PSoC4/CyLib.c ****     reason &= (CY_SYS_RESET_WDT | CY_SYS_RESET_PROTFAULT | CY_SYS_RESET_SW);
 1466              		.loc 1 2151 0
 1467 0008 1940     		and	r1, r3
ARM GAS  C:\Users\Pablo\AppData\Local\Temp\ccDGsedh.s 			page 66


 1468              	.LVL106:
 1469              		.loc 1 2152 0
 1470 000a 1840     		and	r0, r3
 1471              	.LVL107:
2153:.\Generated_Source\PSoC4/CyLib.c ****              (CY_SYS_RESET_WDT | CY_SYS_RESET_PROTFAULT | CY_SYS_RESET_SW);
2154:.\Generated_Source\PSoC4/CyLib.c ****     CY_SYS_RES_CAUSE_REG = reason;
 1472              		.loc 1 2154 0
 1473 000c 1160     		str	r1, [r2]
2155:.\Generated_Source\PSoC4/CyLib.c **** 
2156:.\Generated_Source\PSoC4/CyLib.c ****     return (status);
2157:.\Generated_Source\PSoC4/CyLib.c **** }
 1474              		.loc 1 2157 0
 1475              		@ sp needed
 1476 000e 7047     		bx	lr
 1477              	.L158:
 1478              		.align	2
 1479              	.L157:
 1480 0010 00030B40 		.word	1074463488
 1481              		.cfi_endproc
 1482              	.LFE34:
 1483              		.size	CySysGetResetReason, .-CySysGetResetReason
 1484              		.section	.text.CyDisableInts,"ax",%progbits
 1485              		.align	1
 1486              		.global	CyDisableInts
 1487              		.code	16
 1488              		.thumb_func
 1489              		.type	CyDisableInts, %function
 1490              	CyDisableInts:
 1491              	.LFB35:
2158:.\Generated_Source\PSoC4/CyLib.c **** 
2159:.\Generated_Source\PSoC4/CyLib.c **** 
2160:.\Generated_Source\PSoC4/CyLib.c **** /*******************************************************************************
2161:.\Generated_Source\PSoC4/CyLib.c **** * Function Name: CyDisableInts
2162:.\Generated_Source\PSoC4/CyLib.c **** ********************************************************************************
2163:.\Generated_Source\PSoC4/CyLib.c **** *
2164:.\Generated_Source\PSoC4/CyLib.c **** * Summary:
2165:.\Generated_Source\PSoC4/CyLib.c **** *  Disables all interrupts.
2166:.\Generated_Source\PSoC4/CyLib.c **** *
2167:.\Generated_Source\PSoC4/CyLib.c **** * Parameters:
2168:.\Generated_Source\PSoC4/CyLib.c **** *  None
2169:.\Generated_Source\PSoC4/CyLib.c **** *
2170:.\Generated_Source\PSoC4/CyLib.c **** * Return:
2171:.\Generated_Source\PSoC4/CyLib.c **** *  32 bit mask of previously enabled interrupts.
2172:.\Generated_Source\PSoC4/CyLib.c **** *
2173:.\Generated_Source\PSoC4/CyLib.c **** *******************************************************************************/
2174:.\Generated_Source\PSoC4/CyLib.c **** uint32 CyDisableInts(void)
2175:.\Generated_Source\PSoC4/CyLib.c **** {
 1492              		.loc 1 2175 0
 1493              		.cfi_startproc
2176:.\Generated_Source\PSoC4/CyLib.c ****     uint32 intState;
2177:.\Generated_Source\PSoC4/CyLib.c **** 
2178:.\Generated_Source\PSoC4/CyLib.c ****     /* Get current interrupt state. */
2179:.\Generated_Source\PSoC4/CyLib.c ****     intState = CY_INT_CLEAR_REG;
 1494              		.loc 1 2179 0
 1495 0000 024B     		ldr	r3, .L160
2180:.\Generated_Source\PSoC4/CyLib.c **** 
2181:.\Generated_Source\PSoC4/CyLib.c ****     /* Disable all interrupts. */
ARM GAS  C:\Users\Pablo\AppData\Local\Temp\ccDGsedh.s 			page 67


2182:.\Generated_Source\PSoC4/CyLib.c ****     CY_INT_CLEAR_REG = CY_INT_CLEAR_DISABLE_ALL;
 1496              		.loc 1 2182 0
 1497 0002 0122     		mov	r2, #1
 1498 0004 5242     		neg	r2, r2
2179:.\Generated_Source\PSoC4/CyLib.c ****     intState = CY_INT_CLEAR_REG;
 1499              		.loc 1 2179 0
 1500 0006 1868     		ldr	r0, [r3]
 1501              	.LVL108:
2183:.\Generated_Source\PSoC4/CyLib.c **** 
2184:.\Generated_Source\PSoC4/CyLib.c ****     return (intState);
2185:.\Generated_Source\PSoC4/CyLib.c **** }
 1502              		.loc 1 2185 0
 1503              		@ sp needed
2182:.\Generated_Source\PSoC4/CyLib.c ****     CY_INT_CLEAR_REG = CY_INT_CLEAR_DISABLE_ALL;
 1504              		.loc 1 2182 0
 1505 0008 1A60     		str	r2, [r3]
 1506              		.loc 1 2185 0
 1507 000a 7047     		bx	lr
 1508              	.L161:
 1509              		.align	2
 1510              	.L160:
 1511 000c 80E100E0 		.word	-536813184
 1512              		.cfi_endproc
 1513              	.LFE35:
 1514              		.size	CyDisableInts, .-CyDisableInts
 1515              		.section	.text.CyEnableInts,"ax",%progbits
 1516              		.align	1
 1517              		.global	CyEnableInts
 1518              		.code	16
 1519              		.thumb_func
 1520              		.type	CyEnableInts, %function
 1521              	CyEnableInts:
 1522              	.LFB36:
2186:.\Generated_Source\PSoC4/CyLib.c **** 
2187:.\Generated_Source\PSoC4/CyLib.c **** 
2188:.\Generated_Source\PSoC4/CyLib.c **** /*******************************************************************************
2189:.\Generated_Source\PSoC4/CyLib.c **** * Function Name: CyEnableInts
2190:.\Generated_Source\PSoC4/CyLib.c **** ********************************************************************************
2191:.\Generated_Source\PSoC4/CyLib.c **** *
2192:.\Generated_Source\PSoC4/CyLib.c **** * Summary:
2193:.\Generated_Source\PSoC4/CyLib.c **** *  Enables interrupts to a given state.
2194:.\Generated_Source\PSoC4/CyLib.c **** *
2195:.\Generated_Source\PSoC4/CyLib.c **** * Parameters:
2196:.\Generated_Source\PSoC4/CyLib.c **** *   mask, 32 bit mask of interrupts to enable.
2197:.\Generated_Source\PSoC4/CyLib.c **** *
2198:.\Generated_Source\PSoC4/CyLib.c **** * Return:
2199:.\Generated_Source\PSoC4/CyLib.c **** *  None
2200:.\Generated_Source\PSoC4/CyLib.c **** *
2201:.\Generated_Source\PSoC4/CyLib.c **** *******************************************************************************/
2202:.\Generated_Source\PSoC4/CyLib.c **** void CyEnableInts(uint32 mask)
2203:.\Generated_Source\PSoC4/CyLib.c **** {
 1523              		.loc 1 2203 0
 1524              		.cfi_startproc
 1525              	.LVL109:
2204:.\Generated_Source\PSoC4/CyLib.c ****     CY_INT_ENABLE_REG = mask;
 1526              		.loc 1 2204 0
 1527 0000 014B     		ldr	r3, .L163
ARM GAS  C:\Users\Pablo\AppData\Local\Temp\ccDGsedh.s 			page 68


2205:.\Generated_Source\PSoC4/CyLib.c **** }
 1528              		.loc 1 2205 0
 1529              		@ sp needed
2204:.\Generated_Source\PSoC4/CyLib.c ****     CY_INT_ENABLE_REG = mask;
 1530              		.loc 1 2204 0
 1531 0002 1860     		str	r0, [r3]
 1532              		.loc 1 2205 0
 1533 0004 7047     		bx	lr
 1534              	.L164:
 1535 0006 C046     		.align	2
 1536              	.L163:
 1537 0008 00E100E0 		.word	-536813312
 1538              		.cfi_endproc
 1539              	.LFE36:
 1540              		.size	CyEnableInts, .-CyEnableInts
 1541              		.section	.text.CyIntSetSysVector,"ax",%progbits
 1542              		.align	1
 1543              		.global	CyIntSetSysVector
 1544              		.code	16
 1545              		.thumb_func
 1546              		.type	CyIntSetSysVector, %function
 1547              	CyIntSetSysVector:
 1548              	.LFB37:
2206:.\Generated_Source\PSoC4/CyLib.c **** 
2207:.\Generated_Source\PSoC4/CyLib.c **** 
2208:.\Generated_Source\PSoC4/CyLib.c **** /*******************************************************************************
2209:.\Generated_Source\PSoC4/CyLib.c **** * Function Name: CyIntSetSysVector
2210:.\Generated_Source\PSoC4/CyLib.c **** ********************************************************************************
2211:.\Generated_Source\PSoC4/CyLib.c **** *
2212:.\Generated_Source\PSoC4/CyLib.c **** * Summary:
2213:.\Generated_Source\PSoC4/CyLib.c **** *  Sets the interrupt vector of the specified system interrupt number. These
2214:.\Generated_Source\PSoC4/CyLib.c **** *  interrupts are for SysTick, PendSV and others.
2215:.\Generated_Source\PSoC4/CyLib.c **** *
2216:.\Generated_Source\PSoC4/CyLib.c **** * Parameters:
2217:.\Generated_Source\PSoC4/CyLib.c **** *  number: System interrupt number:
2218:.\Generated_Source\PSoC4/CyLib.c **** *    CY_INT_NMI_IRQN        - Non Maskable Interrupt
2219:.\Generated_Source\PSoC4/CyLib.c **** *    CY_INT_HARD_FAULT_IRQN - Hard Fault Interrupt
2220:.\Generated_Source\PSoC4/CyLib.c **** *    CY_INT_SVCALL_IRQN     - SV Call Interrupt
2221:.\Generated_Source\PSoC4/CyLib.c **** *    CY_INT_PEND_SV_IRQN    - Pend SV Interrupt
2222:.\Generated_Source\PSoC4/CyLib.c **** *    CY_INT_SYSTICK_IRQN    - System Tick Interrupt
2223:.\Generated_Source\PSoC4/CyLib.c **** *
2224:.\Generated_Source\PSoC4/CyLib.c **** *  address: Pointer to an interrupt service routine.
2225:.\Generated_Source\PSoC4/CyLib.c **** *
2226:.\Generated_Source\PSoC4/CyLib.c **** * Return:
2227:.\Generated_Source\PSoC4/CyLib.c **** *  The old ISR vector at this location.
2228:.\Generated_Source\PSoC4/CyLib.c **** *
2229:.\Generated_Source\PSoC4/CyLib.c **** *******************************************************************************/
2230:.\Generated_Source\PSoC4/CyLib.c **** cyisraddress CyIntSetSysVector(uint8 number, cyisraddress address)
2231:.\Generated_Source\PSoC4/CyLib.c **** {
 1549              		.loc 1 2231 0
 1550              		.cfi_startproc
 1551              	.LVL110:
2232:.\Generated_Source\PSoC4/CyLib.c ****     cyisraddress oldIsr;
2233:.\Generated_Source\PSoC4/CyLib.c ****     cyisraddress *ramVectorTable = (cyisraddress *) CY_INT_VECT_TABLE;
2234:.\Generated_Source\PSoC4/CyLib.c **** 
2235:.\Generated_Source\PSoC4/CyLib.c ****     CYASSERT(number < CY_INT_IRQ_BASE);
2236:.\Generated_Source\PSoC4/CyLib.c **** 
ARM GAS  C:\Users\Pablo\AppData\Local\Temp\ccDGsedh.s 			page 69


2237:.\Generated_Source\PSoC4/CyLib.c ****     /* Save old Interrupt service routine. */
2238:.\Generated_Source\PSoC4/CyLib.c ****     oldIsr = ramVectorTable[number];
 1552              		.loc 1 2238 0
 1553 0000 8022     		mov	r2, #128
 1554 0002 8300     		lsl	r3, r0, #2
 1555 0004 9205     		lsl	r2, r2, #22
 1556 0006 9B18     		add	r3, r3, r2
 1557 0008 1868     		ldr	r0, [r3]
 1558              	.LVL111:
2239:.\Generated_Source\PSoC4/CyLib.c **** 
2240:.\Generated_Source\PSoC4/CyLib.c ****     /* Set new Interrupt service routine. */
2241:.\Generated_Source\PSoC4/CyLib.c ****     ramVectorTable[number] = address;
2242:.\Generated_Source\PSoC4/CyLib.c **** 
2243:.\Generated_Source\PSoC4/CyLib.c ****     return(oldIsr);
2244:.\Generated_Source\PSoC4/CyLib.c **** }
 1559              		.loc 1 2244 0
 1560              		@ sp needed
2241:.\Generated_Source\PSoC4/CyLib.c ****     ramVectorTable[number] = address;
 1561              		.loc 1 2241 0
 1562 000a 1960     		str	r1, [r3]
 1563              		.loc 1 2244 0
 1564 000c 7047     		bx	lr
 1565              		.cfi_endproc
 1566              	.LFE37:
 1567              		.size	CyIntSetSysVector, .-CyIntSetSysVector
 1568              		.section	.text.CyIntGetSysVector,"ax",%progbits
 1569              		.align	1
 1570              		.global	CyIntGetSysVector
 1571              		.code	16
 1572              		.thumb_func
 1573              		.type	CyIntGetSysVector, %function
 1574              	CyIntGetSysVector:
 1575              	.LFB38:
2245:.\Generated_Source\PSoC4/CyLib.c **** 
2246:.\Generated_Source\PSoC4/CyLib.c **** 
2247:.\Generated_Source\PSoC4/CyLib.c **** /*******************************************************************************
2248:.\Generated_Source\PSoC4/CyLib.c **** * Function Name: CyIntGetSysVector
2249:.\Generated_Source\PSoC4/CyLib.c **** ********************************************************************************
2250:.\Generated_Source\PSoC4/CyLib.c **** *
2251:.\Generated_Source\PSoC4/CyLib.c **** * Summary:
2252:.\Generated_Source\PSoC4/CyLib.c **** *   Gets the interrupt vector of the specified system interrupt number. These
2253:.\Generated_Source\PSoC4/CyLib.c **** *   interrupts are for SysTick, PendSV and others.
2254:.\Generated_Source\PSoC4/CyLib.c **** *
2255:.\Generated_Source\PSoC4/CyLib.c **** * Parameters:
2256:.\Generated_Source\PSoC4/CyLib.c **** *  number: System interrupt number:
2257:.\Generated_Source\PSoC4/CyLib.c **** *    CY_INT_NMI_IRQN        - Non Maskable Interrupt
2258:.\Generated_Source\PSoC4/CyLib.c **** *    CY_INT_HARD_FAULT_IRQN - Hard Fault Interrupt
2259:.\Generated_Source\PSoC4/CyLib.c **** *    CY_INT_SVCALL_IRQN     - SV Call Interrupt
2260:.\Generated_Source\PSoC4/CyLib.c **** *    CY_INT_PEND_SV_IRQN    - Pend SV Interrupt
2261:.\Generated_Source\PSoC4/CyLib.c **** *    CY_INT_SYSTICK_IRQN    - System Tick Interrupt
2262:.\Generated_Source\PSoC4/CyLib.c **** *
2263:.\Generated_Source\PSoC4/CyLib.c **** * Return:
2264:.\Generated_Source\PSoC4/CyLib.c **** *   Address of the ISR in the interrupt vector table.
2265:.\Generated_Source\PSoC4/CyLib.c **** *
2266:.\Generated_Source\PSoC4/CyLib.c **** *******************************************************************************/
2267:.\Generated_Source\PSoC4/CyLib.c **** cyisraddress CyIntGetSysVector(uint8 number)
2268:.\Generated_Source\PSoC4/CyLib.c **** {
ARM GAS  C:\Users\Pablo\AppData\Local\Temp\ccDGsedh.s 			page 70


 1576              		.loc 1 2268 0
 1577              		.cfi_startproc
 1578              	.LVL112:
2269:.\Generated_Source\PSoC4/CyLib.c ****     cyisraddress *ramVectorTable = (cyisraddress *) CY_INT_VECT_TABLE;
2270:.\Generated_Source\PSoC4/CyLib.c **** 
2271:.\Generated_Source\PSoC4/CyLib.c ****     CYASSERT(number < CY_INT_IRQ_BASE);
2272:.\Generated_Source\PSoC4/CyLib.c **** 
2273:.\Generated_Source\PSoC4/CyLib.c ****     return(ramVectorTable[number]);
 1579              		.loc 1 2273 0
 1580 0000 8023     		mov	r3, #128
 1581 0002 9B05     		lsl	r3, r3, #22
 1582 0004 8000     		lsl	r0, r0, #2
 1583              	.LVL113:
 1584 0006 C018     		add	r0, r0, r3
 1585 0008 0068     		ldr	r0, [r0]
2274:.\Generated_Source\PSoC4/CyLib.c **** }
 1586              		.loc 1 2274 0
 1587              		@ sp needed
 1588 000a 7047     		bx	lr
 1589              		.cfi_endproc
 1590              	.LFE38:
 1591              		.size	CyIntGetSysVector, .-CyIntGetSysVector
 1592              		.section	.text.CyIntSetVector,"ax",%progbits
 1593              		.align	1
 1594              		.global	CyIntSetVector
 1595              		.code	16
 1596              		.thumb_func
 1597              		.type	CyIntSetVector, %function
 1598              	CyIntSetVector:
 1599              	.LFB39:
2275:.\Generated_Source\PSoC4/CyLib.c **** 
2276:.\Generated_Source\PSoC4/CyLib.c **** 
2277:.\Generated_Source\PSoC4/CyLib.c **** /*******************************************************************************
2278:.\Generated_Source\PSoC4/CyLib.c **** * Function Name: CyIntSetVector
2279:.\Generated_Source\PSoC4/CyLib.c **** ********************************************************************************
2280:.\Generated_Source\PSoC4/CyLib.c **** *
2281:.\Generated_Source\PSoC4/CyLib.c **** * Summary:
2282:.\Generated_Source\PSoC4/CyLib.c **** *  Sets the interrupt vector of the specified interrupt number.
2283:.\Generated_Source\PSoC4/CyLib.c **** *
2284:.\Generated_Source\PSoC4/CyLib.c **** * Parameters:
2285:.\Generated_Source\PSoC4/CyLib.c **** *  number: Valid range [0-31].  Interrupt number
2286:.\Generated_Source\PSoC4/CyLib.c **** *  address: Pointer to an interrupt service routine
2287:.\Generated_Source\PSoC4/CyLib.c **** *
2288:.\Generated_Source\PSoC4/CyLib.c **** * Return:
2289:.\Generated_Source\PSoC4/CyLib.c **** *   Previous interrupt vector value.
2290:.\Generated_Source\PSoC4/CyLib.c **** *
2291:.\Generated_Source\PSoC4/CyLib.c **** *******************************************************************************/
2292:.\Generated_Source\PSoC4/CyLib.c **** cyisraddress CyIntSetVector(uint8 number, cyisraddress address)
2293:.\Generated_Source\PSoC4/CyLib.c **** {
 1600              		.loc 1 2293 0
 1601              		.cfi_startproc
 1602              	.LVL114:
2294:.\Generated_Source\PSoC4/CyLib.c ****     cyisraddress oldIsr;
2295:.\Generated_Source\PSoC4/CyLib.c ****     cyisraddress *ramVectorTable = (cyisraddress *) CY_INT_VECT_TABLE;
2296:.\Generated_Source\PSoC4/CyLib.c **** 
2297:.\Generated_Source\PSoC4/CyLib.c ****     CYASSERT(number < CY_NUM_INTERRUPTS);
2298:.\Generated_Source\PSoC4/CyLib.c **** 
ARM GAS  C:\Users\Pablo\AppData\Local\Temp\ccDGsedh.s 			page 71


2299:.\Generated_Source\PSoC4/CyLib.c ****     /* Save old Interrupt service routine. */
