ARM GAS  C:\Users\Pablo\AppData\Local\Temp\ccDGsedh.s 			page 1


   1              		.cpu cortex-m0
   2              		.fpu softvfp
   3              		.eabi_attribute 20, 1
   4              		.eabi_attribute 21, 1
   5              		.eabi_attribute 23, 3
   6              		.eabi_attribute 24, 1
   7              		.eabi_attribute 25, 1
   8              		.eabi_attribute 26, 1
   9              		.eabi_attribute 30, 4
  10              		.eabi_attribute 34, 0
  11              		.eabi_attribute 18, 4
  12              		.code	16
  13              		.file	"CyLib.c"
  14              		.text
  15              	.Ltext0:
  16              		.cfi_sections	.debug_frame
  17              		.section	.text.CySysClkImoStart,"ax",%progbits
  18              		.align	1
  19              		.global	CySysClkImoStart
  20              		.code	16
  21              		.thumb_func
  22              		.type	CySysClkImoStart, %function
  23              	CySysClkImoStart:
  24              	.LFB0:
  25              		.file 1 ".\\Generated_Source\\PSoC4\\CyLib.c"
   1:.\Generated_Source\PSoC4/CyLib.c **** /*******************************************************************************
   2:.\Generated_Source\PSoC4/CyLib.c **** * File Name: CyLib.c
   3:.\Generated_Source\PSoC4/CyLib.c **** * Version 4.20
   4:.\Generated_Source\PSoC4/CyLib.c **** *
   5:.\Generated_Source\PSoC4/CyLib.c **** *  Description:
   6:.\Generated_Source\PSoC4/CyLib.c **** *   Provides a system API for the clocking, interrupts, and watchdog timer.
   7:.\Generated_Source\PSoC4/CyLib.c **** *
   8:.\Generated_Source\PSoC4/CyLib.c **** *  Note:
   9:.\Generated_Source\PSoC4/CyLib.c **** *   Documentation of the API's in this file is located in the
  10:.\Generated_Source\PSoC4/CyLib.c **** *   System Reference Guide provided with PSoC Creator.
  11:.\Generated_Source\PSoC4/CyLib.c **** *
  12:.\Generated_Source\PSoC4/CyLib.c **** ********************************************************************************
  13:.\Generated_Source\PSoC4/CyLib.c **** * Copyright 2010-2014, Cypress Semiconductor Corporation.  All rights reserved.
  14:.\Generated_Source\PSoC4/CyLib.c **** * You may use this file only in accordance with the license, terms, conditions,
  15:.\Generated_Source\PSoC4/CyLib.c **** * disclaimers, and limitations in the end user license agreement accompanying
  16:.\Generated_Source\PSoC4/CyLib.c **** * the software package with which this file was provided.
  17:.\Generated_Source\PSoC4/CyLib.c **** *******************************************************************************/
  18:.\Generated_Source\PSoC4/CyLib.c **** 
  19:.\Generated_Source\PSoC4/CyLib.c **** #include "CyLib.h"
  20:.\Generated_Source\PSoC4/CyLib.c **** 
  21:.\Generated_Source\PSoC4/CyLib.c **** 
  22:.\Generated_Source\PSoC4/CyLib.c **** /* Do not use these definitions directly in your application */
  23:.\Generated_Source\PSoC4/CyLib.c **** uint32 cydelayFreqHz  = CYDEV_BCLK__SYSCLK__HZ;
  24:.\Generated_Source\PSoC4/CyLib.c **** uint32 cydelayFreqKhz = (CYDEV_BCLK__SYSCLK__HZ + CY_DELAY_1K_MINUS_1_THRESHOLD) / CY_DELAY_1K_THRE
  25:.\Generated_Source\PSoC4/CyLib.c **** uint8  cydelayFreqMhz = (uint8)((CYDEV_BCLK__SYSCLK__HZ + CY_DELAY_1M_MINUS_1_THRESHOLD) / CY_DELAY
  26:.\Generated_Source\PSoC4/CyLib.c **** uint32 cydelay32kMs   = CY_DELAY_MS_OVERFLOW * ((CYDEV_BCLK__SYSCLK__HZ + CY_DELAY_1K_MINUS_1_THRES
  27:.\Generated_Source\PSoC4/CyLib.c ****                         CY_DELAY_1K_THRESHOLD);
  28:.\Generated_Source\PSoC4/CyLib.c **** 
  29:.\Generated_Source\PSoC4/CyLib.c **** #if (CY_IP_WCO)
  30:.\Generated_Source\PSoC4/CyLib.c ****     static uint32 CySysClkGetLfclkSource(void);
  31:.\Generated_Source\PSoC4/CyLib.c **** #endif /* (CY_IP_WCO) */
  32:.\Generated_Source\PSoC4/CyLib.c **** 
ARM GAS  C:\Users\Pablo\AppData\Local\Temp\ccDGsedh.s 			page 2


  33:.\Generated_Source\PSoC4/CyLib.c **** #if(CY_IP_SRSSV2)
  34:.\Generated_Source\PSoC4/CyLib.c ****     /* CySysClkLfclkPosedgeCatch() / CySysClkLfclkPosedgeRestore() */
  35:.\Generated_Source\PSoC4/CyLib.c ****     uint32 lfclkPosedgeWdtCounter0Enabled = 0u;
  36:.\Generated_Source\PSoC4/CyLib.c ****     uint32 lfclkPosedgeEnabledWdtCounter  = 0u;
  37:.\Generated_Source\PSoC4/CyLib.c ****     uint32 lfclkPosedgeWdtCounter0Mode    = CY_SYS_WDT_MODE_NONE;
  38:.\Generated_Source\PSoC4/CyLib.c **** 
  39:.\Generated_Source\PSoC4/CyLib.c ****     static void CySysClkLfclkPosedgeCatch(void);
  40:.\Generated_Source\PSoC4/CyLib.c ****     static void CySysClkLfclkPosedgeRestore(void);
  41:.\Generated_Source\PSoC4/CyLib.c **** 
  42:.\Generated_Source\PSoC4/CyLib.c ****     static uint32 CySysWdtLocked(void);
  43:.\Generated_Source\PSoC4/CyLib.c ****     static uint32 CySysClkIloEnabled(void);
  44:.\Generated_Source\PSoC4/CyLib.c ****     #if (CY_IP_WCO)
  45:.\Generated_Source\PSoC4/CyLib.c ****         static uint32 CySysClkWcoEnabled(void);
  46:.\Generated_Source\PSoC4/CyLib.c ****     #endif /* (CY_IP_WCO) */
  47:.\Generated_Source\PSoC4/CyLib.c **** #endif /* (CY_IP_SRSSV2) */
  48:.\Generated_Source\PSoC4/CyLib.c **** 
  49:.\Generated_Source\PSoC4/CyLib.c **** 
  50:.\Generated_Source\PSoC4/CyLib.c **** static cySysTickCallback CySysTickCallbacks[CY_SYS_SYST_NUM_OF_CALLBACKS];
  51:.\Generated_Source\PSoC4/CyLib.c **** static void CySysTickServiceCallbacks(void);
  52:.\Generated_Source\PSoC4/CyLib.c **** uint32 CySysTickInitVar = 0u;
  53:.\Generated_Source\PSoC4/CyLib.c **** 
  54:.\Generated_Source\PSoC4/CyLib.c **** 
  55:.\Generated_Source\PSoC4/CyLib.c **** #if(CY_IP_SRSSV2)
  56:.\Generated_Source\PSoC4/CyLib.c ****         /* Conversion between CySysClkWriteImoFreq() parameter and register's value */
  57:.\Generated_Source\PSoC4/CyLib.c ****         const uint8 cyImoFreqMhz2Reg[CY_SYS_CLK_IMO_FREQ_TABLE_SIZE] = {
  58:.\Generated_Source\PSoC4/CyLib.c ****             /*  3 MHz */ 0x03u,  /*  4 MHz */ 0x04u,  /*  5 MHz */ 0x05u,  /*  6 MHz */ 0x06u,
  59:.\Generated_Source\PSoC4/CyLib.c ****             /*  7 MHz */ 0x07u,  /*  8 MHz */ 0x08u,  /*  9 MHz */ 0x09u,  /* 10 MHz */ 0x0Au,
  60:.\Generated_Source\PSoC4/CyLib.c ****             /* 11 MHz */ 0x0Bu,  /* 12 MHz */ 0x0Cu,  /* 13 MHz */ 0x0Eu,  /* 14 MHz */ 0x0Fu,
  61:.\Generated_Source\PSoC4/CyLib.c ****             /* 15 MHz */ 0x10u,  /* 16 MHz */ 0x11u,  /* 17 MHz */ 0x12u,  /* 18 MHz */ 0x13u,
  62:.\Generated_Source\PSoC4/CyLib.c ****             /* 19 MHz */ 0x14u,  /* 20 MHz */ 0x15u,  /* 21 MHz */ 0x16u,  /* 22 MHz */ 0x17u,
  63:.\Generated_Source\PSoC4/CyLib.c ****             /* 23 MHz */ 0x18u,  /* 24 MHz */ 0x19u,  /* 25 MHz */ 0x1Bu,  /* 26 MHz */ 0x1Cu,
  64:.\Generated_Source\PSoC4/CyLib.c ****             /* 27 MHz */ 0x1Du,  /* 28 MHz */ 0x1Eu,  /* 29 MHz */ 0x1Fu,  /* 30 MHz */ 0x20u,
  65:.\Generated_Source\PSoC4/CyLib.c ****             /* 31 MHz */ 0x21u,  /* 32 MHz */ 0x22u,  /* 33 MHz */ 0x23u,  /* 34 MHz */ 0x25u,
  66:.\Generated_Source\PSoC4/CyLib.c ****             /* 35 MHz */ 0x26u,  /* 36 MHz */ 0x27u,  /* 37 MHz */ 0x28u,  /* 38 MHz */ 0x29u,
  67:.\Generated_Source\PSoC4/CyLib.c ****             /* 39 MHz */ 0x2Au,  /* 40 MHz */ 0x2Bu,  /* 41 MHz */ 0x2Eu,  /* 42 MHz */ 0x2Fu,
  68:.\Generated_Source\PSoC4/CyLib.c ****             /* 43 MHz */ 0x30u,  /* 44 MHz */ 0x31u,  /* 45 MHz */ 0x32u,  /* 46 MHz */ 0x33u,
  69:.\Generated_Source\PSoC4/CyLib.c ****             /* 47 MHz */ 0x34u,  /* 48 MHz */ 0x35u };
  70:.\Generated_Source\PSoC4/CyLib.c **** #endif /* (CY_IP_SRSSV2) */
  71:.\Generated_Source\PSoC4/CyLib.c **** 
  72:.\Generated_Source\PSoC4/CyLib.c **** 
  73:.\Generated_Source\PSoC4/CyLib.c **** /*******************************************************************************
  74:.\Generated_Source\PSoC4/CyLib.c **** * Function Name: CySysClkImoStart
  75:.\Generated_Source\PSoC4/CyLib.c **** ********************************************************************************
  76:.\Generated_Source\PSoC4/CyLib.c **** *
  77:.\Generated_Source\PSoC4/CyLib.c **** * Summary:
  78:.\Generated_Source\PSoC4/CyLib.c **** *  Enables the IMO.
  79:.\Generated_Source\PSoC4/CyLib.c **** *
  80:.\Generated_Source\PSoC4/CyLib.c **** * Parameters:
  81:.\Generated_Source\PSoC4/CyLib.c **** *  None
  82:.\Generated_Source\PSoC4/CyLib.c **** *
  83:.\Generated_Source\PSoC4/CyLib.c **** * Return:
  84:.\Generated_Source\PSoC4/CyLib.c **** *  None
  85:.\Generated_Source\PSoC4/CyLib.c **** *
  86:.\Generated_Source\PSoC4/CyLib.c **** *******************************************************************************/
  87:.\Generated_Source\PSoC4/CyLib.c **** void CySysClkImoStart(void)
  88:.\Generated_Source\PSoC4/CyLib.c **** {
  26              		.loc 1 88 0
ARM GAS  C:\Users\Pablo\AppData\Local\Temp\ccDGsedh.s 			page 3


  27              		.cfi_startproc
  89:.\Generated_Source\PSoC4/CyLib.c ****     CY_SYS_CLK_IMO_CONFIG_REG |= CY_SYS_CLK_IMO_CONFIG_ENABLE;
  28              		.loc 1 89 0
  29 0000 034B     		ldr	r3, .L2
  30 0002 8022     		mov	r2, #128
  31 0004 1968     		ldr	r1, [r3]
  32 0006 1206     		lsl	r2, r2, #24
  33 0008 0A43     		orr	r2, r1
  34 000a 1A60     		str	r2, [r3]
  90:.\Generated_Source\PSoC4/CyLib.c **** }
  35              		.loc 1 90 0
  36              		@ sp needed
  37 000c 7047     		bx	lr
  38              	.L3:
  39 000e C046     		.align	2
  40              	.L2:
  41 0010 08010B40 		.word	1074462984
  42              		.cfi_endproc
  43              	.LFE0:
  44              		.size	CySysClkImoStart, .-CySysClkImoStart
  45              		.section	.text.CySysClkImoStop,"ax",%progbits
  46              		.align	1
  47              		.global	CySysClkImoStop
  48              		.code	16
  49              		.thumb_func
  50              		.type	CySysClkImoStop, %function
  51              	CySysClkImoStop:
  52              	.LFB1:
  91:.\Generated_Source\PSoC4/CyLib.c **** 
  92:.\Generated_Source\PSoC4/CyLib.c **** 
  93:.\Generated_Source\PSoC4/CyLib.c **** /*******************************************************************************
  94:.\Generated_Source\PSoC4/CyLib.c **** * Function Name: CySysClkImoStop
  95:.\Generated_Source\PSoC4/CyLib.c **** ********************************************************************************
  96:.\Generated_Source\PSoC4/CyLib.c **** *
  97:.\Generated_Source\PSoC4/CyLib.c **** * Summary:
  98:.\Generated_Source\PSoC4/CyLib.c **** *  Disables the IMO.
  99:.\Generated_Source\PSoC4/CyLib.c **** *
 100:.\Generated_Source\PSoC4/CyLib.c **** * Parameters:
 101:.\Generated_Source\PSoC4/CyLib.c **** *  None
 102:.\Generated_Source\PSoC4/CyLib.c **** *
 103:.\Generated_Source\PSoC4/CyLib.c **** * Return:
 104:.\Generated_Source\PSoC4/CyLib.c **** *  None
 105:.\Generated_Source\PSoC4/CyLib.c **** *
 106:.\Generated_Source\PSoC4/CyLib.c **** *******************************************************************************/
 107:.\Generated_Source\PSoC4/CyLib.c **** void CySysClkImoStop(void)
 108:.\Generated_Source\PSoC4/CyLib.c **** {
  53              		.loc 1 108 0
  54              		.cfi_startproc
 109:.\Generated_Source\PSoC4/CyLib.c ****     CY_SYS_CLK_IMO_CONFIG_REG &= ( uint32 ) ( ~( uint32 )CY_SYS_CLK_IMO_CONFIG_ENABLE);
  55              		.loc 1 109 0
  56 0000 024B     		ldr	r3, .L5
 110:.\Generated_Source\PSoC4/CyLib.c **** }
  57              		.loc 1 110 0
  58              		@ sp needed
 109:.\Generated_Source\PSoC4/CyLib.c ****     CY_SYS_CLK_IMO_CONFIG_REG &= ( uint32 ) ( ~( uint32 )CY_SYS_CLK_IMO_CONFIG_ENABLE);
  59              		.loc 1 109 0
  60 0002 1A68     		ldr	r2, [r3]
ARM GAS  C:\Users\Pablo\AppData\Local\Temp\ccDGsedh.s 			page 4


  61 0004 5200     		lsl	r2, r2, #1
  62 0006 5208     		lsr	r2, r2, #1
  63 0008 1A60     		str	r2, [r3]
  64              		.loc 1 110 0
  65 000a 7047     		bx	lr
  66              	.L6:
  67              		.align	2
  68              	.L5:
  69 000c 08010B40 		.word	1074462984
  70              		.cfi_endproc
  71              	.LFE1:
  72              		.size	CySysClkImoStop, .-CySysClkImoStop
  73              		.section	.text.CySysClkIloStart,"ax",%progbits
  74              		.align	1
  75              		.global	CySysClkIloStart
  76              		.code	16
  77              		.thumb_func
  78              		.type	CySysClkIloStart, %function
  79              	CySysClkIloStart:
  80              	.LFB2:
 111:.\Generated_Source\PSoC4/CyLib.c **** 
 112:.\Generated_Source\PSoC4/CyLib.c **** 
 113:.\Generated_Source\PSoC4/CyLib.c **** /*******************************************************************************
 114:.\Generated_Source\PSoC4/CyLib.c **** * Function Name: CySysClkIloStart
 115:.\Generated_Source\PSoC4/CyLib.c **** ********************************************************************************
 116:.\Generated_Source\PSoC4/CyLib.c **** *
 117:.\Generated_Source\PSoC4/CyLib.c **** * Summary:
 118:.\Generated_Source\PSoC4/CyLib.c **** *  Enables the ILO. Refer to the device datasheet for the ILO startup time.
 119:.\Generated_Source\PSoC4/CyLib.c **** *
 120:.\Generated_Source\PSoC4/CyLib.c **** * Parameters:
 121:.\Generated_Source\PSoC4/CyLib.c **** *  None
 122:.\Generated_Source\PSoC4/CyLib.c **** *
 123:.\Generated_Source\PSoC4/CyLib.c **** * Return:
 124:.\Generated_Source\PSoC4/CyLib.c **** *  None
 125:.\Generated_Source\PSoC4/CyLib.c **** *
 126:.\Generated_Source\PSoC4/CyLib.c **** *******************************************************************************/
 127:.\Generated_Source\PSoC4/CyLib.c **** void CySysClkIloStart(void)
 128:.\Generated_Source\PSoC4/CyLib.c **** {
  81              		.loc 1 128 0
  82              		.cfi_startproc
 129:.\Generated_Source\PSoC4/CyLib.c ****     CY_SYS_CLK_ILO_CONFIG_REG |= CY_SYS_CLK_ILO_CONFIG_ENABLE;
  83              		.loc 1 129 0
  84 0000 034B     		ldr	r3, .L8
  85 0002 8022     		mov	r2, #128
  86 0004 1968     		ldr	r1, [r3]
  87 0006 1206     		lsl	r2, r2, #24
  88 0008 0A43     		orr	r2, r1
  89 000a 1A60     		str	r2, [r3]
 130:.\Generated_Source\PSoC4/CyLib.c **** }
  90              		.loc 1 130 0
  91              		@ sp needed
  92 000c 7047     		bx	lr
  93              	.L9:
  94 000e C046     		.align	2
  95              	.L8:
  96 0010 04010B40 		.word	1074462980
  97              		.cfi_endproc
ARM GAS  C:\Users\Pablo\AppData\Local\Temp\ccDGsedh.s 			page 5


  98              	.LFE2:
  99              		.size	CySysClkIloStart, .-CySysClkIloStart
 100              		.section	.text.CySysClkWriteHfclkDirect,"ax",%progbits
 101              		.align	1
 102              		.global	CySysClkWriteHfclkDirect
 103              		.code	16
 104              		.thumb_func
 105              		.type	CySysClkWriteHfclkDirect, %function
 106              	CySysClkWriteHfclkDirect:
 107              	.LFB5:
 131:.\Generated_Source\PSoC4/CyLib.c **** 
 132:.\Generated_Source\PSoC4/CyLib.c **** 
 133:.\Generated_Source\PSoC4/CyLib.c **** /*******************************************************************************
 134:.\Generated_Source\PSoC4/CyLib.c **** * Function Name: CySysClkIloStop
 135:.\Generated_Source\PSoC4/CyLib.c **** ********************************************************************************
 136:.\Generated_Source\PSoC4/CyLib.c **** *
 137:.\Generated_Source\PSoC4/CyLib.c **** * Summary:
 138:.\Generated_Source\PSoC4/CyLib.c **** *  Disables the ILO.
 139:.\Generated_Source\PSoC4/CyLib.c **** *
 140:.\Generated_Source\PSoC4/CyLib.c **** * Parameters:
 141:.\Generated_Source\PSoC4/CyLib.c **** *  None
 142:.\Generated_Source\PSoC4/CyLib.c **** *
 143:.\Generated_Source\PSoC4/CyLib.c **** * Return:
 144:.\Generated_Source\PSoC4/CyLib.c **** *  None
 145:.\Generated_Source\PSoC4/CyLib.c **** *
 146:.\Generated_Source\PSoC4/CyLib.c **** * Side Effects:
 147:.\Generated_Source\PSoC4/CyLib.c **** *  This function will have no effect if the WDT is locked (CySysWdtLock() is
 148:.\Generated_Source\PSoC4/CyLib.c **** *  called). Call CySysWdtUnlock() to unlock the WDT and be able to stop ILO.
 149:.\Generated_Source\PSoC4/CyLib.c **** *
 150:.\Generated_Source\PSoC4/CyLib.c **** *  PSoC 4100 / PSoC 4200: Note that ILO is required for WDT's operation.
 151:.\Generated_Source\PSoC4/CyLib.c **** *  The ILO is required for the WDT operation.
 152:.\Generated_Source\PSoC4/CyLib.c **** *
 153:.\Generated_Source\PSoC4/CyLib.c **** *  PSoC 4100-BL / PSoC 4200-BL:
 154:.\Generated_Source\PSoC4/CyLib.c **** *  Stopping the ILO will affect the peripheral clocked by the LFCLK, if the
 155:.\Generated_Source\PSoC4/CyLib.c **** *  LFCLK is configured to be sourced by the ILO.
 156:.\Generated_Source\PSoC4/CyLib.c **** *
 157:.\Generated_Source\PSoC4/CyLib.c **** *******************************************************************************/
 158:.\Generated_Source\PSoC4/CyLib.c **** void CySysClkIloStop(void)
 159:.\Generated_Source\PSoC4/CyLib.c **** {
 160:.\Generated_Source\PSoC4/CyLib.c ****     #if(CY_IP_SRSSV2)
 161:.\Generated_Source\PSoC4/CyLib.c ****         uint8  interruptState;
 162:.\Generated_Source\PSoC4/CyLib.c **** 
 163:.\Generated_Source\PSoC4/CyLib.c ****         /* Do nothing if WDT is locked or ILO is disabled */
 164:.\Generated_Source\PSoC4/CyLib.c ****         if (0u == CySysWdtLocked())
 165:.\Generated_Source\PSoC4/CyLib.c ****         {
 166:.\Generated_Source\PSoC4/CyLib.c ****             if (0u != CySysClkIloEnabled())
 167:.\Generated_Source\PSoC4/CyLib.c ****             {
 168:.\Generated_Source\PSoC4/CyLib.c **** 
 169:.\Generated_Source\PSoC4/CyLib.c ****             #if (CY_IP_WCO)
 170:.\Generated_Source\PSoC4/CyLib.c ****                 if (CY_SYS_CLK_LFCLK_SRC_ILO == CySysClkGetLfclkSource())
 171:.\Generated_Source\PSoC4/CyLib.c ****                 {
 172:.\Generated_Source\PSoC4/CyLib.c ****             #endif /* (CY_IP_WCO) */
 173:.\Generated_Source\PSoC4/CyLib.c **** 
 174:.\Generated_Source\PSoC4/CyLib.c ****                 interruptState = CyEnterCriticalSection();
 175:.\Generated_Source\PSoC4/CyLib.c ****                 CySysClkLfclkPosedgeCatch();
 176:.\Generated_Source\PSoC4/CyLib.c ****                 CY_SYS_CLK_ILO_CONFIG_REG &= ( uint32 ) ( ~( uint32 )CY_SYS_CLK_ILO_CONFIG_ENABLE);
 177:.\Generated_Source\PSoC4/CyLib.c ****                 CySysClkLfclkPosedgeRestore();
ARM GAS  C:\Users\Pablo\AppData\Local\Temp\ccDGsedh.s 			page 6


 178:.\Generated_Source\PSoC4/CyLib.c ****                 CyExitCriticalSection(interruptState);
 179:.\Generated_Source\PSoC4/CyLib.c **** 
 180:.\Generated_Source\PSoC4/CyLib.c ****             #if (CY_IP_WCO)
 181:.\Generated_Source\PSoC4/CyLib.c ****                 }
 182:.\Generated_Source\PSoC4/CyLib.c ****                 else /* Safe to disable - shortened pulse does not impact peripheral */
 183:.\Generated_Source\PSoC4/CyLib.c ****                 {
 184:.\Generated_Source\PSoC4/CyLib.c ****                     CY_SYS_CLK_ILO_CONFIG_REG &= ( uint32 ) ( ~( uint32 )CY_SYS_CLK_ILO_CONFIG_ENAB
 185:.\Generated_Source\PSoC4/CyLib.c ****                 }
 186:.\Generated_Source\PSoC4/CyLib.c ****             #endif /* (CY_IP_WCO) */
 187:.\Generated_Source\PSoC4/CyLib.c **** 
 188:.\Generated_Source\PSoC4/CyLib.c ****             }
 189:.\Generated_Source\PSoC4/CyLib.c ****         }
 190:.\Generated_Source\PSoC4/CyLib.c ****     #else
 191:.\Generated_Source\PSoC4/CyLib.c ****         CY_SYS_CLK_ILO_CONFIG_REG &= ( uint32 ) ( ~( uint32 )CY_SYS_CLK_ILO_CONFIG_ENABLE);
 192:.\Generated_Source\PSoC4/CyLib.c ****     #endif /* (CY_IP_SRSSV2) */
 193:.\Generated_Source\PSoC4/CyLib.c **** }
 194:.\Generated_Source\PSoC4/CyLib.c **** 
 195:.\Generated_Source\PSoC4/CyLib.c **** #if(CY_IP_SRSSV2)
 196:.\Generated_Source\PSoC4/CyLib.c ****     /*******************************************************************************
 197:.\Generated_Source\PSoC4/CyLib.c ****     * Function Name: CySysClkIloEnabled
 198:.\Generated_Source\PSoC4/CyLib.c ****     ********************************************************************************
 199:.\Generated_Source\PSoC4/CyLib.c ****     *
 200:.\Generated_Source\PSoC4/CyLib.c ****     * Summary:
 201:.\Generated_Source\PSoC4/CyLib.c ****     *  Reports ILO enable state.
 202:.\Generated_Source\PSoC4/CyLib.c ****     *
 203:.\Generated_Source\PSoC4/CyLib.c ****     * Parameters:
 204:.\Generated_Source\PSoC4/CyLib.c ****     *  None
 205:.\Generated_Source\PSoC4/CyLib.c ****     *
 206:.\Generated_Source\PSoC4/CyLib.c ****     * Return:
 207:.\Generated_Source\PSoC4/CyLib.c ****     *  1 if ILO is enabled, and 0 if ILO is disabled.
 208:.\Generated_Source\PSoC4/CyLib.c ****     *
 209:.\Generated_Source\PSoC4/CyLib.c ****     *******************************************************************************/
 210:.\Generated_Source\PSoC4/CyLib.c ****     static uint32 CySysClkIloEnabled(void)
 211:.\Generated_Source\PSoC4/CyLib.c ****     {
 212:.\Generated_Source\PSoC4/CyLib.c ****         /* Prohibits writing to WDT registers and ILO/WCO registers when not equal 0 */
 213:.\Generated_Source\PSoC4/CyLib.c ****         return ((0u != (CY_SYS_CLK_ILO_CONFIG_REG & (uint32)(CY_SYS_CLK_ILO_CONFIG_ENABLE))) ?
 214:.\Generated_Source\PSoC4/CyLib.c ****             (uint32) 1u :
 215:.\Generated_Source\PSoC4/CyLib.c ****             (uint32) 0u);
 216:.\Generated_Source\PSoC4/CyLib.c ****     }
 217:.\Generated_Source\PSoC4/CyLib.c **** #endif /* (CY_IP_SRSSV2) */
 218:.\Generated_Source\PSoC4/CyLib.c **** 
 219:.\Generated_Source\PSoC4/CyLib.c **** 
 220:.\Generated_Source\PSoC4/CyLib.c **** /*******************************************************************************
 221:.\Generated_Source\PSoC4/CyLib.c **** * Function Name: CySysClkGetLfclkSource
 222:.\Generated_Source\PSoC4/CyLib.c **** ********************************************************************************
 223:.\Generated_Source\PSoC4/CyLib.c **** *
 224:.\Generated_Source\PSoC4/CyLib.c **** * Summary:
 225:.\Generated_Source\PSoC4/CyLib.c **** *  Gets the clock source for the LFCLK clock.
 226:.\Generated_Source\PSoC4/CyLib.c **** *  The function is applicable only for the PSoC 4100-BL and PSoC 4200-BL.
 227:.\Generated_Source\PSoC4/CyLib.c **** *
 228:.\Generated_Source\PSoC4/CyLib.c **** * Parameters:
 229:.\Generated_Source\PSoC4/CyLib.c **** *  None
 230:.\Generated_Source\PSoC4/CyLib.c **** *
 231:.\Generated_Source\PSoC4/CyLib.c **** * Return:
 232:.\Generated_Source\PSoC4/CyLib.c **** *  The LFCLK source:
 233:.\Generated_Source\PSoC4/CyLib.c **** *   CY_SYS_CLK_LFCLK_SRC_ILO    Internal Low Frequency (32 kHz) Oscillator (ILO)
 234:.\Generated_Source\PSoC4/CyLib.c **** *   CY_SYS_CLK_LFCLK_SRC_WCO    Low Frequency Watch Crystal Oscillator (WCO)
ARM GAS  C:\Users\Pablo\AppData\Local\Temp\ccDGsedh.s 			page 7


 235:.\Generated_Source\PSoC4/CyLib.c **** *
 236:.\Generated_Source\PSoC4/CyLib.c **** *******************************************************************************/
 237:.\Generated_Source\PSoC4/CyLib.c **** #if (CY_IP_WCO)
 238:.\Generated_Source\PSoC4/CyLib.c ****     static uint32 CySysClkGetLfclkSource(void)
 239:.\Generated_Source\PSoC4/CyLib.c ****     {
 240:.\Generated_Source\PSoC4/CyLib.c ****         uint32 lfclkSource;
 241:.\Generated_Source\PSoC4/CyLib.c ****         lfclkSource = CY_SYS_WDT_CONFIG_REG & CY_SYS_CLK_LFCLK_SEL_MASK;
 242:.\Generated_Source\PSoC4/CyLib.c ****         return (lfclkSource);
 243:.\Generated_Source\PSoC4/CyLib.c ****     }
 244:.\Generated_Source\PSoC4/CyLib.c **** #endif /* (CY_IP_WCO) */
 245:.\Generated_Source\PSoC4/CyLib.c **** 
 246:.\Generated_Source\PSoC4/CyLib.c **** 
 247:.\Generated_Source\PSoC4/CyLib.c **** /*******************************************************************************
 248:.\Generated_Source\PSoC4/CyLib.c **** * Function Name: CySysClkSetLfclkSource
 249:.\Generated_Source\PSoC4/CyLib.c **** ********************************************************************************
 250:.\Generated_Source\PSoC4/CyLib.c **** *
 251:.\Generated_Source\PSoC4/CyLib.c **** * Summary:
 252:.\Generated_Source\PSoC4/CyLib.c **** *  Sets the clock source for the LFCLK clock.
 253:.\Generated_Source\PSoC4/CyLib.c **** *
 254:.\Generated_Source\PSoC4/CyLib.c **** *  The switch between LFCLK sources must be done between positive edges of
 255:.\Generated_Source\PSoC4/CyLib.c **** *  the LFCLK, because the glitch risk is around LFCLK positive edge. To ensure
 256:.\Generated_Source\PSoC4/CyLib.c **** *  that the switch can be done safely, the WDT counter value is read until it
 257:.\Generated_Source\PSoC4/CyLib.c **** *  changes.
 258:.\Generated_Source\PSoC4/CyLib.c **** *
 259:.\Generated_Source\PSoC4/CyLib.c **** *  That means that the positive edge just finished and the switch is performed.
 260:.\Generated_Source\PSoC4/CyLib.c **** *  The enabled WDT counter is used for that purpose. If no counters are enabled,
 261:.\Generated_Source\PSoC4/CyLib.c **** *  the counter 0 is enabled. And after LFCLK source is switched, the counter 0
 262:.\Generated_Source\PSoC4/CyLib.c **** *  configuration is restored back.
 263:.\Generated_Source\PSoC4/CyLib.c **** *
 264:.\Generated_Source\PSoC4/CyLib.c **** *  The function is applicable only for the PSoC 4100-BL and PSoC 4200-BL.
 265:.\Generated_Source\PSoC4/CyLib.c **** *
 266:.\Generated_Source\PSoC4/CyLib.c **** * Parameters:
 267:.\Generated_Source\PSoC4/CyLib.c **** *  source: One of the available LFCLK sources.
 268:.\Generated_Source\PSoC4/CyLib.c **** *   CY_SYS_CLK_LFCLK_SRC_ILO    Internal Low Frequency (32 kHz) Oscillator (ILO)
 269:.\Generated_Source\PSoC4/CyLib.c **** *   CY_SYS_CLK_LFCLK_SRC_WCO    Low Frequency Watch Crystal Oscillator (WCO)
 270:.\Generated_Source\PSoC4/CyLib.c **** *
 271:.\Generated_Source\PSoC4/CyLib.c **** * Return:
 272:.\Generated_Source\PSoC4/CyLib.c **** *  None
 273:.\Generated_Source\PSoC4/CyLib.c **** *
 274:.\Generated_Source\PSoC4/CyLib.c **** * Side Effects:
 275:.\Generated_Source\PSoC4/CyLib.c **** *  This function will have no effect if the WDT is locked (CySysWdtLock() is
 276:.\Generated_Source\PSoC4/CyLib.c **** *  called). Call CySysWdtUnlock() to unlock the WDT.
 277:.\Generated_Source\PSoC4/CyLib.c **** *
 278:.\Generated_Source\PSoC4/CyLib.c **** *  The current source and the new source must both be running and stable before
 279:.\Generated_Source\PSoC4/CyLib.c **** *  calling this function.
 280:.\Generated_Source\PSoC4/CyLib.c **** *
 281:.\Generated_Source\PSoC4/CyLib.c **** *  Changing the LFCLK clock source may change the LFCLK clock frequency and
 282:.\Generated_Source\PSoC4/CyLib.c **** *  affect the functionality that uses this clock. For example, watchdog timer
 283:.\Generated_Source\PSoC4/CyLib.c **** *  (WDT) is clocked by LFCLK.
 284:.\Generated_Source\PSoC4/CyLib.c **** *
 285:.\Generated_Source\PSoC4/CyLib.c **** *******************************************************************************/
 286:.\Generated_Source\PSoC4/CyLib.c **** #if (CY_IP_WCO)
 287:.\Generated_Source\PSoC4/CyLib.c ****     void CySysClkSetLfclkSource(uint32 source)
 288:.\Generated_Source\PSoC4/CyLib.c ****     {
 289:.\Generated_Source\PSoC4/CyLib.c ****         uint8  interruptState;
 290:.\Generated_Source\PSoC4/CyLib.c **** 
 291:.\Generated_Source\PSoC4/CyLib.c ****         if (CySysClkGetLfclkSource() != source)
ARM GAS  C:\Users\Pablo\AppData\Local\Temp\ccDGsedh.s 			page 8


 292:.\Generated_Source\PSoC4/CyLib.c ****         {
 293:.\Generated_Source\PSoC4/CyLib.c ****             interruptState = CyEnterCriticalSection();
 294:.\Generated_Source\PSoC4/CyLib.c **** 
 295:.\Generated_Source\PSoC4/CyLib.c ****             CySysClkLfclkPosedgeCatch();
 296:.\Generated_Source\PSoC4/CyLib.c **** 
 297:.\Generated_Source\PSoC4/CyLib.c ****             CY_SYS_WDT_CONFIG_REG = (CY_SYS_WDT_CONFIG_REG & (uint32)(~CY_SYS_CLK_LFCLK_SEL_MASK)) 
 298:.\Generated_Source\PSoC4/CyLib.c ****                                     (source & CY_SYS_CLK_LFCLK_SEL_MASK);
 299:.\Generated_Source\PSoC4/CyLib.c **** 
 300:.\Generated_Source\PSoC4/CyLib.c ****             CySysClkLfclkPosedgeRestore();
 301:.\Generated_Source\PSoC4/CyLib.c **** 
 302:.\Generated_Source\PSoC4/CyLib.c ****             CyExitCriticalSection(interruptState);
 303:.\Generated_Source\PSoC4/CyLib.c ****         }
 304:.\Generated_Source\PSoC4/CyLib.c ****     }
 305:.\Generated_Source\PSoC4/CyLib.c **** #endif /* (CY_IP_WCO) */
 306:.\Generated_Source\PSoC4/CyLib.c **** 
 307:.\Generated_Source\PSoC4/CyLib.c **** 
 308:.\Generated_Source\PSoC4/CyLib.c **** /*******************************************************************************
 309:.\Generated_Source\PSoC4/CyLib.c **** * Function Name: CySysClkWriteHfclkDirect
 310:.\Generated_Source\PSoC4/CyLib.c **** ********************************************************************************
 311:.\Generated_Source\PSoC4/CyLib.c **** *
 312:.\Generated_Source\PSoC4/CyLib.c **** * Summary:
 313:.\Generated_Source\PSoC4/CyLib.c **** *  Selects the direct source for the HFCLK.
 314:.\Generated_Source\PSoC4/CyLib.c **** *
 315:.\Generated_Source\PSoC4/CyLib.c **** * Parameters:
 316:.\Generated_Source\PSoC4/CyLib.c **** *  clkSelect: One of the available HFCLK direct sources:
 317:.\Generated_Source\PSoC4/CyLib.c **** *   Define                    Source
 318:.\Generated_Source\PSoC4/CyLib.c **** *    CY_SYS_CLK_HFCLK_IMO      IMO
 319:.\Generated_Source\PSoC4/CyLib.c **** *    CY_SYS_CLK_HFCLK_EXTCLK   External clock pin
 320:.\Generated_Source\PSoC4/CyLib.c **** *    CY_SYS_CLK_HFCLK_ECO      External crystal oscillator
 321:.\Generated_Source\PSoC4/CyLib.c **** *                                           (applicable only for PSoC 4200-BL)
 322:.\Generated_Source\PSoC4/CyLib.c **** *
 323:.\Generated_Source\PSoC4/CyLib.c **** * Return:
 324:.\Generated_Source\PSoC4/CyLib.c **** *  None
 325:.\Generated_Source\PSoC4/CyLib.c **** *
 326:.\Generated_Source\PSoC4/CyLib.c **** * Side Effects:
 327:.\Generated_Source\PSoC4/CyLib.c **** *  The new source must be running and stable before calling this function.
 328:.\Generated_Source\PSoC4/CyLib.c **** *
 329:.\Generated_Source\PSoC4/CyLib.c **** *  PSoC 4000:
 330:.\Generated_Source\PSoC4/CyLib.c **** *  The SYSCLK has a maximum speed of 16 MHz, so HFCLK and SYSCLK dividers should
 331:.\Generated_Source\PSoC4/CyLib.c **** *  be selected in a way to not to exceed 16 MHz for the System clock.
 332:.\Generated_Source\PSoC4/CyLib.c **** *
 333:.\Generated_Source\PSoC4/CyLib.c **** *  If the SYSCLK clock frequency increases during device operation, call
 334:.\Generated_Source\PSoC4/CyLib.c **** *  CySysFlashSetWaitCycles() with the appropriate parameter to adjust the number
 335:.\Generated_Source\PSoC4/CyLib.c **** *  of clock cycles the cache will wait before sampling data comes back from Flash.
 336:.\Generated_Source\PSoC4/CyLib.c **** *  If the SYSCLK clock frequency decreases, you can call
 337:.\Generated_Source\PSoC4/CyLib.c **** *  CySysFlashSetWaitCycles() to improve the CPU performance. See
 338:.\Generated_Source\PSoC4/CyLib.c **** *  CySysFlashSetWaitCycles() description for more information.
 339:.\Generated_Source\PSoC4/CyLib.c **** *
 340:.\Generated_Source\PSoC4/CyLib.c **** *******************************************************************************/
 341:.\Generated_Source\PSoC4/CyLib.c **** void CySysClkWriteHfclkDirect(uint32 clkSelect)
 342:.\Generated_Source\PSoC4/CyLib.c **** {
 108              		.loc 1 342 0
 109              		.cfi_startproc
 110              	.LVL0:
 111 0000 10B5     		push	{r4, lr}
 112              		.cfi_def_cfa_offset 8
 113              		.cfi_offset 4, -8
ARM GAS  C:\Users\Pablo\AppData\Local\Temp\ccDGsedh.s 			page 9


 114              		.cfi_offset 14, -4
 115              		.loc 1 342 0
 116 0002 041C     		mov	r4, r0
 343:.\Generated_Source\PSoC4/CyLib.c ****     uint8  interruptState;
 344:.\Generated_Source\PSoC4/CyLib.c **** 
 345:.\Generated_Source\PSoC4/CyLib.c ****     interruptState = CyEnterCriticalSection();
 117              		.loc 1 345 0
 118 0004 FFF7FEFF 		bl	CyEnterCriticalSection
 119              	.LVL1:
 346:.\Generated_Source\PSoC4/CyLib.c **** 
 347:.\Generated_Source\PSoC4/CyLib.c ****     CY_SYS_CLK_SELECT_REG = ((CY_SYS_CLK_SELECT_REG & (( uint32 ) ~(( uint32 )CY_SYS_CLK_SELECT_DIR
 120              		.loc 1 347 0
 121 0008 054B     		ldr	r3, .L11
 348:.\Generated_Source\PSoC4/CyLib.c ****                         (( uint32 ) (clkSelect & ( uint32 )CY_SYS_CLK_SELECT_DIRECT_SEL_PARAM_MASK)
 122              		.loc 1 348 0
 123 000a 0121     		mov	r1, #1
 347:.\Generated_Source\PSoC4/CyLib.c ****     CY_SYS_CLK_SELECT_REG = ((CY_SYS_CLK_SELECT_REG & (( uint32 ) ~(( uint32 )CY_SYS_CLK_SELECT_DIR
 124              		.loc 1 347 0
 125 000c 1A68     		ldr	r2, [r3]
 126              		.loc 1 348 0
 127 000e 0C40     		and	r4, r1
 128              	.LVL2:
 347:.\Generated_Source\PSoC4/CyLib.c ****     CY_SYS_CLK_SELECT_REG = ((CY_SYS_CLK_SELECT_REG & (( uint32 ) ~(( uint32 )CY_SYS_CLK_SELECT_DIR
 129              		.loc 1 347 0
 130 0010 0721     		mov	r1, #7
 131 0012 8A43     		bic	r2, r1
 132 0014 1443     		orr	r4, r2
 133 0016 1C60     		str	r4, [r3]
 349:.\Generated_Source\PSoC4/CyLib.c **** 
 350:.\Generated_Source\PSoC4/CyLib.c ****     CyExitCriticalSection(interruptState);
 134              		.loc 1 350 0
 135 0018 FFF7FEFF 		bl	CyExitCriticalSection
 136              	.LVL3:
 351:.\Generated_Source\PSoC4/CyLib.c **** }
 137              		.loc 1 351 0
 138              		@ sp needed
 139 001c 10BD     		pop	{r4, pc}
 140              	.L12:
 141 001e C046     		.align	2
 142              	.L11:
 143 0020 00010B40 		.word	1074462976
 144              		.cfi_endproc
 145              	.LFE5:
 146              		.size	CySysClkWriteHfclkDirect, .-CySysClkWriteHfclkDirect
 147              		.section	.text.CySysClkWriteSysclkDiv,"ax",%progbits
 148              		.align	1
 149              		.global	CySysClkWriteSysclkDiv
 150              		.code	16
 151              		.thumb_func
 152              		.type	CySysClkWriteSysclkDiv, %function
 153              	CySysClkWriteSysclkDiv:
 154              	.LFB6:
 352:.\Generated_Source\PSoC4/CyLib.c **** 
 353:.\Generated_Source\PSoC4/CyLib.c **** 
 354:.\Generated_Source\PSoC4/CyLib.c **** /*******************************************************************************
 355:.\Generated_Source\PSoC4/CyLib.c **** * Function Name: CySysClkWriteSysclkDiv
 356:.\Generated_Source\PSoC4/CyLib.c **** ********************************************************************************
ARM GAS  C:\Users\Pablo\AppData\Local\Temp\ccDGsedh.s 			page 10


 357:.\Generated_Source\PSoC4/CyLib.c **** *
 358:.\Generated_Source\PSoC4/CyLib.c **** * Summary:
 359:.\Generated_Source\PSoC4/CyLib.c **** *  Selects the prescaler divide amount for SYSCLK from HFCLK.
 360:.\Generated_Source\PSoC4/CyLib.c **** *
 361:.\Generated_Source\PSoC4/CyLib.c **** * Parameters:
 362:.\Generated_Source\PSoC4/CyLib.c **** *  divider: Power of 2 prescaler selection
 363:.\Generated_Source\PSoC4/CyLib.c **** *
 364:.\Generated_Source\PSoC4/CyLib.c **** *   Define                        Description
 365:.\Generated_Source\PSoC4/CyLib.c **** *   CY_SYS_CLK_SYSCLK_DIV1        SYSCLK = HFCLK / 1
 366:.\Generated_Source\PSoC4/CyLib.c **** *   CY_SYS_CLK_SYSCLK_DIV2        SYSCLK = HFCLK / 2
 367:.\Generated_Source\PSoC4/CyLib.c **** *   CY_SYS_CLK_SYSCLK_DIV4        SYSCLK = HFCLK / 4
 368:.\Generated_Source\PSoC4/CyLib.c **** *   CY_SYS_CLK_SYSCLK_DIV8        SYSCLK = HFCLK / 8
 369:.\Generated_Source\PSoC4/CyLib.c **** *   CY_SYS_CLK_SYSCLK_DIV16       SYSCLK = HFCLK / 16  (N/A for 4000 Family)
 370:.\Generated_Source\PSoC4/CyLib.c **** *   CY_SYS_CLK_SYSCLK_DIV32       SYSCLK = HFCLK / 32  (N/A for 4000 Family)
 371:.\Generated_Source\PSoC4/CyLib.c **** *   CY_SYS_CLK_SYSCLK_DIV64       SYSCLK = HFCLK / 64  (N/A for 4000 Family)
 372:.\Generated_Source\PSoC4/CyLib.c **** *   CY_SYS_CLK_SYSCLK_DIV128      SYSCLK = HFCLK / 128 (N/A for 4000 Family)
 373:.\Generated_Source\PSoC4/CyLib.c **** *
 374:.\Generated_Source\PSoC4/CyLib.c **** * Return:
 375:.\Generated_Source\PSoC4/CyLib.c **** *  None
 376:.\Generated_Source\PSoC4/CyLib.c **** *
 377:.\Generated_Source\PSoC4/CyLib.c **** * Side Effects:
 378:.\Generated_Source\PSoC4/CyLib.c **** *  4000 Family:
 379:.\Generated_Source\PSoC4/CyLib.c **** *  The SYS_CLK has the speed of 16 MHz, so dividers HF_CLK and SYS_CLK
 380:.\Generated_Source\PSoC4/CyLib.c **** *  dividers should be selected in a way, not to exceed 16 MHz for SYS_CLK.
 381:.\Generated_Source\PSoC4/CyLib.c **** *
 382:.\Generated_Source\PSoC4/CyLib.c **** *  If the SYSCLK clock frequency increases during the device operation, call
 383:.\Generated_Source\PSoC4/CyLib.c **** *  CySysFlashSetWaitCycles() with the appropriate parameter to adjust the number
 384:.\Generated_Source\PSoC4/CyLib.c **** *  of clock cycles the cache will wait before sampling data comes back from Flash.
 385:.\Generated_Source\PSoC4/CyLib.c **** *  If the SYSCLK clock frequency decreases, you can call
 386:.\Generated_Source\PSoC4/CyLib.c **** *  CySysFlashSetWaitCycles() to improve the CPU performance. See
 387:.\Generated_Source\PSoC4/CyLib.c **** *  CySysFlashSetWaitCycles() description for more information.
 388:.\Generated_Source\PSoC4/CyLib.c **** *
 389:.\Generated_Source\PSoC4/CyLib.c **** *******************************************************************************/
 390:.\Generated_Source\PSoC4/CyLib.c **** void CySysClkWriteSysclkDiv(uint32 divider)
 391:.\Generated_Source\PSoC4/CyLib.c **** {
 155              		.loc 1 391 0
 156              		.cfi_startproc
 157              	.LVL4:
 158 0000 38B5     		push	{r3, r4, r5, lr}
 159              		.cfi_def_cfa_offset 16
 160              		.cfi_offset 3, -16
 161              		.cfi_offset 4, -12
 162              		.cfi_offset 5, -8
 163              		.cfi_offset 14, -4
 164              		.loc 1 391 0
 165 0002 041C     		mov	r4, r0
 392:.\Generated_Source\PSoC4/CyLib.c ****     uint8  interruptState;
 393:.\Generated_Source\PSoC4/CyLib.c **** 
 394:.\Generated_Source\PSoC4/CyLib.c ****     interruptState = CyEnterCriticalSection();
 166              		.loc 1 394 0
 167 0004 FFF7FEFF 		bl	CyEnterCriticalSection
 168              	.LVL5:
 395:.\Generated_Source\PSoC4/CyLib.c **** 
 396:.\Generated_Source\PSoC4/CyLib.c ****     CY_SYS_CLK_SELECT_REG = ((uint32)(((uint32)divider & CY_SYS_CLK_SELECT_SYSCLK_DIV_MASK) <<
 397:.\Generated_Source\PSoC4/CyLib.c ****                                     CY_SYS_CLK_SELECT_SYSCLK_DIV_SHIFT)) |
 398:.\Generated_Source\PSoC4/CyLib.c ****                             (CY_SYS_CLK_SELECT_REG & ((uint32)(~(uint32)(CY_SYS_CLK_SELECT_SYSCLK_D
 169              		.loc 1 398 0
ARM GAS  C:\Users\Pablo\AppData\Local\Temp\ccDGsedh.s 			page 11


 170 0008 064B     		ldr	r3, .L14
 396:.\Generated_Source\PSoC4/CyLib.c ****     CY_SYS_CLK_SELECT_REG = ((uint32)(((uint32)divider & CY_SYS_CLK_SELECT_SYSCLK_DIV_MASK) <<
 171              		.loc 1 396 0
 172 000a 0722     		mov	r2, #7
 173              		.loc 1 398 0
 174 000c 1D68     		ldr	r5, [r3]
 175 000e 0649     		ldr	r1, .L14+4
 396:.\Generated_Source\PSoC4/CyLib.c ****     CY_SYS_CLK_SELECT_REG = ((uint32)(((uint32)divider & CY_SYS_CLK_SELECT_SYSCLK_DIV_MASK) <<
 176              		.loc 1 396 0
 177 0010 1440     		and	r4, r2
 178              	.LVL6:
 179 0012 E204     		lsl	r2, r4, #19
 180              		.loc 1 398 0
 181 0014 2C1C     		mov	r4, r5
 182 0016 0C40     		and	r4, r1
 397:.\Generated_Source\PSoC4/CyLib.c ****                                     CY_SYS_CLK_SELECT_SYSCLK_DIV_SHIFT)) |
 183              		.loc 1 397 0
 184 0018 1443     		orr	r4, r2
 396:.\Generated_Source\PSoC4/CyLib.c ****     CY_SYS_CLK_SELECT_REG = ((uint32)(((uint32)divider & CY_SYS_CLK_SELECT_SYSCLK_DIV_MASK) <<
 185              		.loc 1 396 0
 186 001a 1C60     		str	r4, [r3]
 399:.\Generated_Source\PSoC4/CyLib.c ****                                     CY_SYS_CLK_SELECT_SYSCLK_DIV_SHIFT))));
 400:.\Generated_Source\PSoC4/CyLib.c **** 
 401:.\Generated_Source\PSoC4/CyLib.c ****     CyExitCriticalSection(interruptState);
 187              		.loc 1 401 0
 188 001c FFF7FEFF 		bl	CyExitCriticalSection
 189              	.LVL7:
 402:.\Generated_Source\PSoC4/CyLib.c **** }
 190              		.loc 1 402 0
 191              		@ sp needed
 192 0020 38BD     		pop	{r3, r4, r5, pc}
 193              	.L15:
 194 0022 C046     		.align	2
 195              	.L14:
 196 0024 00010B40 		.word	1074462976
 197 0028 FFFFC7FF 		.word	-3670017
 198              		.cfi_endproc
 199              	.LFE6:
 200              		.size	CySysClkWriteSysclkDiv, .-CySysClkWriteSysclkDiv
 201              		.section	.text.CySysWdtLock,"ax",%progbits
 202              		.align	1
 203              		.global	CySysWdtLock
 204              		.code	16
 205              		.thumb_func
 206              		.type	CySysWdtLock, %function
 207              	CySysWdtLock:
 208              	.LFB8:
 403:.\Generated_Source\PSoC4/CyLib.c **** 
 404:.\Generated_Source\PSoC4/CyLib.c **** 
 405:.\Generated_Source\PSoC4/CyLib.c **** #if(CY_IP_SRSSV2)
 406:.\Generated_Source\PSoC4/CyLib.c **** 
 407:.\Generated_Source\PSoC4/CyLib.c ****     /*******************************************************************************
 408:.\Generated_Source\PSoC4/CyLib.c ****     * Function Name: CySysClkWriteImoFreq
 409:.\Generated_Source\PSoC4/CyLib.c ****     ********************************************************************************
 410:.\Generated_Source\PSoC4/CyLib.c ****     *
 411:.\Generated_Source\PSoC4/CyLib.c ****     * Summary:
 412:.\Generated_Source\PSoC4/CyLib.c ****     *  Sets the frequency of the IMO.
ARM GAS  C:\Users\Pablo\AppData\Local\Temp\ccDGsedh.s 			page 12


 413:.\Generated_Source\PSoC4/CyLib.c ****     *
 414:.\Generated_Source\PSoC4/CyLib.c ****     * Parameters:
 415:.\Generated_Source\PSoC4/CyLib.c ****     *  freq: Valid range [3-48].  Frequency for operation of the IMO.
 416:.\Generated_Source\PSoC4/CyLib.c ****     *  Note: Invalid frequency will be ignored.
 417:.\Generated_Source\PSoC4/CyLib.c ****     *
 418:.\Generated_Source\PSoC4/CyLib.c ****     * Return:
 419:.\Generated_Source\PSoC4/CyLib.c ****     *  None
 420:.\Generated_Source\PSoC4/CyLib.c ****     *
 421:.\Generated_Source\PSoC4/CyLib.c ****     * Side Effects:
 422:.\Generated_Source\PSoC4/CyLib.c ****     *  If the SYSCLK clock frequency increases during the device operation, call
 423:.\Generated_Source\PSoC4/CyLib.c ****     *  CySysFlashSetWaitCycles() with the appropriate parameter to adjust the number
 424:.\Generated_Source\PSoC4/CyLib.c ****     *  of clock cycles the cache will wait before sampling data comes back from Flash.
 425:.\Generated_Source\PSoC4/CyLib.c ****     *  If the SYSCLK clock frequency decreases, you can call
 426:.\Generated_Source\PSoC4/CyLib.c ****     *  CySysFlashSetWaitCycles() to improve the CPU performance.
 427:.\Generated_Source\PSoC4/CyLib.c ****     *  See CySysFlashSetWaitCycles() description for more information.
 428:.\Generated_Source\PSoC4/CyLib.c ****     *
 429:.\Generated_Source\PSoC4/CyLib.c ****     *******************************************************************************/
 430:.\Generated_Source\PSoC4/CyLib.c ****     void CySysClkWriteImoFreq(uint32 freq)
 431:.\Generated_Source\PSoC4/CyLib.c ****     {
 432:.\Generated_Source\PSoC4/CyLib.c ****         uint8  bgTrim4;
 433:.\Generated_Source\PSoC4/CyLib.c ****         uint8  bgTrim5;
 434:.\Generated_Source\PSoC4/CyLib.c ****         uint8  interruptState;
 435:.\Generated_Source\PSoC4/CyLib.c ****         uint8  newImoTrim2Value;
 436:.\Generated_Source\PSoC4/CyLib.c ****         uint8  currentImoTrim2Value;
 437:.\Generated_Source\PSoC4/CyLib.c **** 
 438:.\Generated_Source\PSoC4/CyLib.c **** 
 439:.\Generated_Source\PSoC4/CyLib.c ****         if ((freq >= CY_SYS_CLK_IMO_MIN_FREQ_MHZ) && (freq <= CY_SYS_CLK_IMO_MAX_FREQ_MHZ))
 440:.\Generated_Source\PSoC4/CyLib.c ****         {
 441:.\Generated_Source\PSoC4/CyLib.c ****             if(freq <= CY_SFLASH_IMO_MAXF0_REG)
 442:.\Generated_Source\PSoC4/CyLib.c ****             {
 443:.\Generated_Source\PSoC4/CyLib.c ****                 bgTrim4 = CY_SFLASH_IMO_ABS0_REG;
 444:.\Generated_Source\PSoC4/CyLib.c ****                 bgTrim5 = CY_SFLASH_IMO_TMPCO0_REG;
 445:.\Generated_Source\PSoC4/CyLib.c ****             }
 446:.\Generated_Source\PSoC4/CyLib.c ****             else if(freq <= CY_SFLASH_IMO_MAXF1_REG)
 447:.\Generated_Source\PSoC4/CyLib.c ****             {
 448:.\Generated_Source\PSoC4/CyLib.c ****                 bgTrim4 = CY_SFLASH_IMO_ABS1_REG;
 449:.\Generated_Source\PSoC4/CyLib.c ****                 bgTrim5 = CY_SFLASH_IMO_TMPCO1_REG;
 450:.\Generated_Source\PSoC4/CyLib.c ****             }
 451:.\Generated_Source\PSoC4/CyLib.c ****             else if(freq <= CY_SFLASH_IMO_MAXF2_REG)
 452:.\Generated_Source\PSoC4/CyLib.c ****             {
 453:.\Generated_Source\PSoC4/CyLib.c ****                 bgTrim4 = CY_SFLASH_IMO_ABS2_REG;
 454:.\Generated_Source\PSoC4/CyLib.c ****                 bgTrim5 = CY_SFLASH_IMO_TMPCO2_REG;
 455:.\Generated_Source\PSoC4/CyLib.c ****             }
 456:.\Generated_Source\PSoC4/CyLib.c ****             else if(freq <= CY_SFLASH_IMO_MAXF3_REG)
 457:.\Generated_Source\PSoC4/CyLib.c ****             {
 458:.\Generated_Source\PSoC4/CyLib.c ****                 bgTrim4 = CY_SFLASH_IMO_ABS3_REG;
 459:.\Generated_Source\PSoC4/CyLib.c ****                 bgTrim5 = CY_SFLASH_IMO_TMPCO3_REG;
 460:.\Generated_Source\PSoC4/CyLib.c ****             }
 461:.\Generated_Source\PSoC4/CyLib.c ****             else
 462:.\Generated_Source\PSoC4/CyLib.c ****             {
 463:.\Generated_Source\PSoC4/CyLib.c ****                 bgTrim4 = CY_SFLASH_IMO_ABS4_REG;
 464:.\Generated_Source\PSoC4/CyLib.c ****                 bgTrim5 = CY_SFLASH_IMO_TMPCO4_REG;
 465:.\Generated_Source\PSoC4/CyLib.c ****             }
 466:.\Generated_Source\PSoC4/CyLib.c **** 
 467:.\Generated_Source\PSoC4/CyLib.c ****             /* Get IMO_TRIM2 value for the new frequency */
 468:.\Generated_Source\PSoC4/CyLib.c ****             newImoTrim2Value = cyImoFreqMhz2Reg[freq - CY_SYS_CLK_IMO_FREQ_TABLE_OFFSET];
 469:.\Generated_Source\PSoC4/CyLib.c **** 
ARM GAS  C:\Users\Pablo\AppData\Local\Temp\ccDGsedh.s 			page 13


 470:.\Generated_Source\PSoC4/CyLib.c **** 
 471:.\Generated_Source\PSoC4/CyLib.c ****             interruptState = CyEnterCriticalSection();
 472:.\Generated_Source\PSoC4/CyLib.c **** 
 473:.\Generated_Source\PSoC4/CyLib.c ****             /***************************************************************************
 474:.\Generated_Source\PSoC4/CyLib.c ****             * The IMO can have a different trim per frequency. To avoid possible corner
 475:.\Generated_Source\PSoC4/CyLib.c ****             * cases where a trim change can exceed the maximum frequency, the trim must
 476:.\Generated_Source\PSoC4/CyLib.c ****             * be applied at a frequency that is low enough.
 477:.\Generated_Source\PSoC4/CyLib.c ****             *
 478:.\Generated_Source\PSoC4/CyLib.c ****             * Comparing IMO_TRIM2 values for the current and new frequencies, since
 479:.\Generated_Source\PSoC4/CyLib.c ****             * IMO_TRIM2 value as a function of IMO frequency is a strictly increasing
 480:.\Generated_Source\PSoC4/CyLib.c ****             * function and is time-invariant.
 481:.\Generated_Source\PSoC4/CyLib.c ****             ***************************************************************************/
 482:.\Generated_Source\PSoC4/CyLib.c ****             if ((newImoTrim2Value >= CY_SYS_CLK_IMO_BOUNDARY_FREQ_TRIM2) && (freq >= CY_SYS_CLK_IMO
 483:.\Generated_Source\PSoC4/CyLib.c ****             {
 484:.\Generated_Source\PSoC4/CyLib.c ****                 /* Set boundary IMO frequency: safe for IMO above 48 MHZ trimming */
 485:.\Generated_Source\PSoC4/CyLib.c ****                 CY_SYS_CLK_IMO_TRIM2_REG = (uint32) cyImoFreqMhz2Reg[CY_SYS_CLK_IMO_TEMP_FREQ_MHZ -
 486:.\Generated_Source\PSoC4/CyLib.c ****                                                                      CY_SYS_CLK_IMO_FREQ_TABLE_OFFS
 487:.\Generated_Source\PSoC4/CyLib.c **** 
 488:.\Generated_Source\PSoC4/CyLib.c ****                 CyDelayCycles(CY_SYS_CLK_IMO_FREQ_TIMEOUT_CYCLES);
 489:.\Generated_Source\PSoC4/CyLib.c **** 
 490:.\Generated_Source\PSoC4/CyLib.c ****                 currentImoTrim2Value = CY_SYS_CLK_IMO_TEMP_FREQ_TRIM2;
 491:.\Generated_Source\PSoC4/CyLib.c ****             }
 492:.\Generated_Source\PSoC4/CyLib.c ****             else
 493:.\Generated_Source\PSoC4/CyLib.c ****             {
 494:.\Generated_Source\PSoC4/CyLib.c ****                 currentImoTrim2Value = (uint8) (CY_SYS_CLK_IMO_TRIM2_REG & CY_SYS_CLK_IMO_FREQ_BITS
 495:.\Generated_Source\PSoC4/CyLib.c ****             }
 496:.\Generated_Source\PSoC4/CyLib.c **** 
 497:.\Generated_Source\PSoC4/CyLib.c **** 
 498:.\Generated_Source\PSoC4/CyLib.c ****             /***************************************************************************
 499:.\Generated_Source\PSoC4/CyLib.c ****             * A trim change needs to be allowed to settle (within 5us) before the Freq
 500:.\Generated_Source\PSoC4/CyLib.c ****             * can be changed to a new frequency.
 501:.\Generated_Source\PSoC4/CyLib.c ****             *
 502:.\Generated_Source\PSoC4/CyLib.c ****             * Comparing IMO_TRIM2 values for the current and new frequencies, since
 503:.\Generated_Source\PSoC4/CyLib.c ****             * IMO_TRIM2 value as a function of IMO frequency is a strictly increasing
 504:.\Generated_Source\PSoC4/CyLib.c ****             * function and is time-invariant.
 505:.\Generated_Source\PSoC4/CyLib.c ****             ***************************************************************************/
 506:.\Generated_Source\PSoC4/CyLib.c ****             if (newImoTrim2Value < currentImoTrim2Value)
 507:.\Generated_Source\PSoC4/CyLib.c ****             {
 508:.\Generated_Source\PSoC4/CyLib.c ****                 /* Set new IMO frequency */
 509:.\Generated_Source\PSoC4/CyLib.c ****                 CY_SYS_CLK_IMO_TRIM2_REG = cyImoFreqMhz2Reg[freq - CY_SYS_CLK_IMO_FREQ_TABLE_OFFSET
 510:.\Generated_Source\PSoC4/CyLib.c ****                 CyDelayCycles(CY_SYS_CLK_IMO_FREQ_TIMEOUT_CYCLES);
 511:.\Generated_Source\PSoC4/CyLib.c ****             }
 512:.\Generated_Source\PSoC4/CyLib.c **** 
 513:.\Generated_Source\PSoC4/CyLib.c ****             /* Set trims for the new IMO frequency */
 514:.\Generated_Source\PSoC4/CyLib.c ****             CY_SYS_CLK_IMO_TRIM1_REG = (uint32) CY_SFLASH_IMO_TRIM_REG(freq - CY_SYS_CLK_IMO_FREQ_T
 515:.\Generated_Source\PSoC4/CyLib.c ****             CY_PWR_BG_TRIM4_REG  = bgTrim4;
 516:.\Generated_Source\PSoC4/CyLib.c ****             CY_PWR_BG_TRIM5_REG  = bgTrim5;
 517:.\Generated_Source\PSoC4/CyLib.c ****             CyDelayUs(CY_SYS_CLK_IMO_TRIM_TIMEOUT_US);
 518:.\Generated_Source\PSoC4/CyLib.c **** 
 519:.\Generated_Source\PSoC4/CyLib.c ****             if (newImoTrim2Value > currentImoTrim2Value)
 520:.\Generated_Source\PSoC4/CyLib.c ****             {
 521:.\Generated_Source\PSoC4/CyLib.c ****                 /* Set new IMO frequency */
 522:.\Generated_Source\PSoC4/CyLib.c ****                 CY_SYS_CLK_IMO_TRIM2_REG = cyImoFreqMhz2Reg[freq - CY_SYS_CLK_IMO_FREQ_TABLE_OFFSET
 523:.\Generated_Source\PSoC4/CyLib.c ****                 CyDelayCycles(CY_SYS_CLK_IMO_FREQ_TIMEOUT_CYCLES);
 524:.\Generated_Source\PSoC4/CyLib.c ****             }
 525:.\Generated_Source\PSoC4/CyLib.c **** 
 526:.\Generated_Source\PSoC4/CyLib.c ****             CyExitCriticalSection(interruptState);
ARM GAS  C:\Users\Pablo\AppData\Local\Temp\ccDGsedh.s 			page 14


 527:.\Generated_Source\PSoC4/CyLib.c ****         }
 528:.\Generated_Source\PSoC4/CyLib.c ****         else
 529:.\Generated_Source\PSoC4/CyLib.c ****         {
 530:.\Generated_Source\PSoC4/CyLib.c ****             /* Halt CPU in debug mode if new frequency is invalid */
 531:.\Generated_Source\PSoC4/CyLib.c ****             CYASSERT(0u != 0u);
 532:.\Generated_Source\PSoC4/CyLib.c ****         }
 533:.\Generated_Source\PSoC4/CyLib.c ****     }
 534:.\Generated_Source\PSoC4/CyLib.c **** 
 535:.\Generated_Source\PSoC4/CyLib.c **** 
 536:.\Generated_Source\PSoC4/CyLib.c **** #else
 537:.\Generated_Source\PSoC4/CyLib.c **** 
 538:.\Generated_Source\PSoC4/CyLib.c **** 
 539:.\Generated_Source\PSoC4/CyLib.c ****     /*******************************************************************************
 540:.\Generated_Source\PSoC4/CyLib.c ****     * Function Name: CySysClkWriteHfclkDiv
 541:.\Generated_Source\PSoC4/CyLib.c ****     ********************************************************************************
 542:.\Generated_Source\PSoC4/CyLib.c ****     *
 543:.\Generated_Source\PSoC4/CyLib.c ****     * Summary:
 544:.\Generated_Source\PSoC4/CyLib.c ****     *  Selects HF clk predivider value.
 545:.\Generated_Source\PSoC4/CyLib.c ****     *
 546:.\Generated_Source\PSoC4/CyLib.c ****     * Parameters:
 547:.\Generated_Source\PSoC4/CyLib.c ****     *  divider: HF clock divider value
 548:.\Generated_Source\PSoC4/CyLib.c ****     *   Define                        Description
 549:.\Generated_Source\PSoC4/CyLib.c ****     *   CY_SYS_CLK_HFCLK_DIV_NODIV    Transparent mode (w/o dividing)
 550:.\Generated_Source\PSoC4/CyLib.c ****     *   CY_SYS_CLK_HFCLK_DIV_2        Divide selected clock source by 2
 551:.\Generated_Source\PSoC4/CyLib.c ****     *   CY_SYS_CLK_HFCLK_DIV_4        Divide selected clock source by 4
 552:.\Generated_Source\PSoC4/CyLib.c ****     *   CY_SYS_CLK_HFCLK_DIV_8        Divide selected clock source by 8
 553:.\Generated_Source\PSoC4/CyLib.c ****     *
 554:.\Generated_Source\PSoC4/CyLib.c ****     * Return:
 555:.\Generated_Source\PSoC4/CyLib.c ****     *  None
 556:.\Generated_Source\PSoC4/CyLib.c ****     *
 557:.\Generated_Source\PSoC4/CyLib.c ****     * Side Effects:
 558:.\Generated_Source\PSoC4/CyLib.c ****     *  If the SYSCLK clock frequency increases during the device operation, call
 559:.\Generated_Source\PSoC4/CyLib.c ****     *  CySysFlashSetWaitCycles() with the appropriate parameter to adjust the number
 560:.\Generated_Source\PSoC4/CyLib.c ****     *  of clock cycles the cache will wait before sampling data comes back from Flash.
 561:.\Generated_Source\PSoC4/CyLib.c ****     *  If the SYSCLK clock frequency decreases, you can call
 562:.\Generated_Source\PSoC4/CyLib.c ****     *  CySysFlashSetWaitCycles() to improve the CPU performance. See
 563:.\Generated_Source\PSoC4/CyLib.c ****     *  CySysFlashSetWaitCycles() description for more information.
 564:.\Generated_Source\PSoC4/CyLib.c ****     *
 565:.\Generated_Source\PSoC4/CyLib.c **** 
 566:.\Generated_Source\PSoC4/CyLib.c ****     *
 567:.\Generated_Source\PSoC4/CyLib.c ****     *******************************************************************************/
 568:.\Generated_Source\PSoC4/CyLib.c ****     void CySysClkWriteHfclkDiv(uint32 divider)
 569:.\Generated_Source\PSoC4/CyLib.c ****     {
 570:.\Generated_Source\PSoC4/CyLib.c ****         uint8  interruptState;
 571:.\Generated_Source\PSoC4/CyLib.c **** 
 572:.\Generated_Source\PSoC4/CyLib.c ****         interruptState = CyEnterCriticalSection();
 573:.\Generated_Source\PSoC4/CyLib.c **** 
 574:.\Generated_Source\PSoC4/CyLib.c ****         CY_SYS_CLK_SELECT_REG = ((CY_SYS_CLK_SELECT_REG & ((uint32) (~(CY_SYS_CLK_SELECT_HFCLK_DIV_
 575:.\Generated_Source\PSoC4/CyLib.c ****                                         CY_SYS_CLK_SELECT_HFCLK_DIV_SHIFT)))) |
 576:.\Generated_Source\PSoC4/CyLib.c ****                     ((uint32)((divider & CY_SYS_CLK_SELECT_HFCLK_DIV_MASK) << CY_SYS_CLK_SELECT_HFC
 577:.\Generated_Source\PSoC4/CyLib.c **** 
 578:.\Generated_Source\PSoC4/CyLib.c ****         CyExitCriticalSection(interruptState);
 579:.\Generated_Source\PSoC4/CyLib.c ****     }
 580:.\Generated_Source\PSoC4/CyLib.c **** 
 581:.\Generated_Source\PSoC4/CyLib.c **** 
 582:.\Generated_Source\PSoC4/CyLib.c ****     /*******************************************************************************
 583:.\Generated_Source\PSoC4/CyLib.c ****     * Function Name: CySysClkWriteImoFreq
ARM GAS  C:\Users\Pablo\AppData\Local\Temp\ccDGsedh.s 			page 15


 584:.\Generated_Source\PSoC4/CyLib.c ****     ********************************************************************************
 585:.\Generated_Source\PSoC4/CyLib.c ****     *
 586:.\Generated_Source\PSoC4/CyLib.c ****     * Summary:
 587:.\Generated_Source\PSoC4/CyLib.c ****     *  Sets the frequency of the IMO.
 588:.\Generated_Source\PSoC4/CyLib.c ****     *
 589:.\Generated_Source\PSoC4/CyLib.c ****     * Parameters:
 590:.\Generated_Source\PSoC4/CyLib.c ****     *  freq: Valid values are 24, 32 and 48 MHz.
 591:.\Generated_Source\PSoC4/CyLib.c ****     *
 592:.\Generated_Source\PSoC4/CyLib.c ****     *  Note: The CPU is halted if new frequency is invalid and project is
 593:.\Generated_Source\PSoC4/CyLib.c ****     *  compiled in debug mode.
 594:.\Generated_Source\PSoC4/CyLib.c ****     *
 595:.\Generated_Source\PSoC4/CyLib.c ****     * Return:
 596:.\Generated_Source\PSoC4/CyLib.c ****     *  None
 597:.\Generated_Source\PSoC4/CyLib.c ****     *
 598:.\Generated_Source\PSoC4/CyLib.c ****     * Side Effects:
 599:.\Generated_Source\PSoC4/CyLib.c ****     *  If the SYSCLK clock frequency increases during the device operation, call
 600:.\Generated_Source\PSoC4/CyLib.c ****     *  CySysFlashSetWaitCycles() with the appropriate parameter to adjust the number
 601:.\Generated_Source\PSoC4/CyLib.c ****     *  of clock cycles the cache will wait before sampling data comes back from Flash.
 602:.\Generated_Source\PSoC4/CyLib.c ****     *  If the SYSCLK clock frequency decreases, you can call
 603:.\Generated_Source\PSoC4/CyLib.c ****     *  CySysFlashSetWaitCycles() to improve the CPU performance. See
 604:.\Generated_Source\PSoC4/CyLib.c ****     *  CySysFlashSetWaitCycles() description for more information.
 605:.\Generated_Source\PSoC4/CyLib.c ****     *
 606:.\Generated_Source\PSoC4/CyLib.c ****     *  The System Clock (SYSCLK) has maximum speed of 16 MHz, so HFCLK and SYSCLK
 607:.\Generated_Source\PSoC4/CyLib.c ****     *  dividers should be selected in a way, to not to exceed 16 MHz for the System
 608:.\Generated_Source\PSoC4/CyLib.c ****     *  clock.
 609:.\Generated_Source\PSoC4/CyLib.c ****     *
 610:.\Generated_Source\PSoC4/CyLib.c ****     *******************************************************************************/
 611:.\Generated_Source\PSoC4/CyLib.c ****     void CySysClkWriteImoFreq(uint32 freq)
 612:.\Generated_Source\PSoC4/CyLib.c ****     {
 613:.\Generated_Source\PSoC4/CyLib.c ****         uint8  interruptState;
 614:.\Generated_Source\PSoC4/CyLib.c **** 
 615:.\Generated_Source\PSoC4/CyLib.c ****         if ((freq == 24u) || (freq == 32u) || (freq == 48u))
 616:.\Generated_Source\PSoC4/CyLib.c ****         {
 617:.\Generated_Source\PSoC4/CyLib.c ****             interruptState = CyEnterCriticalSection();
 618:.\Generated_Source\PSoC4/CyLib.c **** 
 619:.\Generated_Source\PSoC4/CyLib.c ****             /* Set IMO to 24 MHz - CLK_IMO_SELECT.FREQ = 0 */
 620:.\Generated_Source\PSoC4/CyLib.c ****             CY_SYS_CLK_IMO_SELECT_REG &= ((uint32) ~CY_SYS_CLK_IMO_SELECT_FREQ_MASK);
 621:.\Generated_Source\PSoC4/CyLib.c **** 
 622:.\Generated_Source\PSoC4/CyLib.c ****             /* Apply coarse trim */
 623:.\Generated_Source\PSoC4/CyLib.c ****             CY_SYS_CLK_IMO_TRIM1_REG = (CY_SYS_CLK_IMO_TRIM1_REG & ((uint32) ~CY_SYS_CLK_IMO_TRIM1_
 624:.\Generated_Source\PSoC4/CyLib.c ****                 (CY_SFLASH_IMO_TRIM_REG(freq - CY_SYS_CLK_IMO_MIN_FREQ_MHZ) & CY_SYS_CLK_IMO_TRIM1_
 625:.\Generated_Source\PSoC4/CyLib.c **** 
 626:.\Generated_Source\PSoC4/CyLib.c ****             /* Zero out fine trim */
 627:.\Generated_Source\PSoC4/CyLib.c ****             CY_SYS_CLK_IMO_TRIM2_REG = CY_SYS_CLK_IMO_TRIM2_REG & ((uint32) ~CY_SYS_CLK_IMO_TRIM2_F
 628:.\Generated_Source\PSoC4/CyLib.c **** 
 629:.\Generated_Source\PSoC4/CyLib.c ****             /* Apply TC trim */
 630:.\Generated_Source\PSoC4/CyLib.c ****             CY_SYS_CLK_IMO_TRIM3_REG = (CY_SYS_CLK_IMO_TRIM3_REG & ((uint32) ~CY_SYS_CLK_IMO_TRIM3_
 631:.\Generated_Source\PSoC4/CyLib.c ****                 (CY_SFLASH_IMO_TCTRIM_REG(freq - CY_SYS_CLK_IMO_MIN_FREQ_MHZ) & CY_SYS_CLK_IMO_TRIM
 632:.\Generated_Source\PSoC4/CyLib.c **** 
 633:.\Generated_Source\PSoC4/CyLib.c ****             CyDelayCycles(CY_SYS_CLK_IMO_TRIM_DELAY_US);
 634:.\Generated_Source\PSoC4/CyLib.c **** 
 635:.\Generated_Source\PSoC4/CyLib.c ****             if (freq > CY_SYS_CLK_IMO_MIN_FREQ_MHZ)
 636:.\Generated_Source\PSoC4/CyLib.c ****             {
 637:.\Generated_Source\PSoC4/CyLib.c ****                 /* Select nearby intermediate frequency */
 638:.\Generated_Source\PSoC4/CyLib.c ****                 CY_SYS_CLK_IMO_SELECT_REG = (CY_SYS_CLK_IMO_SELECT_REG & ((uint32) ~CY_SYS_CLK_IMO_
 639:.\Generated_Source\PSoC4/CyLib.c ****                     (((freq - 4u - CY_SYS_CLK_IMO_MIN_FREQ_MHZ) >> 2u) & CY_SYS_CLK_IMO_SELECT_FREQ
 640:.\Generated_Source\PSoC4/CyLib.c **** 
ARM GAS  C:\Users\Pablo\AppData\Local\Temp\ccDGsedh.s 			page 16


 641:.\Generated_Source\PSoC4/CyLib.c ****                 CyDelayCycles(CY_SYS_CLK_IMO_TRIM_DELAY_US);
 642:.\Generated_Source\PSoC4/CyLib.c **** 
 643:.\Generated_Source\PSoC4/CyLib.c ****                 /* Make small step to final frequency */
 644:.\Generated_Source\PSoC4/CyLib.c ****                 /* Select nearby intermediate frequency */
 645:.\Generated_Source\PSoC4/CyLib.c ****                 CY_SYS_CLK_IMO_SELECT_REG = (CY_SYS_CLK_IMO_SELECT_REG & ((uint32) ~CY_SYS_CLK_IMO_
 646:.\Generated_Source\PSoC4/CyLib.c ****                     (((freq - CY_SYS_CLK_IMO_MIN_FREQ_MHZ) >> 2u) & CY_SYS_CLK_IMO_SELECT_FREQ_MASK
 647:.\Generated_Source\PSoC4/CyLib.c ****             }
 648:.\Generated_Source\PSoC4/CyLib.c **** 
 649:.\Generated_Source\PSoC4/CyLib.c ****             CyExitCriticalSection(interruptState);
 650:.\Generated_Source\PSoC4/CyLib.c ****         }
 651:.\Generated_Source\PSoC4/CyLib.c ****         else
 652:.\Generated_Source\PSoC4/CyLib.c ****         {
 653:.\Generated_Source\PSoC4/CyLib.c ****             /* Halt CPU in debug mode if new frequency is invalid */
 654:.\Generated_Source\PSoC4/CyLib.c ****             CYASSERT(0u != 0u);
 655:.\Generated_Source\PSoC4/CyLib.c ****         }
 656:.\Generated_Source\PSoC4/CyLib.c ****     }
 657:.\Generated_Source\PSoC4/CyLib.c **** 
 658:.\Generated_Source\PSoC4/CyLib.c **** #endif /* (CY_IP_SRSSV2) */
 659:.\Generated_Source\PSoC4/CyLib.c **** 
 660:.\Generated_Source\PSoC4/CyLib.c **** 
 661:.\Generated_Source\PSoC4/CyLib.c **** #if (CY_PSOC4_4100BL || CY_PSOC4_4200BL)
 662:.\Generated_Source\PSoC4/CyLib.c **** 
 663:.\Generated_Source\PSoC4/CyLib.c ****     /*******************************************************************************
 664:.\Generated_Source\PSoC4/CyLib.c ****     * Function Name: CySysClkEcoStart
 665:.\Generated_Source\PSoC4/CyLib.c ****     ********************************************************************************
 666:.\Generated_Source\PSoC4/CyLib.c ****     *
 667:.\Generated_Source\PSoC4/CyLib.c ****     * Summary:
 668:.\Generated_Source\PSoC4/CyLib.c ****     *  Starts the External Crystal Oscillator (ECO). Refer to the device datasheet
 669:.\Generated_Source\PSoC4/CyLib.c ****     *  for the ECO startup time.
 670:.\Generated_Source\PSoC4/CyLib.c ****     *
 671:.\Generated_Source\PSoC4/CyLib.c ****     *  The timeout interval is measured based on the system frequency defined by
 672:.\Generated_Source\PSoC4/CyLib.c ****     *  PSoC Creator at build time. If System clock frequency is changed in
 673:.\Generated_Source\PSoC4/CyLib.c ****     *  runtime, the CyDelayFreq() with the appropriate parameter should be called.
 674:.\Generated_Source\PSoC4/CyLib.c ****     *
 675:.\Generated_Source\PSoC4/CyLib.c ****     * Parameters:
 676:.\Generated_Source\PSoC4/CyLib.c ****     *  timeoutUs: Timeout in microseconds. If zero is specified, the function
 677:.\Generated_Source\PSoC4/CyLib.c ****     *             starts the crystal and returns CYRET_SUCCESS. If non-zero
 678:.\Generated_Source\PSoC4/CyLib.c ****     *             value is passed, the CYRET_SUCCESS is returned once crystal
 679:.\Generated_Source\PSoC4/CyLib.c ****     *             is oscillating and amplitude reached 60% and it does not mean
 680:.\Generated_Source\PSoC4/CyLib.c ****     *             24 MHz crystal is within 50 ppm. If it is not oscillating or
 681:.\Generated_Source\PSoC4/CyLib.c ****     *             amplitude didn't reach 60% after specified amount of time, the
 682:.\Generated_Source\PSoC4/CyLib.c ****     *             CYRET_TIMEOUT is returned.
 683:.\Generated_Source\PSoC4/CyLib.c ****     *
 684:.\Generated_Source\PSoC4/CyLib.c ****     * Return:
 685:.\Generated_Source\PSoC4/CyLib.c ****     *   CYRET_SUCCESS - Completed successfully. The ECO is oscillating and amplitude
 686:.\Generated_Source\PSoC4/CyLib.c ****     *                   reached 60% and it does not mean 24 MHz crystal is within
 687:.\Generated_Source\PSoC4/CyLib.c ****     *                   50 ppm.
 688:.\Generated_Source\PSoC4/CyLib.c ****     *   CYRET_TIMEOUT - Timeout occurred.
 689:.\Generated_Source\PSoC4/CyLib.c ****     *
 690:.\Generated_Source\PSoC4/CyLib.c ****     *******************************************************************************/
 691:.\Generated_Source\PSoC4/CyLib.c ****     cystatus CySysClkEcoStart(uint32 timeoutUs)
 692:.\Generated_Source\PSoC4/CyLib.c ****     {
 693:.\Generated_Source\PSoC4/CyLib.c ****         cystatus status = CYRET_SUCCESS;
 694:.\Generated_Source\PSoC4/CyLib.c **** 
 695:.\Generated_Source\PSoC4/CyLib.c ****         /* Enable the RF oscillator band gap */
 696:.\Generated_Source\PSoC4/CyLib.c ****         CY_SYS_XTAL_BLESS_RF_CONFIG_REG |= CY_SYS_XTAL_BLESS_RF_CONFIG_RF_ENABLE;
 697:.\Generated_Source\PSoC4/CyLib.c **** 
ARM GAS  C:\Users\Pablo\AppData\Local\Temp\ccDGsedh.s 			page 17


 698:.\Generated_Source\PSoC4/CyLib.c ****         /* Update trimming register */
 699:.\Generated_Source\PSoC4/CyLib.c ****         CY_SYS_XTAL_BLERD_BB_XO_REG = CY_SYS_XTAL_BLERD_BB_XO_TRIM;
 700:.\Generated_Source\PSoC4/CyLib.c **** 
 701:.\Generated_Source\PSoC4/CyLib.c ****         /* Enable the Crystal */
 702:.\Generated_Source\PSoC4/CyLib.c ****         CY_SYS_XTAL_BLERD_DBUS_REG |= CY_SYS_XTAL_BLERD_DBUS_XTAL_ENABLE;
 703:.\Generated_Source\PSoC4/CyLib.c **** 
 704:.\Generated_Source\PSoC4/CyLib.c ****         if(timeoutUs > 0u)
 705:.\Generated_Source\PSoC4/CyLib.c ****         {
 706:.\Generated_Source\PSoC4/CyLib.c ****             status = CYRET_TIMEOUT;
 707:.\Generated_Source\PSoC4/CyLib.c **** 
 708:.\Generated_Source\PSoC4/CyLib.c ****             for( ; timeoutUs > 0u; timeoutUs--)
 709:.\Generated_Source\PSoC4/CyLib.c ****             {
 710:.\Generated_Source\PSoC4/CyLib.c ****                 CyDelayUs(1u);
 711:.\Generated_Source\PSoC4/CyLib.c **** 
 712:.\Generated_Source\PSoC4/CyLib.c ****                 if(0u != CySysClkEcoReadStatus())
 713:.\Generated_Source\PSoC4/CyLib.c ****                 {
 714:.\Generated_Source\PSoC4/CyLib.c ****                     status = CYRET_SUCCESS;
 715:.\Generated_Source\PSoC4/CyLib.c ****                     break;
 716:.\Generated_Source\PSoC4/CyLib.c ****                 }
 717:.\Generated_Source\PSoC4/CyLib.c ****             }
 718:.\Generated_Source\PSoC4/CyLib.c **** 
 719:.\Generated_Source\PSoC4/CyLib.c ****         }
 720:.\Generated_Source\PSoC4/CyLib.c **** 
 721:.\Generated_Source\PSoC4/CyLib.c ****         return(status);
 722:.\Generated_Source\PSoC4/CyLib.c ****     }
 723:.\Generated_Source\PSoC4/CyLib.c **** 
 724:.\Generated_Source\PSoC4/CyLib.c **** 
 725:.\Generated_Source\PSoC4/CyLib.c ****     /*******************************************************************************
 726:.\Generated_Source\PSoC4/CyLib.c ****     * Function Name: CySysClkEcoStop
 727:.\Generated_Source\PSoC4/CyLib.c ****     ********************************************************************************
 728:.\Generated_Source\PSoC4/CyLib.c ****     *
 729:.\Generated_Source\PSoC4/CyLib.c ****     * Summary:
 730:.\Generated_Source\PSoC4/CyLib.c ****     *  Stops the megahertz crystal.
 731:.\Generated_Source\PSoC4/CyLib.c ****     *
 732:.\Generated_Source\PSoC4/CyLib.c ****     * Parameters:
 733:.\Generated_Source\PSoC4/CyLib.c ****     *  None
 734:.\Generated_Source\PSoC4/CyLib.c ****     *
 735:.\Generated_Source\PSoC4/CyLib.c ****     * Return:
 736:.\Generated_Source\PSoC4/CyLib.c ****     *  None
 737:.\Generated_Source\PSoC4/CyLib.c ****     *
 738:.\Generated_Source\PSoC4/CyLib.c ****     *******************************************************************************/
 739:.\Generated_Source\PSoC4/CyLib.c ****     void CySysClkEcoStop(void)
 740:.\Generated_Source\PSoC4/CyLib.c ****     {
 741:.\Generated_Source\PSoC4/CyLib.c ****         /* Disable the RF oscillator band gap */
 742:.\Generated_Source\PSoC4/CyLib.c ****         CY_SYS_XTAL_BLESS_RF_CONFIG_REG &= (uint32) ~CY_SYS_XTAL_BLESS_RF_CONFIG_RF_ENABLE;
 743:.\Generated_Source\PSoC4/CyLib.c **** 
 744:.\Generated_Source\PSoC4/CyLib.c ****         /* Disable the Crystal */
 745:.\Generated_Source\PSoC4/CyLib.c ****         CY_SYS_XTAL_BLERD_DBUS_REG &= (uint32) ~CY_SYS_XTAL_BLERD_DBUS_XTAL_ENABLE;
 746:.\Generated_Source\PSoC4/CyLib.c ****     }
 747:.\Generated_Source\PSoC4/CyLib.c **** 
 748:.\Generated_Source\PSoC4/CyLib.c **** 
 749:.\Generated_Source\PSoC4/CyLib.c ****     /*******************************************************************************
 750:.\Generated_Source\PSoC4/CyLib.c ****     * Function Name: CySysClkEcoReadStatus
 751:.\Generated_Source\PSoC4/CyLib.c ****     ********************************************************************************
 752:.\Generated_Source\PSoC4/CyLib.c ****     *
 753:.\Generated_Source\PSoC4/CyLib.c ****     * Summary:
 754:.\Generated_Source\PSoC4/CyLib.c ****     *  Read status bit (50 ppm reached) for the megahertz crystal.
ARM GAS  C:\Users\Pablo\AppData\Local\Temp\ccDGsedh.s 			page 18


 755:.\Generated_Source\PSoC4/CyLib.c ****     *
 756:.\Generated_Source\PSoC4/CyLib.c ****     * Parameters:
 757:.\Generated_Source\PSoC4/CyLib.c ****     *  None
 758:.\Generated_Source\PSoC4/CyLib.c ****     *
 759:.\Generated_Source\PSoC4/CyLib.c ****     * Return:
 760:.\Generated_Source\PSoC4/CyLib.c ****     *  Non-zero indicates that XTAL output reached 50 ppm.
 761:.\Generated_Source\PSoC4/CyLib.c ****     *
 762:.\Generated_Source\PSoC4/CyLib.c ****     *******************************************************************************/
 763:.\Generated_Source\PSoC4/CyLib.c ****     uint32 CySysClkEcoReadStatus(void)
 764:.\Generated_Source\PSoC4/CyLib.c ****     {
 765:.\Generated_Source\PSoC4/CyLib.c ****         return (CY_SYS_XTAL_BLERD_FSM_REG & CY_SYS_XTAL_BLERD_FSM_XO_AMP_DETECT);
 766:.\Generated_Source\PSoC4/CyLib.c ****     }
 767:.\Generated_Source\PSoC4/CyLib.c **** 
 768:.\Generated_Source\PSoC4/CyLib.c **** 
 769:.\Generated_Source\PSoC4/CyLib.c ****     /*******************************************************************************
 770:.\Generated_Source\PSoC4/CyLib.c ****     * Function Name: CySysClkWriteEcoDiv
 771:.\Generated_Source\PSoC4/CyLib.c ****     ********************************************************************************
 772:.\Generated_Source\PSoC4/CyLib.c ****     *
 773:.\Generated_Source\PSoC4/CyLib.c ****     * Summary:
 774:.\Generated_Source\PSoC4/CyLib.c ****     *  Selects value for the ECO divider.
 775:.\Generated_Source\PSoC4/CyLib.c ****     *
 776:.\Generated_Source\PSoC4/CyLib.c ****     * Parameters:
 777:.\Generated_Source\PSoC4/CyLib.c ****     *  divider: Power of 2 divider selection.
 778:.\Generated_Source\PSoC4/CyLib.c ****     *
 779:.\Generated_Source\PSoC4/CyLib.c ****     *   Define                        Description
 780:.\Generated_Source\PSoC4/CyLib.c ****     *   CY_SYS_CLK_ECO_DIV1             HFCLK = ECO / 1
 781:.\Generated_Source\PSoC4/CyLib.c ****     *   CY_SYS_CLK_ECO_DIV2             HFCLK = ECO / 2
 782:.\Generated_Source\PSoC4/CyLib.c ****     *   CY_SYS_CLK_ECO_DIV4             HFCLK = ECO / 4
 783:.\Generated_Source\PSoC4/CyLib.c ****     *   CY_SYS_CLK_ECO_DIV8             HFCLK = ECO / 8
 784:.\Generated_Source\PSoC4/CyLib.c ****     *
 785:.\Generated_Source\PSoC4/CyLib.c ****     * Return:
 786:.\Generated_Source\PSoC4/CyLib.c ****     *  None
 787:.\Generated_Source\PSoC4/CyLib.c ****     *
 788:.\Generated_Source\PSoC4/CyLib.c ****     * Side Effects:
 789:.\Generated_Source\PSoC4/CyLib.c ****     *  If the SYSCLK clock frequency increases during the device operation, call
 790:.\Generated_Source\PSoC4/CyLib.c ****     *  CySysFlashSetWaitCycles() with the appropriate parameter to adjust the number
 791:.\Generated_Source\PSoC4/CyLib.c ****     *  of clock cycles the cache will wait before sampling data comes back from Flash.
 792:.\Generated_Source\PSoC4/CyLib.c ****     *  If the SYSCLK clock frequency decreases, you can call
 793:.\Generated_Source\PSoC4/CyLib.c ****     *  CySysFlashSetWaitCycles() to improve the CPU performance. See
 794:.\Generated_Source\PSoC4/CyLib.c ****     *  CySysFlashSetWaitCycles() description for more information.
 795:.\Generated_Source\PSoC4/CyLib.c ****     *
 796:.\Generated_Source\PSoC4/CyLib.c ****     *******************************************************************************/
 797:.\Generated_Source\PSoC4/CyLib.c ****     void CySysClkWriteEcoDiv(uint32 divider)
 798:.\Generated_Source\PSoC4/CyLib.c ****     {
 799:.\Generated_Source\PSoC4/CyLib.c ****         uint8  interruptState;
 800:.\Generated_Source\PSoC4/CyLib.c **** 
 801:.\Generated_Source\PSoC4/CyLib.c ****         interruptState = CyEnterCriticalSection();
 802:.\Generated_Source\PSoC4/CyLib.c **** 
 803:.\Generated_Source\PSoC4/CyLib.c ****         CY_SYS_CLK_XTAL_CLK_DIV_CONFIG_REG =  (divider & CY_SYS_CLK_XTAL_CLK_DIV_MASK) |
 804:.\Generated_Source\PSoC4/CyLib.c ****                                               (CY_SYS_CLK_XTAL_CLK_DIV_CONFIG_REG & ((uint32) ~CY_S
 805:.\Generated_Source\PSoC4/CyLib.c **** 
 806:.\Generated_Source\PSoC4/CyLib.c ****         CyExitCriticalSection(interruptState);
 807:.\Generated_Source\PSoC4/CyLib.c ****     }
 808:.\Generated_Source\PSoC4/CyLib.c **** #endif /* (CY_PSOC4_4100BL || CY_PSOC4_4200BL) */
 809:.\Generated_Source\PSoC4/CyLib.c **** 
 810:.\Generated_Source\PSoC4/CyLib.c **** 
 811:.\Generated_Source\PSoC4/CyLib.c **** #if (CY_IP_WCO)
ARM GAS  C:\Users\Pablo\AppData\Local\Temp\ccDGsedh.s 			page 19


 812:.\Generated_Source\PSoC4/CyLib.c ****     /*******************************************************************************
 813:.\Generated_Source\PSoC4/CyLib.c ****     * Function Name: CySysClkWcoStart
 814:.\Generated_Source\PSoC4/CyLib.c ****     ********************************************************************************
 815:.\Generated_Source\PSoC4/CyLib.c ****     *
 816:.\Generated_Source\PSoC4/CyLib.c ****     * Summary:
 817:.\Generated_Source\PSoC4/CyLib.c ****     *  Enables the Watch Crystal Oscillator (WCO). The WCO is used as a source for
 818:.\Generated_Source\PSoC4/CyLib.c ****     *  LFCLK.  Similar to ILO, WCO is also available in all modes except Hibernate
 819:.\Generated_Source\PSoC4/CyLib.c ****     *  and Stop modes.
 820:.\Generated_Source\PSoC4/CyLib.c ****     *
 821:.\Generated_Source\PSoC4/CyLib.c ****     *  The WCO is always enabled in High Power Mode (HPM). Refer to the device
 822:.\Generated_Source\PSoC4/CyLib.c ****     *  datasheet for the  WCO startup time. Once WCO becomes stable it can be
 823:.\Generated_Source\PSoC4/CyLib.c ****     *  switched to the Low Power Mode (LPM). Note that oscillator can be unstable
 824:.\Generated_Source\PSoC4/CyLib.c ****     *  during switch and hence its output should not be used at the moment.
 825:.\Generated_Source\PSoC4/CyLib.c ****     *
 826:.\Generated_Source\PSoC4/CyLib.c ****     *  The CySysClkWcoSetPowerMode() function configures WCO power mode.
 827:.\Generated_Source\PSoC4/CyLib.c ****     *
 828:.\Generated_Source\PSoC4/CyLib.c ****     * Parameters:
 829:.\Generated_Source\PSoC4/CyLib.c ****     *  None
 830:.\Generated_Source\PSoC4/CyLib.c ****     *
 831:.\Generated_Source\PSoC4/CyLib.c ****     * Return:
 832:.\Generated_Source\PSoC4/CyLib.c ****     *  None
 833:.\Generated_Source\PSoC4/CyLib.c ****     *
 834:.\Generated_Source\PSoC4/CyLib.c ****     *******************************************************************************/
 835:.\Generated_Source\PSoC4/CyLib.c ****     void CySysClkWcoStart(void)
 836:.\Generated_Source\PSoC4/CyLib.c ****     {
 837:.\Generated_Source\PSoC4/CyLib.c ****         CySysClkWcoSetHighPowerMode();
 838:.\Generated_Source\PSoC4/CyLib.c ****         CY_SYS_CLK_WCO_CONFIG_REG |= CY_SYS_CLK_WCO_CONFIG_LPM_ENABLE;
 839:.\Generated_Source\PSoC4/CyLib.c ****     }
 840:.\Generated_Source\PSoC4/CyLib.c **** 
 841:.\Generated_Source\PSoC4/CyLib.c **** 
 842:.\Generated_Source\PSoC4/CyLib.c ****     /*******************************************************************************
 843:.\Generated_Source\PSoC4/CyLib.c ****     * Function Name: CySysClkWcoStop
 844:.\Generated_Source\PSoC4/CyLib.c ****     ********************************************************************************
 845:.\Generated_Source\PSoC4/CyLib.c ****     *
 846:.\Generated_Source\PSoC4/CyLib.c ****     * Summary:
 847:.\Generated_Source\PSoC4/CyLib.c ****     *  Disables the 32KHz Crystal Oscillator.
 848:.\Generated_Source\PSoC4/CyLib.c ****     *
 849:.\Generated_Source\PSoC4/CyLib.c ****     * Parameters:
 850:.\Generated_Source\PSoC4/CyLib.c ****     *  None
 851:.\Generated_Source\PSoC4/CyLib.c ****     *
 852:.\Generated_Source\PSoC4/CyLib.c ****     * Return:
 853:.\Generated_Source\PSoC4/CyLib.c ****     *  None
 854:.\Generated_Source\PSoC4/CyLib.c ****     *
 855:.\Generated_Source\PSoC4/CyLib.c ****     *******************************************************************************/
 856:.\Generated_Source\PSoC4/CyLib.c ****     void  CySysClkWcoStop(void)
 857:.\Generated_Source\PSoC4/CyLib.c ****     {
 858:.\Generated_Source\PSoC4/CyLib.c ****         uint8  interruptState;
 859:.\Generated_Source\PSoC4/CyLib.c **** 
 860:.\Generated_Source\PSoC4/CyLib.c ****         if (0u != CySysClkWcoEnabled())
 861:.\Generated_Source\PSoC4/CyLib.c ****         {
 862:.\Generated_Source\PSoC4/CyLib.c **** 
 863:.\Generated_Source\PSoC4/CyLib.c ****             if (CY_SYS_CLK_LFCLK_SRC_WCO == CySysClkGetLfclkSource())
 864:.\Generated_Source\PSoC4/CyLib.c ****             {
 865:.\Generated_Source\PSoC4/CyLib.c ****                 interruptState = CyEnterCriticalSection();
 866:.\Generated_Source\PSoC4/CyLib.c ****                 CySysClkLfclkPosedgeCatch();
 867:.\Generated_Source\PSoC4/CyLib.c ****                 CY_SYS_CLK_WCO_CONFIG_REG &= (uint32) ~CY_SYS_CLK_WCO_CONFIG_LPM_ENABLE;
 868:.\Generated_Source\PSoC4/CyLib.c ****                 CySysClkLfclkPosedgeRestore();
ARM GAS  C:\Users\Pablo\AppData\Local\Temp\ccDGsedh.s 			page 20


 869:.\Generated_Source\PSoC4/CyLib.c ****                 CyExitCriticalSection(interruptState);
 870:.\Generated_Source\PSoC4/CyLib.c ****             }
 871:.\Generated_Source\PSoC4/CyLib.c ****             else /* Safe to disable - shortened pulse does not impact peripheral */
 872:.\Generated_Source\PSoC4/CyLib.c ****             {
 873:.\Generated_Source\PSoC4/CyLib.c ****                 CY_SYS_CLK_WCO_CONFIG_REG &= (uint32) ~CY_SYS_CLK_WCO_CONFIG_LPM_ENABLE;
 874:.\Generated_Source\PSoC4/CyLib.c ****             }
 875:.\Generated_Source\PSoC4/CyLib.c ****         } /* Otherwise do nothing. WCO configuration cannot be changed. */
 876:.\Generated_Source\PSoC4/CyLib.c ****     }
 877:.\Generated_Source\PSoC4/CyLib.c **** 
 878:.\Generated_Source\PSoC4/CyLib.c **** 
 879:.\Generated_Source\PSoC4/CyLib.c ****     /*******************************************************************************
 880:.\Generated_Source\PSoC4/CyLib.c ****     * Function Name: CySysClkWcoEnabled
 881:.\Generated_Source\PSoC4/CyLib.c ****     ********************************************************************************
 882:.\Generated_Source\PSoC4/CyLib.c ****     *
 883:.\Generated_Source\PSoC4/CyLib.c ****     * Summary:
 884:.\Generated_Source\PSoC4/CyLib.c ****     *  Reports WCO enable state.
 885:.\Generated_Source\PSoC4/CyLib.c ****     *
 886:.\Generated_Source\PSoC4/CyLib.c ****     * Parameters:
 887:.\Generated_Source\PSoC4/CyLib.c ****     *  None
 888:.\Generated_Source\PSoC4/CyLib.c ****     *
 889:.\Generated_Source\PSoC4/CyLib.c ****     * Return:
 890:.\Generated_Source\PSoC4/CyLib.c ****     *  1 if WCO is enabled, and 0 if WCO is disabled.
 891:.\Generated_Source\PSoC4/CyLib.c ****     *
 892:.\Generated_Source\PSoC4/CyLib.c ****     *******************************************************************************/
 893:.\Generated_Source\PSoC4/CyLib.c ****     static uint32 CySysClkWcoEnabled(void)
 894:.\Generated_Source\PSoC4/CyLib.c ****     {
 895:.\Generated_Source\PSoC4/CyLib.c ****         return ((0u != (CY_SYS_CLK_WCO_CONFIG_REG & (uint32)(CY_SYS_CLK_WCO_CONFIG_LPM_ENABLE))) ?
 896:.\Generated_Source\PSoC4/CyLib.c ****                 (uint32) 1u :
 897:.\Generated_Source\PSoC4/CyLib.c ****                 (uint32) 0u);
 898:.\Generated_Source\PSoC4/CyLib.c ****     }
 899:.\Generated_Source\PSoC4/CyLib.c **** 
 900:.\Generated_Source\PSoC4/CyLib.c **** 
 901:.\Generated_Source\PSoC4/CyLib.c ****     /*******************************************************************************
 902:.\Generated_Source\PSoC4/CyLib.c ****     * Function Name: CySysClkWcoSetPowerMode
 903:.\Generated_Source\PSoC4/CyLib.c ****     ********************************************************************************
 904:.\Generated_Source\PSoC4/CyLib.c ****     *
 905:.\Generated_Source\PSoC4/CyLib.c ****     * Summary:
 906:.\Generated_Source\PSoC4/CyLib.c ****     *  Sets the power mode for the 32 KHz WCO.
 907:.\Generated_Source\PSoC4/CyLib.c ****     *
 908:.\Generated_Source\PSoC4/CyLib.c ****     * Parameters:
 909:.\Generated_Source\PSoC4/CyLib.c ****     *  uint32 mode:
 910:.\Generated_Source\PSoC4/CyLib.c ****     *   CY_SYS_CLK_WCO_HPM  - High power mode
 911:.\Generated_Source\PSoC4/CyLib.c ****     *   CY_SYS_CLK_WCO_LPM  - Low power mode
 912:.\Generated_Source\PSoC4/CyLib.c ****     *
 913:.\Generated_Source\PSoC4/CyLib.c ****     * Return:
 914:.\Generated_Source\PSoC4/CyLib.c ****     *  Previous power mode. The same as parameters.
 915:.\Generated_Source\PSoC4/CyLib.c ****     *
 916:.\Generated_Source\PSoC4/CyLib.c ****     *******************************************************************************/
 917:.\Generated_Source\PSoC4/CyLib.c ****     uint32 CySysClkWcoSetPowerMode(uint32 mode)
 918:.\Generated_Source\PSoC4/CyLib.c ****     {
 919:.\Generated_Source\PSoC4/CyLib.c ****         uint32 status;
 920:.\Generated_Source\PSoC4/CyLib.c **** 
 921:.\Generated_Source\PSoC4/CyLib.c ****         status = CY_SYS_CLK_WCO_CONFIG_REG & CY_SYS_CLK_WCO_LPM;
 922:.\Generated_Source\PSoC4/CyLib.c **** 
 923:.\Generated_Source\PSoC4/CyLib.c ****         switch(mode)
 924:.\Generated_Source\PSoC4/CyLib.c ****         {
 925:.\Generated_Source\PSoC4/CyLib.c ****         case CY_SYS_CLK_WCO_HPM:
ARM GAS  C:\Users\Pablo\AppData\Local\Temp\ccDGsedh.s 			page 21


 926:.\Generated_Source\PSoC4/CyLib.c ****                 CySysClkWcoSetHighPowerMode();
 927:.\Generated_Source\PSoC4/CyLib.c ****             break;
 928:.\Generated_Source\PSoC4/CyLib.c **** 
 929:.\Generated_Source\PSoC4/CyLib.c ****         case CY_SYS_CLK_WCO_LPM:
 930:.\Generated_Source\PSoC4/CyLib.c ****                 CySysClkWcoSetLowPowerMode();
 931:.\Generated_Source\PSoC4/CyLib.c ****             break;
 932:.\Generated_Source\PSoC4/CyLib.c **** 
 933:.\Generated_Source\PSoC4/CyLib.c ****         default:
 934:.\Generated_Source\PSoC4/CyLib.c ****             CYASSERT(0u != 0u);
 935:.\Generated_Source\PSoC4/CyLib.c ****             break;
 936:.\Generated_Source\PSoC4/CyLib.c ****         }
 937:.\Generated_Source\PSoC4/CyLib.c **** 
 938:.\Generated_Source\PSoC4/CyLib.c ****         return (status);
 939:.\Generated_Source\PSoC4/CyLib.c ****     }
 940:.\Generated_Source\PSoC4/CyLib.c **** 
 941:.\Generated_Source\PSoC4/CyLib.c **** #endif  /* (CY_IP_WCO) */
 942:.\Generated_Source\PSoC4/CyLib.c **** 
 943:.\Generated_Source\PSoC4/CyLib.c **** 
 944:.\Generated_Source\PSoC4/CyLib.c **** #if(CY_IP_SRSSV2)
 945:.\Generated_Source\PSoC4/CyLib.c **** 
 946:.\Generated_Source\PSoC4/CyLib.c **** 
 947:.\Generated_Source\PSoC4/CyLib.c ****     /*******************************************************************************
 948:.\Generated_Source\PSoC4/CyLib.c ****     * Function Name: CySysWdtLock
 949:.\Generated_Source\PSoC4/CyLib.c ****     ********************************************************************************
 950:.\Generated_Source\PSoC4/CyLib.c ****     *
 951:.\Generated_Source\PSoC4/CyLib.c ****     * Summary:
 952:.\Generated_Source\PSoC4/CyLib.c ****     *  Locks out configuration changes to the Watchdog timer registers and ILO
 953:.\Generated_Source\PSoC4/CyLib.c ****     *  configuration register.
 954:.\Generated_Source\PSoC4/CyLib.c ****     *
 955:.\Generated_Source\PSoC4/CyLib.c ****     * Parameters:
 956:.\Generated_Source\PSoC4/CyLib.c ****     *  None
 957:.\Generated_Source\PSoC4/CyLib.c ****     *
 958:.\Generated_Source\PSoC4/CyLib.c ****     * Return:
 959:.\Generated_Source\PSoC4/CyLib.c ****     *  None
 960:.\Generated_Source\PSoC4/CyLib.c ****     *
 961:.\Generated_Source\PSoC4/CyLib.c ****     * Side effects:
 962:.\Generated_Source\PSoC4/CyLib.c ****     *  After this function was called, ILO clock can't be disabled until
 963:.\Generated_Source\PSoC4/CyLib.c ****     *  CySysWdtUnlock() is called.
 964:.\Generated_Source\PSoC4/CyLib.c ****     *
 965:.\Generated_Source\PSoC4/CyLib.c ****     *******************************************************************************/
 966:.\Generated_Source\PSoC4/CyLib.c ****     void CySysWdtLock(void)
 967:.\Generated_Source\PSoC4/CyLib.c ****     {
 209              		.loc 1 967 0
 210              		.cfi_startproc
 211 0000 08B5     		push	{r3, lr}
 212              		.cfi_def_cfa_offset 8
 213              		.cfi_offset 3, -8
 214              		.cfi_offset 14, -4
 968:.\Generated_Source\PSoC4/CyLib.c ****         uint8 interruptState;
 969:.\Generated_Source\PSoC4/CyLib.c ****         interruptState = CyEnterCriticalSection();
 215              		.loc 1 969 0
 216 0002 FFF7FEFF 		bl	CyEnterCriticalSection
 217              	.LVL8:
 970:.\Generated_Source\PSoC4/CyLib.c **** 
 971:.\Generated_Source\PSoC4/CyLib.c ****         CY_SYS_CLK_SELECT_REG = (CY_SYS_CLK_SELECT_REG & (uint32)(~CY_SYS_WDT_CLK_LOCK_BITS_MASK)) 
 218              		.loc 1 971 0
 219 0006 044B     		ldr	r3, .L17
ARM GAS  C:\Users\Pablo\AppData\Local\Temp\ccDGsedh.s 			page 22


 220 0008 C022     		mov	r2, #192
 221 000a 1968     		ldr	r1, [r3]
 222 000c 1202     		lsl	r2, r2, #8
 223 000e 0A43     		orr	r2, r1
 224 0010 1A60     		str	r2, [r3]
 972:.\Generated_Source\PSoC4/CyLib.c ****                  CY_SYS_WDT_CLK_LOCK_BITS_MASK;
 973:.\Generated_Source\PSoC4/CyLib.c **** 
 974:.\Generated_Source\PSoC4/CyLib.c ****         CyExitCriticalSection(interruptState);
 225              		.loc 1 974 0
 226 0012 FFF7FEFF 		bl	CyExitCriticalSection
 227              	.LVL9:
 975:.\Generated_Source\PSoC4/CyLib.c ****     }
 228              		.loc 1 975 0
 229              		@ sp needed
 230 0016 08BD     		pop	{r3, pc}
 231              	.L18:
 232              		.align	2
 233              	.L17:
 234 0018 00010B40 		.word	1074462976
 235              		.cfi_endproc
 236              	.LFE8:
 237              		.size	CySysWdtLock, .-CySysWdtLock
 238              		.section	.text.CySysWdtUnlock,"ax",%progbits
 239              		.align	1
 240              		.global	CySysWdtUnlock
 241              		.code	16
 242              		.thumb_func
 243              		.type	CySysWdtUnlock, %function
 244              	CySysWdtUnlock:
 245              	.LFB10:
 976:.\Generated_Source\PSoC4/CyLib.c **** 
 977:.\Generated_Source\PSoC4/CyLib.c **** 
 978:.\Generated_Source\PSoC4/CyLib.c ****     /*******************************************************************************
 979:.\Generated_Source\PSoC4/CyLib.c ****     * Function Name: CySysWdtLocked
 980:.\Generated_Source\PSoC4/CyLib.c ****     ********************************************************************************
 981:.\Generated_Source\PSoC4/CyLib.c ****     *
 982:.\Generated_Source\PSoC4/CyLib.c ****     * Summary:
 983:.\Generated_Source\PSoC4/CyLib.c ****     *  Reports WDT lock state.
 984:.\Generated_Source\PSoC4/CyLib.c ****     *
 985:.\Generated_Source\PSoC4/CyLib.c ****     * Parameters:
 986:.\Generated_Source\PSoC4/CyLib.c ****     *  None
 987:.\Generated_Source\PSoC4/CyLib.c ****     *
 988:.\Generated_Source\PSoC4/CyLib.c ****     * Return:
 989:.\Generated_Source\PSoC4/CyLib.c ****     *  1 - WDT is locked, and 0 - WDT is unlocked.
 990:.\Generated_Source\PSoC4/CyLib.c ****     *
 991:.\Generated_Source\PSoC4/CyLib.c ****     *******************************************************************************/
 992:.\Generated_Source\PSoC4/CyLib.c ****     static uint32 CySysWdtLocked(void)
 993:.\Generated_Source\PSoC4/CyLib.c ****     {
 994:.\Generated_Source\PSoC4/CyLib.c ****         /* Prohibits writing to WDT registers and ILO/WCO registers when not equal 0 */
 995:.\Generated_Source\PSoC4/CyLib.c ****         return ((0u != (CY_SYS_CLK_SELECT_REG & (uint32)(CY_SYS_WDT_CLK_LOCK_BITS_MASK))) ? (uint32
 996:.\Generated_Source\PSoC4/CyLib.c ****     }
 997:.\Generated_Source\PSoC4/CyLib.c **** 
 998:.\Generated_Source\PSoC4/CyLib.c **** 
 999:.\Generated_Source\PSoC4/CyLib.c ****     /*******************************************************************************
1000:.\Generated_Source\PSoC4/CyLib.c ****     * Function Name: CySysWdtUnlock
1001:.\Generated_Source\PSoC4/CyLib.c ****     ********************************************************************************
1002:.\Generated_Source\PSoC4/CyLib.c ****     *
ARM GAS  C:\Users\Pablo\AppData\Local\Temp\ccDGsedh.s 			page 23


1003:.\Generated_Source\PSoC4/CyLib.c ****     * Summary:
1004:.\Generated_Source\PSoC4/CyLib.c ****     *  Unlocks the Watchdog Timer configuration register.
1005:.\Generated_Source\PSoC4/CyLib.c ****     *
1006:.\Generated_Source\PSoC4/CyLib.c ****     * Parameters:
1007:.\Generated_Source\PSoC4/CyLib.c ****     *  None
1008:.\Generated_Source\PSoC4/CyLib.c ****     *
1009:.\Generated_Source\PSoC4/CyLib.c ****     * Return:
1010:.\Generated_Source\PSoC4/CyLib.c ****     *  None
1011:.\Generated_Source\PSoC4/CyLib.c ****     *
1012:.\Generated_Source\PSoC4/CyLib.c ****     *******************************************************************************/
1013:.\Generated_Source\PSoC4/CyLib.c ****     void CySysWdtUnlock(void)
1014:.\Generated_Source\PSoC4/CyLib.c ****     {
 246              		.loc 1 1014 0
 247              		.cfi_startproc
 248 0000 10B5     		push	{r4, lr}
 249              		.cfi_def_cfa_offset 8
 250              		.cfi_offset 4, -8
 251              		.cfi_offset 14, -4
1015:.\Generated_Source\PSoC4/CyLib.c ****         uint8 interruptState;
1016:.\Generated_Source\PSoC4/CyLib.c ****         interruptState = CyEnterCriticalSection();
 252              		.loc 1 1016 0
 253 0002 FFF7FEFF 		bl	CyEnterCriticalSection
 254              	.LVL10:
1017:.\Generated_Source\PSoC4/CyLib.c **** 
1018:.\Generated_Source\PSoC4/CyLib.c ****         /* Removing WDT lock requires two writes */
1019:.\Generated_Source\PSoC4/CyLib.c ****         CY_SYS_CLK_SELECT_REG = ((CY_SYS_CLK_SELECT_REG & (uint32)(~CY_SYS_WDT_CLK_LOCK_BITS_MASK))
 255              		.loc 1 1019 0
 256 0006 084B     		ldr	r3, .L20
 257 0008 084A     		ldr	r2, .L20+4
 258 000a 1968     		ldr	r1, [r3]
 259 000c 8024     		mov	r4, #128
 260 000e 1140     		and	r1, r2
 261 0010 E401     		lsl	r4, r4, #7
 262 0012 2143     		orr	r1, r4
 263 0014 1960     		str	r1, [r3]
1020:.\Generated_Source\PSoC4/CyLib.c ****                 CY_SYS_WDT_CLK_LOCK_BIT0);
1021:.\Generated_Source\PSoC4/CyLib.c **** 
1022:.\Generated_Source\PSoC4/CyLib.c ****         CY_SYS_CLK_SELECT_REG = ((CY_SYS_CLK_SELECT_REG & (uint32)(~CY_SYS_WDT_CLK_LOCK_BITS_MASK))
 264              		.loc 1 1022 0
 265 0016 1968     		ldr	r1, [r3]
1023:.\Generated_Source\PSoC4/CyLib.c ****                 CY_SYS_WDT_CLK_LOCK_BIT1);
1024:.\Generated_Source\PSoC4/CyLib.c **** 
1025:.\Generated_Source\PSoC4/CyLib.c ****         CyExitCriticalSection(interruptState);
1026:.\Generated_Source\PSoC4/CyLib.c ****     }
 266              		.loc 1 1026 0
 267              		@ sp needed
1022:.\Generated_Source\PSoC4/CyLib.c ****         CY_SYS_CLK_SELECT_REG = ((CY_SYS_CLK_SELECT_REG & (uint32)(~CY_SYS_WDT_CLK_LOCK_BITS_MASK))
 268              		.loc 1 1022 0
 269 0018 0A40     		and	r2, r1
 270 001a 8021     		mov	r1, #128
 271 001c 0902     		lsl	r1, r1, #8
 272 001e 0A43     		orr	r2, r1
 273 0020 1A60     		str	r2, [r3]
1025:.\Generated_Source\PSoC4/CyLib.c ****         CyExitCriticalSection(interruptState);
 274              		.loc 1 1025 0
 275 0022 FFF7FEFF 		bl	CyExitCriticalSection
 276              	.LVL11:
ARM GAS  C:\Users\Pablo\AppData\Local\Temp\ccDGsedh.s 			page 24


 277              		.loc 1 1026 0
 278 0026 10BD     		pop	{r4, pc}
 279              	.L21:
 280              		.align	2
 281              	.L20:
 282 0028 00010B40 		.word	1074462976
 283 002c FF3FFFFF 		.word	-49153
 284              		.cfi_endproc
 285              	.LFE10:
 286              		.size	CySysWdtUnlock, .-CySysWdtUnlock
 287              		.section	.text.CySysWdtReadEnabledStatus,"ax",%progbits
 288              		.align	1
 289              		.global	CySysWdtReadEnabledStatus
 290              		.code	16
 291              		.thumb_func
 292              		.type	CySysWdtReadEnabledStatus, %function
 293              	CySysWdtReadEnabledStatus:
 294              	.LFB11:
1027:.\Generated_Source\PSoC4/CyLib.c **** 
1028:.\Generated_Source\PSoC4/CyLib.c **** 
1029:.\Generated_Source\PSoC4/CyLib.c ****     /*******************************************************************************
1030:.\Generated_Source\PSoC4/CyLib.c ****     * Function Name: CySysWdtReadEnabledStatus
1031:.\Generated_Source\PSoC4/CyLib.c ****     ********************************************************************************
1032:.\Generated_Source\PSoC4/CyLib.c ****     *
1033:.\Generated_Source\PSoC4/CyLib.c ****     * Summary:
1034:.\Generated_Source\PSoC4/CyLib.c ****     *  Reads the enabled status of one of the three WDT counters.
1035:.\Generated_Source\PSoC4/CyLib.c ****     *
1036:.\Generated_Source\PSoC4/CyLib.c ****     * Parameters:
1037:.\Generated_Source\PSoC4/CyLib.c ****     *  counterNum: Valid range [0-2].  Number of the WDT counter.
1038:.\Generated_Source\PSoC4/CyLib.c ****     *
1039:.\Generated_Source\PSoC4/CyLib.c ****     * Return:
1040:.\Generated_Source\PSoC4/CyLib.c ****     *  Status of WDT counter:
1041:.\Generated_Source\PSoC4/CyLib.c ****     *   0 - counter is disabled
1042:.\Generated_Source\PSoC4/CyLib.c ****     *   1 - counter is enabled
1043:.\Generated_Source\PSoC4/CyLib.c ****     *
1044:.\Generated_Source\PSoC4/CyLib.c ****     * Side Effects:
1045:.\Generated_Source\PSoC4/CyLib.c ****     *  This function returns actual WDT counter status from status register. It may
1046:.\Generated_Source\PSoC4/CyLib.c ****     *  take up to 3 LFCLK cycles since WDT counter was enabled for WDT status
1047:.\Generated_Source\PSoC4/CyLib.c ****     *  register to contain actual data.
1048:.\Generated_Source\PSoC4/CyLib.c ****     *
1049:.\Generated_Source\PSoC4/CyLib.c ****     *******************************************************************************/
1050:.\Generated_Source\PSoC4/CyLib.c ****     uint32 CySysWdtReadEnabledStatus(uint32 counterNum)
1051:.\Generated_Source\PSoC4/CyLib.c ****     {
 295              		.loc 1 1051 0
 296              		.cfi_startproc
 297              	.LVL12:
1052:.\Generated_Source\PSoC4/CyLib.c ****         CYASSERT(counterNum < CY_SYS_WDT_COUNTERS_MAX);
1053:.\Generated_Source\PSoC4/CyLib.c ****         return ((CY_SYS_WDT_CONTROL_REG >> ((CY_SYS_WDT_CNT_SHIFT * counterNum) + CY_SYS_WDT_CNT_ST
 298              		.loc 1 1053 0
 299 0000 044B     		ldr	r3, .L23
 300 0002 C000     		lsl	r0, r0, #3
 301              	.LVL13:
 302 0004 1B68     		ldr	r3, [r3]
 303 0006 0130     		add	r0, r0, #1
 304 0008 C340     		lsr	r3, r3, r0
 305 000a 181C     		mov	r0, r3
 306 000c 0123     		mov	r3, #1
ARM GAS  C:\Users\Pablo\AppData\Local\Temp\ccDGsedh.s 			page 25


 307 000e 1840     		and	r0, r3
1054:.\Generated_Source\PSoC4/CyLib.c ****     }
 308              		.loc 1 1054 0
 309              		@ sp needed
 310 0010 7047     		bx	lr
 311              	.L24:
 312 0012 C046     		.align	2
 313              	.L23:
 314 0014 10020B40 		.word	1074463248
 315              		.cfi_endproc
 316              	.LFE11:
 317              		.size	CySysWdtReadEnabledStatus, .-CySysWdtReadEnabledStatus
 318              		.section	.text.CySysWdtWriteMode,"ax",%progbits
 319              		.align	1
 320              		.global	CySysWdtWriteMode
 321              		.code	16
 322              		.thumb_func
 323              		.type	CySysWdtWriteMode, %function
 324              	CySysWdtWriteMode:
 325              	.LFB12:
1055:.\Generated_Source\PSoC4/CyLib.c **** 
1056:.\Generated_Source\PSoC4/CyLib.c **** 
1057:.\Generated_Source\PSoC4/CyLib.c ****     /*******************************************************************************
1058:.\Generated_Source\PSoC4/CyLib.c ****     * Function Name: CySysWdtWriteMode
1059:.\Generated_Source\PSoC4/CyLib.c ****     ********************************************************************************
1060:.\Generated_Source\PSoC4/CyLib.c ****     *
1061:.\Generated_Source\PSoC4/CyLib.c ****     * Summary:
1062:.\Generated_Source\PSoC4/CyLib.c ****     *   Writes the mode of one of the three WDT counters.
1063:.\Generated_Source\PSoC4/CyLib.c ****     *
1064:.\Generated_Source\PSoC4/CyLib.c ****     * Parameters:
1065:.\Generated_Source\PSoC4/CyLib.c ****     *   counterNum: Valid range [0-2].  Number of the WDT counter.
1066:.\Generated_Source\PSoC4/CyLib.c ****     *   mode:       Mode of operation for the counter
1067:.\Generated_Source\PSoC4/CyLib.c ****     *       Define                   Mode
1068:.\Generated_Source\PSoC4/CyLib.c ****     *    CY_SYS_WDT_MODE_NONE       Free running
1069:.\Generated_Source\PSoC4/CyLib.c ****     *    CY_SYS_WDT_MODE_INT        Interrupt generated on match for counter 0
1070:.\Generated_Source\PSoC4/CyLib.c ****     *                               and 1, and on bit toggle for counter 2.
1071:.\Generated_Source\PSoC4/CyLib.c ****     *    CY_SYS_WDT_MODE_RESET      Reset on match (valid for counter 0 and 1
1072:.\Generated_Source\PSoC4/CyLib.c ****     *                               only)
1073:.\Generated_Source\PSoC4/CyLib.c ****     *    CY_SYS_WDT_MODE_INT_RESET  Generate an interrupt.  Generate a reset on
1074:.\Generated_Source\PSoC4/CyLib.c ****     *                                    the 3rd unhandled interrupt.
1075:.\Generated_Source\PSoC4/CyLib.c ****     *                                    (valid for counter 0 and 1 only)
1076:.\Generated_Source\PSoC4/CyLib.c ****     * Return:
1077:.\Generated_Source\PSoC4/CyLib.c ****     *   None
1078:.\Generated_Source\PSoC4/CyLib.c ****     *
1079:.\Generated_Source\PSoC4/CyLib.c ****     * Side Effects:
1080:.\Generated_Source\PSoC4/CyLib.c ****     *   WDT counter counterNum should be disabled to set mode. Otherwise this
1081:.\Generated_Source\PSoC4/CyLib.c ****     *   function call will have no effect. If the specified counter is enabled,
1082:.\Generated_Source\PSoC4/CyLib.c ****     *   call CySysWdtDisable() function with the corresponding parameter to
1083:.\Generated_Source\PSoC4/CyLib.c ****     *   disable specified counter and wait for it to stop.
1084:.\Generated_Source\PSoC4/CyLib.c ****     *
1085:.\Generated_Source\PSoC4/CyLib.c ****     *******************************************************************************/
1086:.\Generated_Source\PSoC4/CyLib.c ****     void CySysWdtWriteMode(uint32 counterNum, uint32 mode)
1087:.\Generated_Source\PSoC4/CyLib.c ****     {
 326              		.loc 1 1087 0
 327              		.cfi_startproc
 328              	.LVL14:
 329 0000 38B5     		push	{r3, r4, r5, lr}
ARM GAS  C:\Users\Pablo\AppData\Local\Temp\ccDGsedh.s 			page 26


 330              		.cfi_def_cfa_offset 16
 331              		.cfi_offset 3, -16
 332              		.cfi_offset 4, -12
 333              		.cfi_offset 5, -8
 334              		.cfi_offset 14, -4
 335              		.loc 1 1087 0
 336 0002 041C     		mov	r4, r0
 337 0004 0D1C     		mov	r5, r1
1088:.\Generated_Source\PSoC4/CyLib.c ****         uint32 configRegValue;
1089:.\Generated_Source\PSoC4/CyLib.c **** 
1090:.\Generated_Source\PSoC4/CyLib.c ****         CYASSERT(counterNum < CY_SYS_WDT_COUNTERS_MAX);
1091:.\Generated_Source\PSoC4/CyLib.c **** 
1092:.\Generated_Source\PSoC4/CyLib.c ****         if(0u == CySysWdtReadEnabledStatus(counterNum))
 338              		.loc 1 1092 0
 339 0006 FFF7FEFF 		bl	CySysWdtReadEnabledStatus
 340              	.LVL15:
 341 000a 0028     		cmp	r0, #0
 342 000c 0BD1     		bne	.L25
 343              	.LVL16:
 344              	.LBB8:
 345              	.LBB9:
1093:.\Generated_Source\PSoC4/CyLib.c ****         {
1094:.\Generated_Source\PSoC4/CyLib.c ****             configRegValue = CY_SYS_WDT_CONFIG_REG &
 346              		.loc 1 1094 0
 347 000e 064B     		ldr	r3, .L28
1095:.\Generated_Source\PSoC4/CyLib.c ****                                 (uint32)~((uint32)(CY_SYS_WDT_MODE_MASK << (counterNum * CY_SYS_WDT
 348              		.loc 1 1095 0
 349 0010 0322     		mov	r2, #3
 350 0012 E400     		lsl	r4, r4, #3
 351              	.LVL17:
1094:.\Generated_Source\PSoC4/CyLib.c ****             configRegValue = CY_SYS_WDT_CONFIG_REG &
 352              		.loc 1 1094 0
 353 0014 1968     		ldr	r1, [r3]
 354              		.loc 1 1095 0
 355 0016 101C     		mov	r0, r2
 356 0018 A040     		lsl	r0, r0, r4
1094:.\Generated_Source\PSoC4/CyLib.c ****             configRegValue = CY_SYS_WDT_CONFIG_REG &
 357              		.loc 1 1094 0
 358 001a 8143     		bic	r1, r0
 359              	.LVL18:
1096:.\Generated_Source\PSoC4/CyLib.c ****             configRegValue |= (uint32)((mode & CY_SYS_WDT_MODE_MASK) << (counterNum * CY_SYS_WDT_CN
 360              		.loc 1 1096 0
 361 001c 1540     		and	r5, r2
 362              	.LVL19:
 363 001e A540     		lsl	r5, r5, r4
 364 0020 0C1C     		mov	r4, r1
 365 0022 2C43     		orr	r4, r5
 366              	.LVL20:
1097:.\Generated_Source\PSoC4/CyLib.c ****             CY_SYS_WDT_CONFIG_REG = configRegValue;
 367              		.loc 1 1097 0
 368 0024 1C60     		str	r4, [r3]
 369              	.LVL21:
 370              	.L25:
 371              	.LBE9:
 372              	.LBE8:
1098:.\Generated_Source\PSoC4/CyLib.c ****         }
1099:.\Generated_Source\PSoC4/CyLib.c ****     }
ARM GAS  C:\Users\Pablo\AppData\Local\Temp\ccDGsedh.s 			page 27


 373              		.loc 1 1099 0
 374              		@ sp needed
 375 0026 38BD     		pop	{r3, r4, r5, pc}
 376              	.L29:
 377              		.align	2
 378              	.L28:
 379 0028 0C020B40 		.word	1074463244
 380              		.cfi_endproc
 381              	.LFE12:
 382              		.size	CySysWdtWriteMode, .-CySysWdtWriteMode
 383              		.section	.text.CySysWdtReadMode,"ax",%progbits
 384              		.align	1
 385              		.global	CySysWdtReadMode
 386              		.code	16
 387              		.thumb_func
 388              		.type	CySysWdtReadMode, %function
 389              	CySysWdtReadMode:
 390              	.LFB13:
1100:.\Generated_Source\PSoC4/CyLib.c **** 
1101:.\Generated_Source\PSoC4/CyLib.c **** 
1102:.\Generated_Source\PSoC4/CyLib.c ****     /*******************************************************************************
1103:.\Generated_Source\PSoC4/CyLib.c ****     * Function Name: CySysWdtReadMode
1104:.\Generated_Source\PSoC4/CyLib.c ****     ********************************************************************************
1105:.\Generated_Source\PSoC4/CyLib.c ****     *
1106:.\Generated_Source\PSoC4/CyLib.c ****     * Summary:
1107:.\Generated_Source\PSoC4/CyLib.c ****     *  Reads the mode of one of the three WDT counters.
1108:.\Generated_Source\PSoC4/CyLib.c ****     *
1109:.\Generated_Source\PSoC4/CyLib.c ****     * Parameters:
1110:.\Generated_Source\PSoC4/CyLib.c ****     *  counterNum: Valid range [0-2].  Number of the WDT counter.
1111:.\Generated_Source\PSoC4/CyLib.c ****     *
1112:.\Generated_Source\PSoC4/CyLib.c ****     * Return:
1113:.\Generated_Source\PSoC4/CyLib.c ****     *  Mode of the counter.  Same enumerated values as mode parameter used in
1114:.\Generated_Source\PSoC4/CyLib.c ****     *  CySysWdtWriteMode().
1115:.\Generated_Source\PSoC4/CyLib.c ****     *
1116:.\Generated_Source\PSoC4/CyLib.c ****     *******************************************************************************/
1117:.\Generated_Source\PSoC4/CyLib.c ****     uint32 CySysWdtReadMode(uint32 counterNum)
1118:.\Generated_Source\PSoC4/CyLib.c ****     {
 391              		.loc 1 1118 0
 392              		.cfi_startproc
 393              	.LVL22:
1119:.\Generated_Source\PSoC4/CyLib.c ****         return ((CY_SYS_WDT_CONFIG_REG >> (counterNum * CY_SYS_WDT_CNT_SHIFT)) & CY_SYS_WDT_MODE_MA
 394              		.loc 1 1119 0
 395 0000 034B     		ldr	r3, .L31
 396 0002 C000     		lsl	r0, r0, #3
 397              	.LVL23:
 398 0004 1B68     		ldr	r3, [r3]
1120:.\Generated_Source\PSoC4/CyLib.c ****     }
 399              		.loc 1 1120 0
 400              		@ sp needed
1119:.\Generated_Source\PSoC4/CyLib.c ****         return ((CY_SYS_WDT_CONFIG_REG >> (counterNum * CY_SYS_WDT_CNT_SHIFT)) & CY_SYS_WDT_MODE_MA
 401              		.loc 1 1119 0
 402 0006 C340     		lsr	r3, r3, r0
 403 0008 181C     		mov	r0, r3
 404 000a 0323     		mov	r3, #3
 405 000c 1840     		and	r0, r3
 406              		.loc 1 1120 0
 407 000e 7047     		bx	lr
ARM GAS  C:\Users\Pablo\AppData\Local\Temp\ccDGsedh.s 			page 28


 408              	.L32:
 409              		.align	2
 410              	.L31:
 411 0010 0C020B40 		.word	1074463244
 412              		.cfi_endproc
 413              	.LFE13:
 414              		.size	CySysWdtReadMode, .-CySysWdtReadMode
 415              		.section	.text.CySysWdtWriteClearOnMatch,"ax",%progbits
 416              		.align	1
 417              		.global	CySysWdtWriteClearOnMatch
 418              		.code	16
 419              		.thumb_func
 420              		.type	CySysWdtWriteClearOnMatch, %function
 421              	CySysWdtWriteClearOnMatch:
 422              	.LFB14:
1121:.\Generated_Source\PSoC4/CyLib.c **** 
1122:.\Generated_Source\PSoC4/CyLib.c **** 
1123:.\Generated_Source\PSoC4/CyLib.c ****     /*******************************************************************************
1124:.\Generated_Source\PSoC4/CyLib.c ****     * Function Name: CySysWdtWriteClearOnMatch
1125:.\Generated_Source\PSoC4/CyLib.c ****     ********************************************************************************
1126:.\Generated_Source\PSoC4/CyLib.c ****     *
1127:.\Generated_Source\PSoC4/CyLib.c ****     * Summary:
1128:.\Generated_Source\PSoC4/CyLib.c ****     *  Configures the WDT counter clear on a match setting.  If configured to clear
1129:.\Generated_Source\PSoC4/CyLib.c ****     *  on match, the counter will count from 0 to the MatchValue giving it a
1130:.\Generated_Source\PSoC4/CyLib.c ****     *  period of (MatchValue + 1).
1131:.\Generated_Source\PSoC4/CyLib.c ****     *
1132:.\Generated_Source\PSoC4/CyLib.c ****     * Parameters:
1133:.\Generated_Source\PSoC4/CyLib.c ****     *  counterNum:
1134:.\Generated_Source\PSoC4/CyLib.c ****     *   Valid range [0-1].  Number of the WDT counter.  Match values are not
1135:.\Generated_Source\PSoC4/CyLib.c ****     *   supported by counter 2.
1136:.\Generated_Source\PSoC4/CyLib.c ****     *
1137:.\Generated_Source\PSoC4/CyLib.c ****     * enable:
1138:.\Generated_Source\PSoC4/CyLib.c ****     *   0 to disable, 1 to enable
1139:.\Generated_Source\PSoC4/CyLib.c ****     *
1140:.\Generated_Source\PSoC4/CyLib.c ****     * Return:
1141:.\Generated_Source\PSoC4/CyLib.c ****     *   None
1142:.\Generated_Source\PSoC4/CyLib.c ****     *
1143:.\Generated_Source\PSoC4/CyLib.c ****     * Side Effects:
1144:.\Generated_Source\PSoC4/CyLib.c ****     *   WDT counter counterNum should be disabled. Otherwise this function call will
1145:.\Generated_Source\PSoC4/CyLib.c ****     *   have no effect. If the specified counter is enabled, call CySysWdtDisable()
1146:.\Generated_Source\PSoC4/CyLib.c ****     *   function with the corresponding parameter to disable specified counter and
1147:.\Generated_Source\PSoC4/CyLib.c ****     *   wait for it to stop. This may take up to three LFCLK cycles.
1148:.\Generated_Source\PSoC4/CyLib.c ****     *
1149:.\Generated_Source\PSoC4/CyLib.c ****     *******************************************************************************/
1150:.\Generated_Source\PSoC4/CyLib.c ****     void CySysWdtWriteClearOnMatch(uint32 counterNum, uint32 enable)
1151:.\Generated_Source\PSoC4/CyLib.c ****     {
 423              		.loc 1 1151 0
 424              		.cfi_startproc
 425              	.LVL24:
 426 0000 38B5     		push	{r3, r4, r5, lr}
 427              		.cfi_def_cfa_offset 16
 428              		.cfi_offset 3, -16
 429              		.cfi_offset 4, -12
 430              		.cfi_offset 5, -8
 431              		.cfi_offset 14, -4
 432              		.loc 1 1151 0
 433 0002 041C     		mov	r4, r0
ARM GAS  C:\Users\Pablo\AppData\Local\Temp\ccDGsedh.s 			page 29


 434 0004 0D1C     		mov	r5, r1
1152:.\Generated_Source\PSoC4/CyLib.c ****         uint32 configRegValue;
1153:.\Generated_Source\PSoC4/CyLib.c **** 
1154:.\Generated_Source\PSoC4/CyLib.c ****         CYASSERT((counterNum == CY_SYS_WDT_COUNTER0) ||
1155:.\Generated_Source\PSoC4/CyLib.c ****                  (counterNum == CY_SYS_WDT_COUNTER1));
1156:.\Generated_Source\PSoC4/CyLib.c **** 
1157:.\Generated_Source\PSoC4/CyLib.c ****         if(0u == CySysWdtReadEnabledStatus(counterNum))
 435              		.loc 1 1157 0
 436 0006 FFF7FEFF 		bl	CySysWdtReadEnabledStatus
 437              	.LVL25:
 438 000a 0028     		cmp	r0, #0
 439 000c 0AD1     		bne	.L33
1158:.\Generated_Source\PSoC4/CyLib.c ****         {
1159:.\Generated_Source\PSoC4/CyLib.c ****             configRegValue = CY_SYS_WDT_CONFIG_REG &
 440              		.loc 1 1159 0
 441 000e 064B     		ldr	r3, .L35
1160:.\Generated_Source\PSoC4/CyLib.c ****                 (uint32)~((uint32)((uint32)1u << ((counterNum * CY_SYS_WDT_CNT_SHIFT) + CY_SYS_WDT_
 442              		.loc 1 1160 0
 443 0010 E400     		lsl	r4, r4, #3
 444              	.LVL26:
 445 0012 0234     		add	r4, r4, #2
1159:.\Generated_Source\PSoC4/CyLib.c ****             configRegValue = CY_SYS_WDT_CONFIG_REG &
 446              		.loc 1 1159 0
 447 0014 1A68     		ldr	r2, [r3]
 448              		.loc 1 1160 0
 449 0016 0121     		mov	r1, #1
 450 0018 A140     		lsl	r1, r1, r4
1159:.\Generated_Source\PSoC4/CyLib.c ****             configRegValue = CY_SYS_WDT_CONFIG_REG &
 451              		.loc 1 1159 0
 452 001a 8A43     		bic	r2, r1
 453              	.LVL27:
1161:.\Generated_Source\PSoC4/CyLib.c **** 
1162:.\Generated_Source\PSoC4/CyLib.c ****             configRegValue
1163:.\Generated_Source\PSoC4/CyLib.c ****                 |= (uint32)(enable << ((counterNum * CY_SYS_WDT_CNT_SHIFT) + CY_SYS_WDT_CNT_MATCH_C
 454              		.loc 1 1163 0
 455 001c A540     		lsl	r5, r5, r4
 456              	.LVL28:
 457 001e 141C     		mov	r4, r2
 458 0020 2C43     		orr	r4, r5
 459              	.LVL29:
1164:.\Generated_Source\PSoC4/CyLib.c **** 
1165:.\Generated_Source\PSoC4/CyLib.c ****             CY_SYS_WDT_CONFIG_REG = configRegValue;
 460              		.loc 1 1165 0
 461 0022 1C60     		str	r4, [r3]
 462              	.LVL30:
 463              	.L33:
1166:.\Generated_Source\PSoC4/CyLib.c ****         }
1167:.\Generated_Source\PSoC4/CyLib.c ****     }
 464              		.loc 1 1167 0
 465              		@ sp needed
 466 0024 38BD     		pop	{r3, r4, r5, pc}
 467              	.L36:
 468 0026 C046     		.align	2
 469              	.L35:
 470 0028 0C020B40 		.word	1074463244
 471              		.cfi_endproc
 472              	.LFE14:
ARM GAS  C:\Users\Pablo\AppData\Local\Temp\ccDGsedh.s 			page 30


 473              		.size	CySysWdtWriteClearOnMatch, .-CySysWdtWriteClearOnMatch
 474              		.section	.text.CySysWdtReadClearOnMatch,"ax",%progbits
 475              		.align	1
 476              		.global	CySysWdtReadClearOnMatch
 477              		.code	16
 478              		.thumb_func
 479              		.type	CySysWdtReadClearOnMatch, %function
 480              	CySysWdtReadClearOnMatch:
 481              	.LFB15:
1168:.\Generated_Source\PSoC4/CyLib.c **** 
1169:.\Generated_Source\PSoC4/CyLib.c **** 
1170:.\Generated_Source\PSoC4/CyLib.c ****     /*******************************************************************************
1171:.\Generated_Source\PSoC4/CyLib.c ****     * Function Name: CySysWdtReadClearOnMatch
1172:.\Generated_Source\PSoC4/CyLib.c ****     ********************************************************************************
1173:.\Generated_Source\PSoC4/CyLib.c ****     *
1174:.\Generated_Source\PSoC4/CyLib.c ****     * Summary:
1175:.\Generated_Source\PSoC4/CyLib.c ****     *  Reads the clear on match setting for the specified counter.
1176:.\Generated_Source\PSoC4/CyLib.c ****     *
1177:.\Generated_Source\PSoC4/CyLib.c ****     * Parameters:
1178:.\Generated_Source\PSoC4/CyLib.c ****     *   counterNum: Valid range [0-1].  Number of the WDT counter.  Match values are
1179:.\Generated_Source\PSoC4/CyLib.c ****     *               not supported by counter 2.
1180:.\Generated_Source\PSoC4/CyLib.c ****     *
1181:.\Generated_Source\PSoC4/CyLib.c ****     * Return:
1182:.\Generated_Source\PSoC4/CyLib.c ****     *   Clear on Match status: 1 if enabled, 0 if disabled
1183:.\Generated_Source\PSoC4/CyLib.c ****     *
1184:.\Generated_Source\PSoC4/CyLib.c ****     *******************************************************************************/
1185:.\Generated_Source\PSoC4/CyLib.c ****     uint32 CySysWdtReadClearOnMatch(uint32 counterNum)
1186:.\Generated_Source\PSoC4/CyLib.c ****     {
 482              		.loc 1 1186 0
 483              		.cfi_startproc
 484              	.LVL31:
1187:.\Generated_Source\PSoC4/CyLib.c ****         CYASSERT((counterNum == CY_SYS_WDT_COUNTER0) ||
1188:.\Generated_Source\PSoC4/CyLib.c ****                  (counterNum == CY_SYS_WDT_COUNTER1));
1189:.\Generated_Source\PSoC4/CyLib.c **** 
1190:.\Generated_Source\PSoC4/CyLib.c ****         return (uint32)((CY_SYS_WDT_CONFIG_REG >>
 485              		.loc 1 1190 0
 486 0000 044B     		ldr	r3, .L38
1191:.\Generated_Source\PSoC4/CyLib.c ****                         ((counterNum * CY_SYS_WDT_CNT_SHIFT) + CY_SYS_WDT_CNT_MATCH_CLR_SHIFT)) & 0
 487              		.loc 1 1191 0
 488 0002 C000     		lsl	r0, r0, #3
 489              	.LVL32:
1190:.\Generated_Source\PSoC4/CyLib.c ****         return (uint32)((CY_SYS_WDT_CONFIG_REG >>
 490              		.loc 1 1190 0
 491 0004 1B68     		ldr	r3, [r3]
 492              		.loc 1 1191 0
 493 0006 0230     		add	r0, r0, #2
1190:.\Generated_Source\PSoC4/CyLib.c ****         return (uint32)((CY_SYS_WDT_CONFIG_REG >>
 494              		.loc 1 1190 0
 495 0008 C340     		lsr	r3, r3, r0
 496 000a 181C     		mov	r0, r3
 497 000c 0123     		mov	r3, #1
 498 000e 1840     		and	r0, r3
1192:.\Generated_Source\PSoC4/CyLib.c ****     }
 499              		.loc 1 1192 0
 500              		@ sp needed
 501 0010 7047     		bx	lr
 502              	.L39:
ARM GAS  C:\Users\Pablo\AppData\Local\Temp\ccDGsedh.s 			page 31


 503 0012 C046     		.align	2
 504              	.L38:
 505 0014 0C020B40 		.word	1074463244
 506              		.cfi_endproc
 507              	.LFE15:
 508              		.size	CySysWdtReadClearOnMatch, .-CySysWdtReadClearOnMatch
 509              		.section	.text.CySysWdtEnable,"ax",%progbits
 510              		.align	1
 511              		.global	CySysWdtEnable
 512              		.code	16
 513              		.thumb_func
 514              		.type	CySysWdtEnable, %function
 515              	CySysWdtEnable:
 516              	.LFB16:
1193:.\Generated_Source\PSoC4/CyLib.c **** 
1194:.\Generated_Source\PSoC4/CyLib.c **** 
1195:.\Generated_Source\PSoC4/CyLib.c ****     /*******************************************************************************
1196:.\Generated_Source\PSoC4/CyLib.c ****     * Function Name: CySysWdtEnable
1197:.\Generated_Source\PSoC4/CyLib.c ****     ********************************************************************************
1198:.\Generated_Source\PSoC4/CyLib.c ****     *
1199:.\Generated_Source\PSoC4/CyLib.c ****     * Summary:
1200:.\Generated_Source\PSoC4/CyLib.c ****     *  Enables the specified WDT counters.  All the counters specified in the mask are
1201:.\Generated_Source\PSoC4/CyLib.c ****     *  enabled.
1202:.\Generated_Source\PSoC4/CyLib.c ****     *
1203:.\Generated_Source\PSoC4/CyLib.c ****     * Parameters:
1204:.\Generated_Source\PSoC4/CyLib.c ****     *  counterMask: Mask of all counters to enable
1205:.\Generated_Source\PSoC4/CyLib.c ****     *       Define                       Counter
1206:.\Generated_Source\PSoC4/CyLib.c ****     *      CY_SYS_WDT_COUNTER0_MASK      0
1207:.\Generated_Source\PSoC4/CyLib.c ****     *      CY_SYS_WDT_COUNTER1_MASK      1
1208:.\Generated_Source\PSoC4/CyLib.c ****     *      CY_SYS_WDT_COUNTER2_MASK      2
1209:.\Generated_Source\PSoC4/CyLib.c ****     *
1210:.\Generated_Source\PSoC4/CyLib.c ****     * Return:
1211:.\Generated_Source\PSoC4/CyLib.c ****     *  None
1212:.\Generated_Source\PSoC4/CyLib.c ****     *
1213:.\Generated_Source\PSoC4/CyLib.c ****     * Side Effects:
1214:.\Generated_Source\PSoC4/CyLib.c ****     *  Enabling or disabling a WDT requires 3 LFCLK cycles to come into effect.
1215:.\Generated_Source\PSoC4/CyLib.c ****     *  Therefore, the WDT enable state must not be changed more than once in
1216:.\Generated_Source\PSoC4/CyLib.c ****     *  that period.
1217:.\Generated_Source\PSoC4/CyLib.c ****     *
1218:.\Generated_Source\PSoC4/CyLib.c ****     *  After WDT is enabled, it is illegal to write WDT configuration (WDT_CONFIG)
1219:.\Generated_Source\PSoC4/CyLib.c ****     *  and control (WDT_CONTROL) registers. That means that all WDT functions that
1220:.\Generated_Source\PSoC4/CyLib.c ****     *  contain 'write' in the name (with the exception of CySysWdtWriteMatch()
1221:.\Generated_Source\PSoC4/CyLib.c ****     *  function) are illegal to call once WDT enabled.
1222:.\Generated_Source\PSoC4/CyLib.c ****     *
1223:.\Generated_Source\PSoC4/CyLib.c ****     *  PSoC 4100 / PSoC 4200:
1224:.\Generated_Source\PSoC4/CyLib.c ****     *  This function enables the ILO.
1225:.\Generated_Source\PSoC4/CyLib.c ****     *
1226:.\Generated_Source\PSoC4/CyLib.c ****     *  PSoC 4100-BL / PSoC 4200-BL:
1227:.\Generated_Source\PSoC4/CyLib.c ****     *  The LFLCK should be configured before calling this function. The desired
1228:.\Generated_Source\PSoC4/CyLib.c ****     *  source should be enabled and configured to be the source for the LFCLK.
1229:.\Generated_Source\PSoC4/CyLib.c ****     *
1230:.\Generated_Source\PSoC4/CyLib.c ****     *******************************************************************************/
1231:.\Generated_Source\PSoC4/CyLib.c ****     void CySysWdtEnable(uint32 counterMask)
1232:.\Generated_Source\PSoC4/CyLib.c ****     {
 517              		.loc 1 1232 0
 518              		.cfi_startproc
 519              	.LVL33:
ARM GAS  C:\Users\Pablo\AppData\Local\Temp\ccDGsedh.s 			page 32


 520 0000 10B5     		push	{r4, lr}
 521              		.cfi_def_cfa_offset 8
 522              		.cfi_offset 4, -8
 523              		.cfi_offset 14, -4
 524              		.loc 1 1232 0
 525 0002 041C     		mov	r4, r0
1233:.\Generated_Source\PSoC4/CyLib.c ****         #if (!CY_IP_WCO)
1234:.\Generated_Source\PSoC4/CyLib.c ****             CySysClkIloStart();
 526              		.loc 1 1234 0
 527 0004 FFF7FEFF 		bl	CySysClkIloStart
 528              	.LVL34:
1235:.\Generated_Source\PSoC4/CyLib.c ****         #endif /* (!CY_IP_WCO) */
1236:.\Generated_Source\PSoC4/CyLib.c **** 
1237:.\Generated_Source\PSoC4/CyLib.c ****         CY_SYS_WDT_CONTROL_REG |= counterMask;
 529              		.loc 1 1237 0
 530 0008 094B     		ldr	r3, .L56
 531 000a 1A68     		ldr	r2, [r3]
 532 000c 2243     		orr	r2, r4
 533 000e 1A60     		str	r2, [r3]
1238:.\Generated_Source\PSoC4/CyLib.c **** 
1239:.\Generated_Source\PSoC4/CyLib.c ****         if(0u != (counterMask & CY_SYS_WDT_COUNTER0_MASK))
 534              		.loc 1 1239 0
 535 0010 E107     		lsl	r1, r4, #31
 536 0012 02D5     		bpl	.L41
 537              	.L42:
 538              	.LVL35:
 539              	.LBB16:
 540              	.LBB17:
1053:.\Generated_Source\PSoC4/CyLib.c ****         return ((CY_SYS_WDT_CONTROL_REG >> ((CY_SYS_WDT_CNT_SHIFT * counterNum) + CY_SYS_WDT_CNT_ST
 541              		.loc 1 1053 0
 542 0014 1A68     		ldr	r2, [r3]
 543              	.LBE17:
 544              	.LBE16:
1240:.\Generated_Source\PSoC4/CyLib.c ****         {
1241:.\Generated_Source\PSoC4/CyLib.c ****             while (0u == CySysWdtReadEnabledStatus(CY_SYS_WDT_COUNTER0))
 545              		.loc 1 1241 0
 546 0016 9107     		lsl	r1, r2, #30
 547 0018 FCD5     		bpl	.L42
 548              	.LVL36:
 549              	.L41:
1242:.\Generated_Source\PSoC4/CyLib.c ****             {
1243:.\Generated_Source\PSoC4/CyLib.c ****                 /* Wait for the changes to come into effect */
1244:.\Generated_Source\PSoC4/CyLib.c ****             }
1245:.\Generated_Source\PSoC4/CyLib.c ****         }
1246:.\Generated_Source\PSoC4/CyLib.c **** 
1247:.\Generated_Source\PSoC4/CyLib.c ****         if(0u != (counterMask & CY_SYS_WDT_COUNTER1_MASK))
 550              		.loc 1 1247 0
 551 001a E205     		lsl	r2, r4, #23
 552 001c 02D5     		bpl	.L43
 553              	.L44:
 554              	.LVL37:
 555              	.LBB18:
 556              	.LBB19:
1053:.\Generated_Source\PSoC4/CyLib.c ****         return ((CY_SYS_WDT_CONTROL_REG >> ((CY_SYS_WDT_CNT_SHIFT * counterNum) + CY_SYS_WDT_CNT_ST
 557              		.loc 1 1053 0
 558 001e 1A68     		ldr	r2, [r3]
 559              	.LBE19:
ARM GAS  C:\Users\Pablo\AppData\Local\Temp\ccDGsedh.s 			page 33


 560              	.LBE18:
1248:.\Generated_Source\PSoC4/CyLib.c ****         {
1249:.\Generated_Source\PSoC4/CyLib.c ****             while (0u == CySysWdtReadEnabledStatus(CY_SYS_WDT_COUNTER1))
 561              		.loc 1 1249 0
 562 0020 9105     		lsl	r1, r2, #22
 563 0022 FCD5     		bpl	.L44
 564              	.LVL38:
 565              	.L43:
1250:.\Generated_Source\PSoC4/CyLib.c ****             {
1251:.\Generated_Source\PSoC4/CyLib.c ****                 /* Wait for the changes to come into effect */
1252:.\Generated_Source\PSoC4/CyLib.c ****             }
1253:.\Generated_Source\PSoC4/CyLib.c ****         }
1254:.\Generated_Source\PSoC4/CyLib.c **** 
1255:.\Generated_Source\PSoC4/CyLib.c ****         if(0u != (counterMask & CY_SYS_WDT_COUNTER2_MASK))
 566              		.loc 1 1255 0
 567 0024 E203     		lsl	r2, r4, #15
 568 0026 02D5     		bpl	.L40
 569              	.L46:
 570              	.LVL39:
 571              	.LBB20:
 572              	.LBB21:
1053:.\Generated_Source\PSoC4/CyLib.c ****         return ((CY_SYS_WDT_CONTROL_REG >> ((CY_SYS_WDT_CNT_SHIFT * counterNum) + CY_SYS_WDT_CNT_ST
 573              		.loc 1 1053 0
 574 0028 1A68     		ldr	r2, [r3]
 575              	.LBE21:
 576              	.LBE20:
1256:.\Generated_Source\PSoC4/CyLib.c ****         {
1257:.\Generated_Source\PSoC4/CyLib.c ****             while (0u == CySysWdtReadEnabledStatus(CY_SYS_WDT_COUNTER2))
 577              		.loc 1 1257 0
 578 002a 9103     		lsl	r1, r2, #14
 579 002c FCD5     		bpl	.L46
 580              	.LVL40:
 581              	.L40:
1258:.\Generated_Source\PSoC4/CyLib.c ****             {
1259:.\Generated_Source\PSoC4/CyLib.c ****                 /* Wait for the changes to come into effect */
1260:.\Generated_Source\PSoC4/CyLib.c ****             }
1261:.\Generated_Source\PSoC4/CyLib.c ****         }
1262:.\Generated_Source\PSoC4/CyLib.c ****     }
 582              		.loc 1 1262 0
 583              		@ sp needed
 584              	.LVL41:
 585 002e 10BD     		pop	{r4, pc}
 586              	.L57:
 587              		.align	2
 588              	.L56:
 589 0030 10020B40 		.word	1074463248
 590              		.cfi_endproc
 591              	.LFE16:
 592              		.size	CySysWdtEnable, .-CySysWdtEnable
 593              		.section	.text.CySysWdtDisable,"ax",%progbits
 594              		.align	1
 595              		.global	CySysWdtDisable
 596              		.code	16
 597              		.thumb_func
 598              		.type	CySysWdtDisable, %function
 599              	CySysWdtDisable:
 600              	.LFB17:
ARM GAS  C:\Users\Pablo\AppData\Local\Temp\ccDGsedh.s 			page 34


1263:.\Generated_Source\PSoC4/CyLib.c **** 
1264:.\Generated_Source\PSoC4/CyLib.c **** 
1265:.\Generated_Source\PSoC4/CyLib.c ****     /*******************************************************************************
1266:.\Generated_Source\PSoC4/CyLib.c ****     * Function Name: CySysWdtDisable
1267:.\Generated_Source\PSoC4/CyLib.c ****     ********************************************************************************
1268:.\Generated_Source\PSoC4/CyLib.c ****     *
1269:.\Generated_Source\PSoC4/CyLib.c ****     * Summary:
1270:.\Generated_Source\PSoC4/CyLib.c ****     *  Disables the specified WDT counters. All the counters specified in the mask
1271:.\Generated_Source\PSoC4/CyLib.c ****     *  are disabled. The function waits for the changes to come into effect.
1272:.\Generated_Source\PSoC4/CyLib.c ****     *
1273:.\Generated_Source\PSoC4/CyLib.c ****     * Parameters:
1274:.\Generated_Source\PSoC4/CyLib.c ****     *  uint32 counterMask: Mask of all counters to disable
1275:.\Generated_Source\PSoC4/CyLib.c ****     *    Define                       Counter
1276:.\Generated_Source\PSoC4/CyLib.c ****     *   CY_SYS_WDT_COUNTER0_MASK      0
1277:.\Generated_Source\PSoC4/CyLib.c ****     *   CY_SYS_WDT_COUNTER1_MASK      1
1278:.\Generated_Source\PSoC4/CyLib.c ****     *   CY_SYS_WDT_COUNTER2_MASK      2
1279:.\Generated_Source\PSoC4/CyLib.c ****     *
1280:.\Generated_Source\PSoC4/CyLib.c ****     * Return:
1281:.\Generated_Source\PSoC4/CyLib.c ****     *   None
1282:.\Generated_Source\PSoC4/CyLib.c ****     *
1283:.\Generated_Source\PSoC4/CyLib.c ****     *******************************************************************************/
1284:.\Generated_Source\PSoC4/CyLib.c ****     void CySysWdtDisable(uint32 counterMask)
1285:.\Generated_Source\PSoC4/CyLib.c ****     {
 601              		.loc 1 1285 0
 602              		.cfi_startproc
 603              	.LVL42:
1286:.\Generated_Source\PSoC4/CyLib.c ****         CY_SYS_WDT_CONTROL_REG &= ~counterMask;
 604              		.loc 1 1286 0
 605 0000 094B     		ldr	r3, .L83
 606 0002 1A68     		ldr	r2, [r3]
 607 0004 8243     		bic	r2, r0
 608 0006 1A60     		str	r2, [r3]
1287:.\Generated_Source\PSoC4/CyLib.c **** 
1288:.\Generated_Source\PSoC4/CyLib.c ****         if(0u != (counterMask & CY_SYS_WDT_COUNTER0_MASK))
 609              		.loc 1 1288 0
 610 0008 C107     		lsl	r1, r0, #31
 611 000a 02D5     		bpl	.L59
 612              	.L60:
 613              	.LVL43:
 614              	.LBB28:
 615              	.LBB29:
1053:.\Generated_Source\PSoC4/CyLib.c ****         return ((CY_SYS_WDT_CONTROL_REG >> ((CY_SYS_WDT_CNT_SHIFT * counterNum) + CY_SYS_WDT_CNT_ST
 616              		.loc 1 1053 0
 617 000c 1A68     		ldr	r2, [r3]
 618              	.LBE29:
 619              	.LBE28:
1289:.\Generated_Source\PSoC4/CyLib.c ****         {
1290:.\Generated_Source\PSoC4/CyLib.c ****             while (0u != CySysWdtReadEnabledStatus(CY_SYS_WDT_COUNTER0))
 620              		.loc 1 1290 0
 621 000e 9107     		lsl	r1, r2, #30
 622 0010 FCD4     		bmi	.L60
 623              	.LVL44:
 624              	.L59:
1291:.\Generated_Source\PSoC4/CyLib.c ****             {
1292:.\Generated_Source\PSoC4/CyLib.c ****                 /* Wait for the changes to come into effect */
1293:.\Generated_Source\PSoC4/CyLib.c ****             }
1294:.\Generated_Source\PSoC4/CyLib.c ****         }
ARM GAS  C:\Users\Pablo\AppData\Local\Temp\ccDGsedh.s 			page 35


1295:.\Generated_Source\PSoC4/CyLib.c **** 
1296:.\Generated_Source\PSoC4/CyLib.c ****         if(0u != (counterMask & CY_SYS_WDT_COUNTER1_MASK))
 625              		.loc 1 1296 0
 626 0012 C205     		lsl	r2, r0, #23
 627 0014 02D5     		bpl	.L61
 628              	.L62:
 629              	.LVL45:
 630              	.LBB30:
 631              	.LBB31:
1053:.\Generated_Source\PSoC4/CyLib.c ****         return ((CY_SYS_WDT_CONTROL_REG >> ((CY_SYS_WDT_CNT_SHIFT * counterNum) + CY_SYS_WDT_CNT_ST
 632              		.loc 1 1053 0
 633 0016 1A68     		ldr	r2, [r3]
 634              	.LBE31:
 635              	.LBE30:
1297:.\Generated_Source\PSoC4/CyLib.c ****         {
1298:.\Generated_Source\PSoC4/CyLib.c ****             while (0u != CySysWdtReadEnabledStatus(CY_SYS_WDT_COUNTER1))
 636              		.loc 1 1298 0
 637 0018 9105     		lsl	r1, r2, #22
 638 001a FCD4     		bmi	.L62
 639              	.LVL46:
 640              	.L61:
1299:.\Generated_Source\PSoC4/CyLib.c ****             {
1300:.\Generated_Source\PSoC4/CyLib.c ****                 /* Wait for the changes to come into effect */
1301:.\Generated_Source\PSoC4/CyLib.c ****             }
1302:.\Generated_Source\PSoC4/CyLib.c ****         }
1303:.\Generated_Source\PSoC4/CyLib.c **** 
1304:.\Generated_Source\PSoC4/CyLib.c ****         if(0u != (counterMask & CY_SYS_WDT_COUNTER2_MASK))
 641              		.loc 1 1304 0
 642 001c C203     		lsl	r2, r0, #15
 643 001e 02D5     		bpl	.L58
 644              	.L64:
 645              	.LVL47:
 646              	.LBB32:
 647              	.LBB33:
1053:.\Generated_Source\PSoC4/CyLib.c ****         return ((CY_SYS_WDT_CONTROL_REG >> ((CY_SYS_WDT_CNT_SHIFT * counterNum) + CY_SYS_WDT_CNT_ST
 648              		.loc 1 1053 0
 649 0020 1A68     		ldr	r2, [r3]
 650              	.LBE33:
 651              	.LBE32:
1305:.\Generated_Source\PSoC4/CyLib.c ****         {
1306:.\Generated_Source\PSoC4/CyLib.c ****             while (0u != CySysWdtReadEnabledStatus(CY_SYS_WDT_COUNTER2))
 652              		.loc 1 1306 0
 653 0022 9103     		lsl	r1, r2, #14
 654 0024 FCD4     		bmi	.L64
 655              	.LVL48:
 656              	.L58:
1307:.\Generated_Source\PSoC4/CyLib.c ****             {
1308:.\Generated_Source\PSoC4/CyLib.c ****                 /* Wait for the changes to come into effect */
1309:.\Generated_Source\PSoC4/CyLib.c ****             }
1310:.\Generated_Source\PSoC4/CyLib.c ****         }
1311:.\Generated_Source\PSoC4/CyLib.c ****     }
 657              		.loc 1 1311 0
 658              		@ sp needed
 659 0026 7047     		bx	lr
 660              	.L84:
 661              		.align	2
 662              	.L83:
ARM GAS  C:\Users\Pablo\AppData\Local\Temp\ccDGsedh.s 			page 36


 663 0028 10020B40 		.word	1074463248
 664              		.cfi_endproc
 665              	.LFE17:
 666              		.size	CySysWdtDisable, .-CySysWdtDisable
 667              		.section	.text.CySysWdtWriteCascade,"ax",%progbits
 668              		.align	1
 669              		.global	CySysWdtWriteCascade
 670              		.code	16
 671              		.thumb_func
 672              		.type	CySysWdtWriteCascade, %function
 673              	CySysWdtWriteCascade:
 674              	.LFB18:
1312:.\Generated_Source\PSoC4/CyLib.c **** 
1313:.\Generated_Source\PSoC4/CyLib.c **** 
1314:.\Generated_Source\PSoC4/CyLib.c ****     /*******************************************************************************
1315:.\Generated_Source\PSoC4/CyLib.c ****     * Function Name: CySysWdtWriteCascade
1316:.\Generated_Source\PSoC4/CyLib.c ****     ********************************************************************************
1317:.\Generated_Source\PSoC4/CyLib.c ****     *
1318:.\Generated_Source\PSoC4/CyLib.c ****     * Summary:
1319:.\Generated_Source\PSoC4/CyLib.c ****     *   Writes the two WDT cascade values based on the combination of mask values
1320:.\Generated_Source\PSoC4/CyLib.c ****     *   specified.
1321:.\Generated_Source\PSoC4/CyLib.c ****     *
1322:.\Generated_Source\PSoC4/CyLib.c ****     * Parameters:
1323:.\Generated_Source\PSoC4/CyLib.c ****     *   cascadeMask: Mask value used to set or clear the cascade values.
1324:.\Generated_Source\PSoC4/CyLib.c ****     *   Define                     Cascade
1325:.\Generated_Source\PSoC4/CyLib.c ****     *   CY_SYS_WDT_CASCADE_NONE    Neither
1326:.\Generated_Source\PSoC4/CyLib.c ****     *   CY_SYS_WDT_CASCADE_01      Cascade 01
1327:.\Generated_Source\PSoC4/CyLib.c ****     *   CY_SYS_WDT_CASCADE_12      Cascade 12
1328:.\Generated_Source\PSoC4/CyLib.c ****     *
1329:.\Generated_Source\PSoC4/CyLib.c ****     *   To set both cascade modes, two defines should be ORed:
1330:.\Generated_Source\PSoC4/CyLib.c ****     *   (CY_SYS_WDT_CASCADE_01 | CY_SYS_WDT_CASCADE_12)
1331:.\Generated_Source\PSoC4/CyLib.c ****     *
1332:.\Generated_Source\PSoC4/CyLib.c ****     * Return:
1333:.\Generated_Source\PSoC4/CyLib.c ****     *   None
1334:.\Generated_Source\PSoC4/CyLib.c ****     *
1335:.\Generated_Source\PSoC4/CyLib.c ****     * Side effects:
1336:.\Generated_Source\PSoC4/CyLib.c ****     *   If only one cascade mask is specified, the second cascade is disabled.
1337:.\Generated_Source\PSoC4/CyLib.c ****     *   To set both cascade modes two defines should be ORed:
1338:.\Generated_Source\PSoC4/CyLib.c ****     *    (CY_SYS_WDT_CASCADE_01 | CY_SYS_WDT_CASCADE_12).
1339:.\Generated_Source\PSoC4/CyLib.c ****     *
1340:.\Generated_Source\PSoC4/CyLib.c ****     *   WDT counters that are part of the specified cascade, should be disabled.
1341:.\Generated_Source\PSoC4/CyLib.c ****     *   Otherwise this function call will have no effect. If the specified
1342:.\Generated_Source\PSoC4/CyLib.c ****     *   counter is enabled, call CySysWdtDisable() function with the corresponding
1343:.\Generated_Source\PSoC4/CyLib.c ****     *   parameter to disable specified counter and wait for it to stop. This may
1344:.\Generated_Source\PSoC4/CyLib.c ****     *   take up to 3 LFCLK cycles.
1345:.\Generated_Source\PSoC4/CyLib.c ****     *
1346:.\Generated_Source\PSoC4/CyLib.c ****     *******************************************************************************/
1347:.\Generated_Source\PSoC4/CyLib.c ****     void CySysWdtWriteCascade(uint32 cascadeMask)
1348:.\Generated_Source\PSoC4/CyLib.c ****     {
 675              		.loc 1 1348 0
 676              		.cfi_startproc
 677              	.LVL49:
 678              	.LBB40:
 679              	.LBB41:
1053:.\Generated_Source\PSoC4/CyLib.c ****         return ((CY_SYS_WDT_CONTROL_REG >> ((CY_SYS_WDT_CNT_SHIFT * counterNum) + CY_SYS_WDT_CNT_ST
 680              		.loc 1 1053 0
 681 0000 094B     		ldr	r3, .L87
ARM GAS  C:\Users\Pablo\AppData\Local\Temp\ccDGsedh.s 			page 37


 682              	.LBE41:
 683              	.LBE40:
 684              		.loc 1 1348 0
 685 0002 10B5     		push	{r4, lr}
 686              		.cfi_def_cfa_offset 8
 687              		.cfi_offset 4, -8
 688              		.cfi_offset 14, -4
 689              	.LBB44:
 690              	.LBB42:
1053:.\Generated_Source\PSoC4/CyLib.c ****         return ((CY_SYS_WDT_CONTROL_REG >> ((CY_SYS_WDT_CNT_SHIFT * counterNum) + CY_SYS_WDT_CNT_ST
 691              		.loc 1 1053 0
 692 0004 1C68     		ldr	r4, [r3]
 693              	.LVL50:
 694              	.LBE42:
 695              	.LBE44:
 696              	.LBB45:
 697              	.LBB46:
 698 0006 1968     		ldr	r1, [r3]
 699              	.LVL51:
 700              	.LBE46:
 701              	.LBE45:
 702              	.LBB48:
 703              	.LBB49:
 704 0008 1A68     		ldr	r2, [r3]
 705              	.LVL52:
 706              	.LBE49:
 707              	.LBE48:
 708              	.LBB51:
 709              	.LBB47:
 710 000a 490A     		lsr	r1, r1, #9
 711              	.LVL53:
 712              	.LBE47:
 713              	.LBE51:
 714              	.LBB52:
 715              	.LBB43:
 716 000c 6308     		lsr	r3, r4, #1
 717              	.LBE43:
 718              	.LBE52:
1349:.\Generated_Source\PSoC4/CyLib.c ****         uint32 configRegValue;
1350:.\Generated_Source\PSoC4/CyLib.c ****         uint32 countersEnableStatus;
1351:.\Generated_Source\PSoC4/CyLib.c **** 
1352:.\Generated_Source\PSoC4/CyLib.c ****         countersEnableStatus = CySysWdtReadEnabledStatus(CY_SYS_WDT_COUNTER0) |
 719              		.loc 1 1352 0
 720 000e 0B43     		orr	r3, r1
 721              	.LBB53:
 722              	.LBB50:
1053:.\Generated_Source\PSoC4/CyLib.c ****         return ((CY_SYS_WDT_CONTROL_REG >> ((CY_SYS_WDT_CNT_SHIFT * counterNum) + CY_SYS_WDT_CNT_ST
 723              		.loc 1 1053 0
 724 0010 520C     		lsr	r2, r2, #17
 725              	.LBE50:
 726              	.LBE53:
 727              		.loc 1 1352 0
 728 0012 1343     		orr	r3, r2
1353:.\Generated_Source\PSoC4/CyLib.c ****                             CySysWdtReadEnabledStatus(CY_SYS_WDT_COUNTER1) |
1354:.\Generated_Source\PSoC4/CyLib.c ****                             CySysWdtReadEnabledStatus(CY_SYS_WDT_COUNTER2);
1355:.\Generated_Source\PSoC4/CyLib.c **** 
1356:.\Generated_Source\PSoC4/CyLib.c ****         if (0u == countersEnableStatus)
ARM GAS  C:\Users\Pablo\AppData\Local\Temp\ccDGsedh.s 			page 38


 729              		.loc 1 1356 0
 730 0014 DA07     		lsl	r2, r3, #31
 731 0016 05D4     		bmi	.L85
1357:.\Generated_Source\PSoC4/CyLib.c ****         {
1358:.\Generated_Source\PSoC4/CyLib.c ****             configRegValue = CY_SYS_WDT_CONFIG_REG;
 732              		.loc 1 1358 0
 733 0018 044B     		ldr	r3, .L87+4
1359:.\Generated_Source\PSoC4/CyLib.c ****             configRegValue &= ((uint32)(~(CY_SYS_WDT_CASCADE_01|CY_SYS_WDT_CASCADE_12)));
 734              		.loc 1 1359 0
 735 001a 054A     		ldr	r2, .L87+8
1358:.\Generated_Source\PSoC4/CyLib.c ****             configRegValue = CY_SYS_WDT_CONFIG_REG;
 736              		.loc 1 1358 0
 737 001c 1968     		ldr	r1, [r3]
 738              	.LVL54:
 739              		.loc 1 1359 0
 740 001e 0A40     		and	r2, r1
 741              	.LVL55:
1360:.\Generated_Source\PSoC4/CyLib.c ****             configRegValue |= cascadeMask;
 742              		.loc 1 1360 0
 743 0020 1043     		orr	r0, r2
 744              	.LVL56:
1361:.\Generated_Source\PSoC4/CyLib.c ****             CY_SYS_WDT_CONFIG_REG = configRegValue;
 745              		.loc 1 1361 0
 746 0022 1860     		str	r0, [r3]
 747              	.LVL57:
 748              	.L85:
1362:.\Generated_Source\PSoC4/CyLib.c ****         }
1363:.\Generated_Source\PSoC4/CyLib.c ****     }
 749              		.loc 1 1363 0
 750              		@ sp needed
 751 0024 10BD     		pop	{r4, pc}
 752              	.L88:
 753 0026 C046     		.align	2
 754              	.L87:
 755 0028 10020B40 		.word	1074463248
 756 002c 0C020B40 		.word	1074463244
 757 0030 F7F7FFFF 		.word	-2057
 758              		.cfi_endproc
 759              	.LFE18:
 760              		.size	CySysWdtWriteCascade, .-CySysWdtWriteCascade
 761              		.section	.text.CySysWdtReadCascade,"ax",%progbits
 762              		.align	1
 763              		.global	CySysWdtReadCascade
 764              		.code	16
 765              		.thumb_func
 766              		.type	CySysWdtReadCascade, %function
 767              	CySysWdtReadCascade:
 768              	.LFB19:
1364:.\Generated_Source\PSoC4/CyLib.c **** 
1365:.\Generated_Source\PSoC4/CyLib.c **** 
1366:.\Generated_Source\PSoC4/CyLib.c ****     /*******************************************************************************
1367:.\Generated_Source\PSoC4/CyLib.c ****     * Function Name: CySysWdtReadCascade
1368:.\Generated_Source\PSoC4/CyLib.c ****     ********************************************************************************
1369:.\Generated_Source\PSoC4/CyLib.c ****     *
1370:.\Generated_Source\PSoC4/CyLib.c ****     * Summary:
1371:.\Generated_Source\PSoC4/CyLib.c ****     *   Reads the two WDT cascade values returning a mask of the bits set.
1372:.\Generated_Source\PSoC4/CyLib.c ****     *
ARM GAS  C:\Users\Pablo\AppData\Local\Temp\ccDGsedh.s 			page 39


1373:.\Generated_Source\PSoC4/CyLib.c ****     * Parameters:
1374:.\Generated_Source\PSoC4/CyLib.c ****     *   None
1375:.\Generated_Source\PSoC4/CyLib.c ****     *
1376:.\Generated_Source\PSoC4/CyLib.c ****     * Return:
1377:.\Generated_Source\PSoC4/CyLib.c ****     *   Mask of cascade values set.
1378:.\Generated_Source\PSoC4/CyLib.c ****     *   Define                     Cascade
1379:.\Generated_Source\PSoC4/CyLib.c ****     *   CY_SYS_WDT_CASCADE_NONE    Neither
1380:.\Generated_Source\PSoC4/CyLib.c ****     *   CY_SYS_WDT_CASCADE_01      Cascade 01
1381:.\Generated_Source\PSoC4/CyLib.c ****     *   CY_SYS_WDT_CASCADE_12      Cascade 12
1382:.\Generated_Source\PSoC4/CyLib.c ****     *
1383:.\Generated_Source\PSoC4/CyLib.c ****     *******************************************************************************/
1384:.\Generated_Source\PSoC4/CyLib.c ****     uint32 CySysWdtReadCascade(void)
1385:.\Generated_Source\PSoC4/CyLib.c ****     {
 769              		.loc 1 1385 0
 770              		.cfi_startproc
1386:.\Generated_Source\PSoC4/CyLib.c ****         return (CY_SYS_WDT_CONFIG_REG & (CY_SYS_WDT_CASCADE_01 | CY_SYS_WDT_CASCADE_12));
 771              		.loc 1 1386 0
 772 0000 024B     		ldr	r3, .L90
1387:.\Generated_Source\PSoC4/CyLib.c ****     }
 773              		.loc 1 1387 0
 774              		@ sp needed
1386:.\Generated_Source\PSoC4/CyLib.c ****         return (CY_SYS_WDT_CONFIG_REG & (CY_SYS_WDT_CASCADE_01 | CY_SYS_WDT_CASCADE_12));
 775              		.loc 1 1386 0
 776 0002 1868     		ldr	r0, [r3]
 777 0004 024B     		ldr	r3, .L90+4
 778 0006 1840     		and	r0, r3
 779              		.loc 1 1387 0
 780 0008 7047     		bx	lr
 781              	.L91:
 782 000a C046     		.align	2
 783              	.L90:
 784 000c 0C020B40 		.word	1074463244
 785 0010 08080000 		.word	2056
 786              		.cfi_endproc
 787              	.LFE19:
 788              		.size	CySysWdtReadCascade, .-CySysWdtReadCascade
 789              		.section	.text.CySysWdtWriteToggleBit,"ax",%progbits
 790              		.align	1
 791              		.global	CySysWdtWriteToggleBit
 792              		.code	16
 793              		.thumb_func
 794              		.type	CySysWdtWriteToggleBit, %function
 795              	CySysWdtWriteToggleBit:
 796              	.LFB21:
1388:.\Generated_Source\PSoC4/CyLib.c **** 
1389:.\Generated_Source\PSoC4/CyLib.c **** 
1390:.\Generated_Source\PSoC4/CyLib.c ****     /*******************************************************************************
1391:.\Generated_Source\PSoC4/CyLib.c ****     * Function Name: CySysWdtWriteMatch
1392:.\Generated_Source\PSoC4/CyLib.c ****     ********************************************************************************
1393:.\Generated_Source\PSoC4/CyLib.c ****     *
1394:.\Generated_Source\PSoC4/CyLib.c ****     * Summary:
1395:.\Generated_Source\PSoC4/CyLib.c ****     *  Configures the WDT counter match comparison value.
1396:.\Generated_Source\PSoC4/CyLib.c ****     *
1397:.\Generated_Source\PSoC4/CyLib.c ****     * Parameters:
1398:.\Generated_Source\PSoC4/CyLib.c ****     *  counterNum:
1399:.\Generated_Source\PSoC4/CyLib.c ****     *   Valid range [0-1]. Number of the WDT counter. Match values are not
1400:.\Generated_Source\PSoC4/CyLib.c ****     *   supported by counter 2.
ARM GAS  C:\Users\Pablo\AppData\Local\Temp\ccDGsedh.s 			page 40


1401:.\Generated_Source\PSoC4/CyLib.c ****     *
1402:.\Generated_Source\PSoC4/CyLib.c ****     *  match:
1403:.\Generated_Source\PSoC4/CyLib.c ****     *   Valid range [0-65535]. Value to be used to match against the counter.
1404:.\Generated_Source\PSoC4/CyLib.c ****     *
1405:.\Generated_Source\PSoC4/CyLib.c ****     * Return:
1406:.\Generated_Source\PSoC4/CyLib.c ****     *   None
1407:.\Generated_Source\PSoC4/CyLib.c ****     *
1408:.\Generated_Source\PSoC4/CyLib.c ****     *******************************************************************************/
1409:.\Generated_Source\PSoC4/CyLib.c ****     void CySysWdtWriteMatch(uint32 counterNum, uint32 match)
1410:.\Generated_Source\PSoC4/CyLib.c ****     {
1411:.\Generated_Source\PSoC4/CyLib.c ****         uint32 regValue;
1412:.\Generated_Source\PSoC4/CyLib.c **** 
1413:.\Generated_Source\PSoC4/CyLib.c ****         CYASSERT((counterNum == CY_SYS_WDT_COUNTER0) ||
1414:.\Generated_Source\PSoC4/CyLib.c ****                  (counterNum == CY_SYS_WDT_COUNTER1));
1415:.\Generated_Source\PSoC4/CyLib.c **** 
1416:.\Generated_Source\PSoC4/CyLib.c ****         /* Wait for the previous changes to come into effect */
1417:.\Generated_Source\PSoC4/CyLib.c ****         CyDelayUs(CY_SYS_WDT_3LFCLK_DELAY_US);
1418:.\Generated_Source\PSoC4/CyLib.c **** 
1419:.\Generated_Source\PSoC4/CyLib.c ****         regValue = CY_SYS_WDT_MATCH_REG;
1420:.\Generated_Source\PSoC4/CyLib.c ****         regValue &= (uint32)~((uint32)(CY_SYS_WDT_LOWER_16BITS_MASK << (counterNum * CY_SYS_WDT_CNT
1421:.\Generated_Source\PSoC4/CyLib.c ****         CY_SYS_WDT_MATCH_REG = (regValue | (match << (counterNum * CY_SYS_WDT_CNT_MATCH_SHIFT)));
1422:.\Generated_Source\PSoC4/CyLib.c **** 
1423:.\Generated_Source\PSoC4/CyLib.c ****         /* Make sure the match synchronization started */
1424:.\Generated_Source\PSoC4/CyLib.c ****         CyDelayUs(CY_SYS_WDT_1LFCLK_DELAY_US);
1425:.\Generated_Source\PSoC4/CyLib.c ****     }
1426:.\Generated_Source\PSoC4/CyLib.c **** 
1427:.\Generated_Source\PSoC4/CyLib.c **** 
1428:.\Generated_Source\PSoC4/CyLib.c ****     /*******************************************************************************
1429:.\Generated_Source\PSoC4/CyLib.c ****     * Function Name: CySysWdtWriteToggleBit
1430:.\Generated_Source\PSoC4/CyLib.c ****     ********************************************************************************
1431:.\Generated_Source\PSoC4/CyLib.c ****     *
1432:.\Generated_Source\PSoC4/CyLib.c ****     * Summary:
1433:.\Generated_Source\PSoC4/CyLib.c ****     *  Configures which bit in the WDT counter 2 to monitor for a toggle. When that
1434:.\Generated_Source\PSoC4/CyLib.c ****     *  bit toggles, an interrupt is generated if the mode for counter 2 has
1435:.\Generated_Source\PSoC4/CyLib.c ****     *  interrupts enabled.
1436:.\Generated_Source\PSoC4/CyLib.c ****     *
1437:.\Generated_Source\PSoC4/CyLib.c ****     * Parameters:
1438:.\Generated_Source\PSoC4/CyLib.c ****     *  bit:
1439:.\Generated_Source\PSoC4/CyLib.c ****     *   Valid range [0-31].  Counter 2 bit to monitor for a toggle.
1440:.\Generated_Source\PSoC4/CyLib.c ****     *
1441:.\Generated_Source\PSoC4/CyLib.c ****     * Return:
1442:.\Generated_Source\PSoC4/CyLib.c ****     *   None
1443:.\Generated_Source\PSoC4/CyLib.c ****     *
1444:.\Generated_Source\PSoC4/CyLib.c ****     * Side effects:
1445:.\Generated_Source\PSoC4/CyLib.c ****     *   WDT Counter 2 should be disabled. Otherwise this function call will have no
1446:.\Generated_Source\PSoC4/CyLib.c ****     *   effect.
1447:.\Generated_Source\PSoC4/CyLib.c ****     *
1448:.\Generated_Source\PSoC4/CyLib.c ****     *   If the specified counter is enabled, call CySysWdtDisable() function with
1449:.\Generated_Source\PSoC4/CyLib.c ****     *   the corresponding parameter to disable specified counter and wait for it to
1450:.\Generated_Source\PSoC4/CyLib.c ****     *   stop. This may take up to 3 LFCLK cycles.
1451:.\Generated_Source\PSoC4/CyLib.c ****     *
1452:.\Generated_Source\PSoC4/CyLib.c ****     *******************************************************************************/
1453:.\Generated_Source\PSoC4/CyLib.c ****     void CySysWdtWriteToggleBit(uint32 bits)
1454:.\Generated_Source\PSoC4/CyLib.c ****     {
 797              		.loc 1 1454 0
 798              		.cfi_startproc
 799              	.LVL58:
ARM GAS  C:\Users\Pablo\AppData\Local\Temp\ccDGsedh.s 			page 41


 800              	.LBB56:
 801              	.LBB57:
1053:.\Generated_Source\PSoC4/CyLib.c ****         return ((CY_SYS_WDT_CONTROL_REG >> ((CY_SYS_WDT_CNT_SHIFT * counterNum) + CY_SYS_WDT_CNT_ST
 802              		.loc 1 1053 0
 803 0000 064B     		ldr	r3, .L94
 804 0002 1B68     		ldr	r3, [r3]
 805              	.LBE57:
 806              	.LBE56:
1455:.\Generated_Source\PSoC4/CyLib.c ****         uint32 configRegValue;
1456:.\Generated_Source\PSoC4/CyLib.c **** 
1457:.\Generated_Source\PSoC4/CyLib.c ****         if (0u == CySysWdtReadEnabledStatus(CY_SYS_WDT_COUNTER2))
 807              		.loc 1 1457 0
 808 0004 9A03     		lsl	r2, r3, #14
 809 0006 08D4     		bmi	.L92
1458:.\Generated_Source\PSoC4/CyLib.c ****         {
1459:.\Generated_Source\PSoC4/CyLib.c ****             configRegValue = CY_SYS_WDT_CONFIG_REG;
 810              		.loc 1 1459 0
 811 0008 054B     		ldr	r3, .L94+4
1460:.\Generated_Source\PSoC4/CyLib.c ****             configRegValue &= (uint32)(~((uint32)(CY_SYS_WDT_CONFIG_BITS2_MASK << CY_SYS_WDT_CONFIG
 812              		.loc 1 1460 0
 813 000a 064A     		ldr	r2, .L94+8
1459:.\Generated_Source\PSoC4/CyLib.c ****             configRegValue = CY_SYS_WDT_CONFIG_REG;
 814              		.loc 1 1459 0
 815 000c 1968     		ldr	r1, [r3]
 816              	.LVL59:
 817              		.loc 1 1460 0
 818 000e 0A40     		and	r2, r1
 819              	.LVL60:
1461:.\Generated_Source\PSoC4/CyLib.c ****             configRegValue |= ((bits & CY_SYS_WDT_CONFIG_BITS2_MASK) << CY_SYS_WDT_CONFIG_BITS2_POS
 820              		.loc 1 1461 0
 821 0010 1F21     		mov	r1, #31
 822 0012 0840     		and	r0, r1
 823              	.LVL61:
 824 0014 0006     		lsl	r0, r0, #24
 825 0016 1043     		orr	r0, r2
 826              	.LVL62:
1462:.\Generated_Source\PSoC4/CyLib.c ****             CY_SYS_WDT_CONFIG_REG = configRegValue;
 827              		.loc 1 1462 0
 828 0018 1860     		str	r0, [r3]
 829              	.LVL63:
 830              	.L92:
1463:.\Generated_Source\PSoC4/CyLib.c ****         }
1464:.\Generated_Source\PSoC4/CyLib.c ****     }
 831              		.loc 1 1464 0
 832              		@ sp needed
 833 001a 7047     		bx	lr
 834              	.L95:
 835              		.align	2
 836              	.L94:
 837 001c 10020B40 		.word	1074463248
 838 0020 0C020B40 		.word	1074463244
 839 0024 FFFFFFE0 		.word	-520093697
 840              		.cfi_endproc
 841              	.LFE21:
 842              		.size	CySysWdtWriteToggleBit, .-CySysWdtWriteToggleBit
 843              		.section	.text.CySysWdtReadToggleBit,"ax",%progbits
 844              		.align	1
ARM GAS  C:\Users\Pablo\AppData\Local\Temp\ccDGsedh.s 			page 42


 845              		.global	CySysWdtReadToggleBit
 846              		.code	16
 847              		.thumb_func
 848              		.type	CySysWdtReadToggleBit, %function
 849              	CySysWdtReadToggleBit:
 850              	.LFB22:
1465:.\Generated_Source\PSoC4/CyLib.c **** 
1466:.\Generated_Source\PSoC4/CyLib.c **** 
1467:.\Generated_Source\PSoC4/CyLib.c ****     /*******************************************************************************
1468:.\Generated_Source\PSoC4/CyLib.c ****     * Function Name: CySysWdtReadToggleBit
1469:.\Generated_Source\PSoC4/CyLib.c ****     ********************************************************************************
1470:.\Generated_Source\PSoC4/CyLib.c ****     *
1471:.\Generated_Source\PSoC4/CyLib.c ****     * Summary:
1472:.\Generated_Source\PSoC4/CyLib.c ****     *  Reads which bit in the WDT counter 2 is monitored for a toggle.
1473:.\Generated_Source\PSoC4/CyLib.c ****     *
1474:.\Generated_Source\PSoC4/CyLib.c ****     * Parameters:
1475:.\Generated_Source\PSoC4/CyLib.c ****     *  None
1476:.\Generated_Source\PSoC4/CyLib.c ****     *
1477:.\Generated_Source\PSoC4/CyLib.c ****     * Return:
1478:.\Generated_Source\PSoC4/CyLib.c ****     *  The bit that is monitored (range of 0 to 31)
1479:.\Generated_Source\PSoC4/CyLib.c ****     *
1480:.\Generated_Source\PSoC4/CyLib.c ****     *******************************************************************************/
1481:.\Generated_Source\PSoC4/CyLib.c ****     uint32 CySysWdtReadToggleBit(void)
1482:.\Generated_Source\PSoC4/CyLib.c ****     {
 851              		.loc 1 1482 0
 852              		.cfi_startproc
1483:.\Generated_Source\PSoC4/CyLib.c ****         return ((CY_SYS_WDT_CONFIG_REG >> CY_SYS_WDT_CONFIG_BITS2_POS) & CY_SYS_WDT_CONFIG_BITS2_MA
 853              		.loc 1 1483 0
 854 0000 024B     		ldr	r3, .L97
1484:.\Generated_Source\PSoC4/CyLib.c ****     }
 855              		.loc 1 1484 0
 856              		@ sp needed
1483:.\Generated_Source\PSoC4/CyLib.c ****         return ((CY_SYS_WDT_CONFIG_REG >> CY_SYS_WDT_CONFIG_BITS2_POS) & CY_SYS_WDT_CONFIG_BITS2_MA
 857              		.loc 1 1483 0
 858 0002 1868     		ldr	r0, [r3]
 859 0004 C000     		lsl	r0, r0, #3
 860 0006 C00E     		lsr	r0, r0, #27
 861              		.loc 1 1484 0
 862 0008 7047     		bx	lr
 863              	.L98:
 864 000a C046     		.align	2
 865              	.L97:
 866 000c 0C020B40 		.word	1074463244
 867              		.cfi_endproc
 868              	.LFE22:
 869              		.size	CySysWdtReadToggleBit, .-CySysWdtReadToggleBit
 870              		.section	.text.CySysWdtReadMatch,"ax",%progbits
 871              		.align	1
 872              		.global	CySysWdtReadMatch
 873              		.code	16
 874              		.thumb_func
 875              		.type	CySysWdtReadMatch, %function
 876              	CySysWdtReadMatch:
 877              	.LFB23:
1485:.\Generated_Source\PSoC4/CyLib.c **** 
1486:.\Generated_Source\PSoC4/CyLib.c **** 
1487:.\Generated_Source\PSoC4/CyLib.c ****     /*******************************************************************************
ARM GAS  C:\Users\Pablo\AppData\Local\Temp\ccDGsedh.s 			page 43


1488:.\Generated_Source\PSoC4/CyLib.c ****     * Function Name: CySysWdtReadMatch
1489:.\Generated_Source\PSoC4/CyLib.c ****     ********************************************************************************
1490:.\Generated_Source\PSoC4/CyLib.c ****     *
1491:.\Generated_Source\PSoC4/CyLib.c ****     * Summary:
1492:.\Generated_Source\PSoC4/CyLib.c ****     *  Reads the WDT counter match comparison value.
1493:.\Generated_Source\PSoC4/CyLib.c ****     *
1494:.\Generated_Source\PSoC4/CyLib.c ****     * Parameters:
1495:.\Generated_Source\PSoC4/CyLib.c ****     *  counterNum: Valid range [0-1].  Number of the WDT counter.  Match values
1496:.\Generated_Source\PSoC4/CyLib.c ****     *               are not supported by counter 2.
1497:.\Generated_Source\PSoC4/CyLib.c ****     *
1498:.\Generated_Source\PSoC4/CyLib.c ****     * Return:
1499:.\Generated_Source\PSoC4/CyLib.c ****     *  16-bit match value.
1500:.\Generated_Source\PSoC4/CyLib.c ****     *
1501:.\Generated_Source\PSoC4/CyLib.c ****     *******************************************************************************/
1502:.\Generated_Source\PSoC4/CyLib.c ****     uint32 CySysWdtReadMatch(uint32 counterNum)
1503:.\Generated_Source\PSoC4/CyLib.c ****     {
 878              		.loc 1 1503 0
 879              		.cfi_startproc
 880              	.LVL64:
1504:.\Generated_Source\PSoC4/CyLib.c ****         CYASSERT((counterNum == CY_SYS_WDT_COUNTER0) ||
1505:.\Generated_Source\PSoC4/CyLib.c ****                  (counterNum == CY_SYS_WDT_COUNTER1));
1506:.\Generated_Source\PSoC4/CyLib.c **** 
1507:.\Generated_Source\PSoC4/CyLib.c ****         return ((uint32)(CY_SYS_WDT_MATCH_REG >> (counterNum * CY_SYS_WDT_CNT_MATCH_SHIFT)) & CY_SY
 881              		.loc 1 1507 0
 882 0000 024B     		ldr	r3, .L100
 883 0002 0001     		lsl	r0, r0, #4
 884              	.LVL65:
 885 0004 1B68     		ldr	r3, [r3]
1508:.\Generated_Source\PSoC4/CyLib.c ****     }
 886              		.loc 1 1508 0
 887              		@ sp needed
1507:.\Generated_Source\PSoC4/CyLib.c ****         return ((uint32)(CY_SYS_WDT_MATCH_REG >> (counterNum * CY_SYS_WDT_CNT_MATCH_SHIFT)) & CY_SY
 888              		.loc 1 1507 0
 889 0006 C340     		lsr	r3, r3, r0
 890 0008 98B2     		uxth	r0, r3
 891              		.loc 1 1508 0
 892 000a 7047     		bx	lr
 893              	.L101:
 894              		.align	2
 895              	.L100:
 896 000c 08020B40 		.word	1074463240
 897              		.cfi_endproc
 898              	.LFE23:
 899              		.size	CySysWdtReadMatch, .-CySysWdtReadMatch
 900              		.section	.text.CySysWdtReadCount,"ax",%progbits
 901              		.align	1
 902              		.global	CySysWdtReadCount
 903              		.code	16
 904              		.thumb_func
 905              		.type	CySysWdtReadCount, %function
 906              	CySysWdtReadCount:
 907              	.LFB24:
1509:.\Generated_Source\PSoC4/CyLib.c **** 
1510:.\Generated_Source\PSoC4/CyLib.c **** 
1511:.\Generated_Source\PSoC4/CyLib.c ****     /*******************************************************************************
1512:.\Generated_Source\PSoC4/CyLib.c ****     * Function Name: CySysWdtReadCount
1513:.\Generated_Source\PSoC4/CyLib.c ****     ********************************************************************************
ARM GAS  C:\Users\Pablo\AppData\Local\Temp\ccDGsedh.s 			page 44


1514:.\Generated_Source\PSoC4/CyLib.c ****     *
1515:.\Generated_Source\PSoC4/CyLib.c ****     * Summary:
1516:.\Generated_Source\PSoC4/CyLib.c ****     *  Reads the current WDT counter value.
1517:.\Generated_Source\PSoC4/CyLib.c ****     *
1518:.\Generated_Source\PSoC4/CyLib.c ****     * Parameters:
1519:.\Generated_Source\PSoC4/CyLib.c ****     *  counterNum: Valid range [0-2].  Number of the WDT counter.
1520:.\Generated_Source\PSoC4/CyLib.c ****     *
1521:.\Generated_Source\PSoC4/CyLib.c ****     * Return:
1522:.\Generated_Source\PSoC4/CyLib.c ****     *  Live counter value.  Counter 0 and 1 are 16 bit counters and counter
1523:.\Generated_Source\PSoC4/CyLib.c ****     *  2 is a 32 bit counter.
1524:.\Generated_Source\PSoC4/CyLib.c ****     *
1525:.\Generated_Source\PSoC4/CyLib.c ****     *******************************************************************************/
1526:.\Generated_Source\PSoC4/CyLib.c ****     uint32 CySysWdtReadCount(uint32 counterNum)
1527:.\Generated_Source\PSoC4/CyLib.c ****     {
 908              		.loc 1 1527 0
 909              		.cfi_startproc
 910              	.LVL66:
1528:.\Generated_Source\PSoC4/CyLib.c ****         uint32 regValue = 0u;
1529:.\Generated_Source\PSoC4/CyLib.c **** 
1530:.\Generated_Source\PSoC4/CyLib.c ****         switch(counterNum)
 911              		.loc 1 1530 0
 912 0000 0128     		cmp	r0, #1
 913 0002 0AD0     		beq	.L104
 914 0004 0028     		cmp	r0, #0
 915 0006 04D0     		beq	.L105
 916 0008 0228     		cmp	r0, #2
 917 000a 0AD1     		bne	.L109
1531:.\Generated_Source\PSoC4/CyLib.c ****         {
1532:.\Generated_Source\PSoC4/CyLib.c ****             /* WDT Counter 0 */
1533:.\Generated_Source\PSoC4/CyLib.c ****             case 0u:
1534:.\Generated_Source\PSoC4/CyLib.c ****                 regValue = CY_SYS_WDT_CTRLOW_REG & CY_SYS_WDT_LOWER_16BITS_MASK;
1535:.\Generated_Source\PSoC4/CyLib.c ****             break;
1536:.\Generated_Source\PSoC4/CyLib.c **** 
1537:.\Generated_Source\PSoC4/CyLib.c ****             /* WDT Counter 1 */
1538:.\Generated_Source\PSoC4/CyLib.c ****             case 1u:
1539:.\Generated_Source\PSoC4/CyLib.c ****                 regValue = (CY_SYS_WDT_CTRLOW_REG >> CY_SYS_WDT_CNT_MATCH_SHIFT) & CY_SYS_WDT_LOWER
1540:.\Generated_Source\PSoC4/CyLib.c ****             break;
1541:.\Generated_Source\PSoC4/CyLib.c **** 
1542:.\Generated_Source\PSoC4/CyLib.c ****             /* WDT Counter 2 */
1543:.\Generated_Source\PSoC4/CyLib.c ****             case 2u:
1544:.\Generated_Source\PSoC4/CyLib.c ****                 regValue = CY_SYS_WDT_CTRHIGH_REG;
 918              		.loc 1 1544 0
 919 000c 064B     		ldr	r3, .L110
 920 000e 1868     		ldr	r0, [r3]
 921              	.LVL67:
1545:.\Generated_Source\PSoC4/CyLib.c ****             break;
 922              		.loc 1 1545 0
 923 0010 08E0     		b	.L103
 924              	.LVL68:
 925              	.L105:
1534:.\Generated_Source\PSoC4/CyLib.c ****                 regValue = CY_SYS_WDT_CTRLOW_REG & CY_SYS_WDT_LOWER_16BITS_MASK;
 926              		.loc 1 1534 0
 927 0012 064B     		ldr	r3, .L110+4
 928 0014 1868     		ldr	r0, [r3]
 929              	.LVL69:
 930 0016 80B2     		uxth	r0, r0
 931              	.LVL70:
ARM GAS  C:\Users\Pablo\AppData\Local\Temp\ccDGsedh.s 			page 45


1535:.\Generated_Source\PSoC4/CyLib.c ****             break;
 932              		.loc 1 1535 0
 933 0018 04E0     		b	.L103
 934              	.LVL71:
 935              	.L104:
1539:.\Generated_Source\PSoC4/CyLib.c ****                 regValue = (CY_SYS_WDT_CTRLOW_REG >> CY_SYS_WDT_CNT_MATCH_SHIFT) & CY_SYS_WDT_LOWER
 936              		.loc 1 1539 0
 937 001a 044B     		ldr	r3, .L110+4
 938 001c 1868     		ldr	r0, [r3]
 939              	.LVL72:
 940 001e 000C     		lsr	r0, r0, #16
 941              	.LVL73:
1540:.\Generated_Source\PSoC4/CyLib.c ****             break;
 942              		.loc 1 1540 0
 943 0020 00E0     		b	.L103
 944              	.LVL74:
 945              	.L109:
1528:.\Generated_Source\PSoC4/CyLib.c ****         uint32 regValue = 0u;
 946              		.loc 1 1528 0
 947 0022 0020     		mov	r0, #0
 948              	.LVL75:
 949              	.L103:
1546:.\Generated_Source\PSoC4/CyLib.c **** 
1547:.\Generated_Source\PSoC4/CyLib.c ****             default:
1548:.\Generated_Source\PSoC4/CyLib.c ****                 CYASSERT(0u != 0u);
1549:.\Generated_Source\PSoC4/CyLib.c ****             break;
1550:.\Generated_Source\PSoC4/CyLib.c ****         }
1551:.\Generated_Source\PSoC4/CyLib.c **** 
1552:.\Generated_Source\PSoC4/CyLib.c ****         return (regValue);
1553:.\Generated_Source\PSoC4/CyLib.c ****     }
 950              		.loc 1 1553 0
 951              		@ sp needed
 952 0024 7047     		bx	lr
 953              	.L111:
 954 0026 C046     		.align	2
 955              	.L110:
 956 0028 04020B40 		.word	1074463236
 957 002c 00020B40 		.word	1074463232
 958              		.cfi_endproc
 959              	.LFE24:
 960              		.size	CySysWdtReadCount, .-CySysWdtReadCount
 961              		.section	.text.CySysClkIloStop,"ax",%progbits
 962              		.align	1
 963              		.global	CySysClkIloStop
 964              		.code	16
 965              		.thumb_func
 966              		.type	CySysClkIloStop, %function
 967              	CySysClkIloStop:
 968              	.LFB3:
 159:.\Generated_Source\PSoC4/CyLib.c **** {
 969              		.loc 1 159 0
 970              		.cfi_startproc
 971 0000 F7B5     		push	{r0, r1, r2, r4, r5, r6, r7, lr}
 972              		.cfi_def_cfa_offset 32
 973              		.cfi_offset 0, -32
 974              		.cfi_offset 1, -28
 975              		.cfi_offset 2, -24
ARM GAS  C:\Users\Pablo\AppData\Local\Temp\ccDGsedh.s 			page 46


 976              		.cfi_offset 4, -20
 977              		.cfi_offset 5, -16
 978              		.cfi_offset 6, -12
 979              		.cfi_offset 7, -8
 980              		.cfi_offset 14, -4
 981              	.LBB74:
 982              	.LBB75:
 995:.\Generated_Source\PSoC4/CyLib.c ****         return ((0u != (CY_SYS_CLK_SELECT_REG & (uint32)(CY_SYS_WDT_CLK_LOCK_BITS_MASK))) ? (uint32
 983              		.loc 1 995 0
 984 0002 274B     		ldr	r3, .L129
 985 0004 1A68     		ldr	r2, [r3]
 986 0006 C023     		mov	r3, #192
 987 0008 1B02     		lsl	r3, r3, #8
 988 000a 1A40     		and	r2, r3
 989 000c 0092     		str	r2, [sp]
 990 000e 46D1     		bne	.L112
 991              	.LBE75:
 992              	.LBE74:
 993              	.LBB76:
 994              	.LBB77:
 213:.\Generated_Source\PSoC4/CyLib.c ****         return ((0u != (CY_SYS_CLK_ILO_CONFIG_REG & (uint32)(CY_SYS_CLK_ILO_CONFIG_ENABLE))) ?
 995              		.loc 1 213 0
 996 0010 244F     		ldr	r7, .L129+4
 997 0012 3B68     		ldr	r3, [r7]
 214:.\Generated_Source\PSoC4/CyLib.c ****             (uint32) 1u :
 998              		.loc 1 214 0
 999 0014 002B     		cmp	r3, #0
 1000 0016 42DA     		bge	.L112
 1001              	.LBE77:
 1002              	.LBE76:
 174:.\Generated_Source\PSoC4/CyLib.c ****                 interruptState = CyEnterCriticalSection();
 1003              		.loc 1 174 0
 1004 0018 FFF7FEFF 		bl	CyEnterCriticalSection
 1005              	.LVL76:
 1006              	.LBB78:
 1007              	.LBB79:
 1008              	.LBB80:
 1009              	.LBB81:
1053:.\Generated_Source\PSoC4/CyLib.c ****         return ((CY_SYS_WDT_CONTROL_REG >> ((CY_SYS_WDT_CNT_SHIFT * counterNum) + CY_SYS_WDT_CNT_ST
 1010              		.loc 1 1053 0
 1011 001c 224E     		ldr	r6, .L129+8
 1012              	.LBE81:
 1013              	.LBE80:
 1014              	.LBE79:
 1015              	.LBE78:
 174:.\Generated_Source\PSoC4/CyLib.c ****                 interruptState = CyEnterCriticalSection();
 1016              		.loc 1 174 0
 1017 001e 0190     		str	r0, [sp, #4]
 1018              	.LVL77:
 1019              	.LBB93:
 1020              	.LBB92:
 1021              	.LBB83:
 1022              	.LBB82:
1053:.\Generated_Source\PSoC4/CyLib.c ****         return ((CY_SYS_WDT_CONTROL_REG >> ((CY_SYS_WDT_CNT_SHIFT * counterNum) + CY_SYS_WDT_CNT_ST
 1023              		.loc 1 1053 0
 1024 0020 3368     		ldr	r3, [r6]
 1025 0022 0125     		mov	r5, #1
ARM GAS  C:\Users\Pablo\AppData\Local\Temp\ccDGsedh.s 			page 47


 1026 0024 214C     		ldr	r4, .L129+12
 1027              	.LBE82:
 1028              	.LBE83:
1554:.\Generated_Source\PSoC4/CyLib.c **** 
1555:.\Generated_Source\PSoC4/CyLib.c **** 
1556:.\Generated_Source\PSoC4/CyLib.c ****     /*******************************************************************************
1557:.\Generated_Source\PSoC4/CyLib.c ****     * Function Name: CySysWdtGetInterruptSource
1558:.\Generated_Source\PSoC4/CyLib.c ****     ********************************************************************************
1559:.\Generated_Source\PSoC4/CyLib.c ****     *
1560:.\Generated_Source\PSoC4/CyLib.c ****     * Summary:
1561:.\Generated_Source\PSoC4/CyLib.c ****     *   Reads a mask containing all the WDT counters interrupts that are currently
1562:.\Generated_Source\PSoC4/CyLib.c ****     *   set by the hardware, if a corresponding mode is selected.
1563:.\Generated_Source\PSoC4/CyLib.c ****     *
1564:.\Generated_Source\PSoC4/CyLib.c ****     * Parameters:
1565:.\Generated_Source\PSoC4/CyLib.c ****     *   None
1566:.\Generated_Source\PSoC4/CyLib.c ****     *
1567:.\Generated_Source\PSoC4/CyLib.c ****     * Return:
1568:.\Generated_Source\PSoC4/CyLib.c ****     *   Mask of interrupts set.
1569:.\Generated_Source\PSoC4/CyLib.c ****     *   Define                    Counter
1570:.\Generated_Source\PSoC4/CyLib.c ****     *   CY_SYS_WDT_COUNTER0_INT    0
1571:.\Generated_Source\PSoC4/CyLib.c ****     *   CY_SYS_WDT_COUNTER1_INT    1
1572:.\Generated_Source\PSoC4/CyLib.c ****     *   CY_SYS_WDT_COUNTER2_INT    2
1573:.\Generated_Source\PSoC4/CyLib.c ****     *
1574:.\Generated_Source\PSoC4/CyLib.c ****     *******************************************************************************/
1575:.\Generated_Source\PSoC4/CyLib.c ****     uint32 CySysWdtGetInterruptSource(void)
1576:.\Generated_Source\PSoC4/CyLib.c ****     {
1577:.\Generated_Source\PSoC4/CyLib.c ****         return (CY_SYS_WDT_CONTROL_REG & (CY_SYS_WDT_COUNTER0_INT | CY_SYS_WDT_COUNTER1_INT | CY_SY
1578:.\Generated_Source\PSoC4/CyLib.c ****     }
1579:.\Generated_Source\PSoC4/CyLib.c **** 
1580:.\Generated_Source\PSoC4/CyLib.c **** 
1581:.\Generated_Source\PSoC4/CyLib.c ****     /*******************************************************************************
1582:.\Generated_Source\PSoC4/CyLib.c ****     * Function Name: CySysWdtClearInterrupt
1583:.\Generated_Source\PSoC4/CyLib.c ****     ********************************************************************************
1584:.\Generated_Source\PSoC4/CyLib.c ****     *
1585:.\Generated_Source\PSoC4/CyLib.c ****     * Summary:
1586:.\Generated_Source\PSoC4/CyLib.c ****     *   Clears all the WDT counter interrupts set in the mask. Calling this function
1587:.\Generated_Source\PSoC4/CyLib.c ****     *   also prevents Reset from happening when the counter mode is set to generate
1588:.\Generated_Source\PSoC4/CyLib.c ****     *   3 interrupts and then reset the device.
1589:.\Generated_Source\PSoC4/CyLib.c ****     *
1590:.\Generated_Source\PSoC4/CyLib.c ****     *   All the WDT interrupts are to be cleared by the firmware, otherwise interrupts
1591:.\Generated_Source\PSoC4/CyLib.c ****     *   will be generated continuously.
1592:.\Generated_Source\PSoC4/CyLib.c ****     *
1593:.\Generated_Source\PSoC4/CyLib.c ****     * Parameters:
1594:.\Generated_Source\PSoC4/CyLib.c ****     *   counterMask: Mask of all counters to enable
1595:.\Generated_Source\PSoC4/CyLib.c ****     *   Define                    Counter
1596:.\Generated_Source\PSoC4/CyLib.c ****     *   CY_SYS_WDT_COUNTER0_INT    0
1597:.\Generated_Source\PSoC4/CyLib.c ****     *   CY_SYS_WDT_COUNTER1_INT    1
1598:.\Generated_Source\PSoC4/CyLib.c ****     *   CY_SYS_WDT_COUNTER2_INT    2
1599:.\Generated_Source\PSoC4/CyLib.c ****     *
1600:.\Generated_Source\PSoC4/CyLib.c ****     * Return:
1601:.\Generated_Source\PSoC4/CyLib.c ****     *   None
1602:.\Generated_Source\PSoC4/CyLib.c ****     *
1603:.\Generated_Source\PSoC4/CyLib.c ****     * Side effects:
1604:.\Generated_Source\PSoC4/CyLib.c ****     *   This function temporary removes the watchdog lock, if it was set, and
1605:.\Generated_Source\PSoC4/CyLib.c ****     *   restores the lock state, after cleaning the WDT interrupts, that are set in
1606:.\Generated_Source\PSoC4/CyLib.c ****     *   a mask.
1607:.\Generated_Source\PSoC4/CyLib.c ****     *
ARM GAS  C:\Users\Pablo\AppData\Local\Temp\ccDGsedh.s 			page 48


1608:.\Generated_Source\PSoC4/CyLib.c ****     *******************************************************************************/
1609:.\Generated_Source\PSoC4/CyLib.c ****     void CySysWdtClearInterrupt(uint32 counterMask)
1610:.\Generated_Source\PSoC4/CyLib.c ****     {
1611:.\Generated_Source\PSoC4/CyLib.c ****         uint8 interruptState;
1612:.\Generated_Source\PSoC4/CyLib.c ****         uint32 wdtLockState;
1613:.\Generated_Source\PSoC4/CyLib.c **** 
1614:.\Generated_Source\PSoC4/CyLib.c ****         interruptState = CyEnterCriticalSection();
1615:.\Generated_Source\PSoC4/CyLib.c **** 
1616:.\Generated_Source\PSoC4/CyLib.c ****         if (0u != CySysWdtLocked())
1617:.\Generated_Source\PSoC4/CyLib.c ****         {
1618:.\Generated_Source\PSoC4/CyLib.c ****             wdtLockState = 1u;
1619:.\Generated_Source\PSoC4/CyLib.c ****             CySysWdtUnlock();
1620:.\Generated_Source\PSoC4/CyLib.c ****         }
1621:.\Generated_Source\PSoC4/CyLib.c ****         else
1622:.\Generated_Source\PSoC4/CyLib.c ****         {
1623:.\Generated_Source\PSoC4/CyLib.c ****             wdtLockState = 0u;
1624:.\Generated_Source\PSoC4/CyLib.c ****         }
1625:.\Generated_Source\PSoC4/CyLib.c **** 
1626:.\Generated_Source\PSoC4/CyLib.c ****         /* Set new WDT control register value */
1627:.\Generated_Source\PSoC4/CyLib.c ****         counterMask &= (CY_SYS_WDT_COUNTER0_INT |
1628:.\Generated_Source\PSoC4/CyLib.c ****                         CY_SYS_WDT_COUNTER1_INT |
1629:.\Generated_Source\PSoC4/CyLib.c ****                         CY_SYS_WDT_COUNTER2_INT);
1630:.\Generated_Source\PSoC4/CyLib.c **** 
1631:.\Generated_Source\PSoC4/CyLib.c ****         CY_SYS_WDT_CONTROL_REG = counterMask | (CY_SYS_WDT_CONTROL_REG & ~(CY_SYS_WDT_COUNTER0_INT 
1632:.\Generated_Source\PSoC4/CyLib.c ****                                                                            CY_SYS_WDT_COUNTER1_INT 
1633:.\Generated_Source\PSoC4/CyLib.c ****                                                                            CY_SYS_WDT_COUNTER2_INT)
1634:.\Generated_Source\PSoC4/CyLib.c **** 
1635:.\Generated_Source\PSoC4/CyLib.c ****         if (1u == wdtLockState)
1636:.\Generated_Source\PSoC4/CyLib.c ****         {
1637:.\Generated_Source\PSoC4/CyLib.c ****             CySysWdtLock();
1638:.\Generated_Source\PSoC4/CyLib.c ****         }
1639:.\Generated_Source\PSoC4/CyLib.c **** 
1640:.\Generated_Source\PSoC4/CyLib.c ****         CyExitCriticalSection(interruptState);
1641:.\Generated_Source\PSoC4/CyLib.c ****     }
1642:.\Generated_Source\PSoC4/CyLib.c **** 
1643:.\Generated_Source\PSoC4/CyLib.c **** 
1644:.\Generated_Source\PSoC4/CyLib.c ****     /*******************************************************************************
1645:.\Generated_Source\PSoC4/CyLib.c ****     * Function Name: CySysWdtResetCounters
1646:.\Generated_Source\PSoC4/CyLib.c ****     ********************************************************************************
1647:.\Generated_Source\PSoC4/CyLib.c ****     *
1648:.\Generated_Source\PSoC4/CyLib.c ****     * Summary:
1649:.\Generated_Source\PSoC4/CyLib.c ****     *  Resets all WDT counters set in the mask.
1650:.\Generated_Source\PSoC4/CyLib.c ****     *
1651:.\Generated_Source\PSoC4/CyLib.c ****     * Parameters:
1652:.\Generated_Source\PSoC4/CyLib.c ****     *  counterMask: Mask of all counters to reset.
1653:.\Generated_Source\PSoC4/CyLib.c ****     *   Define                       Counter
1654:.\Generated_Source\PSoC4/CyLib.c ****     *   CY_SYS_WDT_COUNTER0_RESET    0
1655:.\Generated_Source\PSoC4/CyLib.c ****     *   CY_SYS_WDT_COUNTER1_RESET    1
1656:.\Generated_Source\PSoC4/CyLib.c ****     *   CY_SYS_WDT_COUNTER2_RESET    2
1657:.\Generated_Source\PSoC4/CyLib.c ****     *
1658:.\Generated_Source\PSoC4/CyLib.c ****     * Return:
1659:.\Generated_Source\PSoC4/CyLib.c ****     *   None
1660:.\Generated_Source\PSoC4/CyLib.c ****     *
1661:.\Generated_Source\PSoC4/CyLib.c ****     * Side effects:
1662:.\Generated_Source\PSoC4/CyLib.c ****     *   This function will not reset counter values if the Watchdog is locked.
1663:.\Generated_Source\PSoC4/CyLib.c ****     *
1664:.\Generated_Source\PSoC4/CyLib.c ****     *******************************************************************************/
ARM GAS  C:\Users\Pablo\AppData\Local\Temp\ccDGsedh.s 			page 49


1665:.\Generated_Source\PSoC4/CyLib.c ****     void CySysWdtResetCounters(uint32 countersMask)
1666:.\Generated_Source\PSoC4/CyLib.c ****     {
1667:.\Generated_Source\PSoC4/CyLib.c ****         /* Set new WDT reset value */
1668:.\Generated_Source\PSoC4/CyLib.c ****         CY_SYS_WDT_CONTROL_REG |= (countersMask & (CY_SYS_WDT_COUNTER0_RESET |
1669:.\Generated_Source\PSoC4/CyLib.c ****             CY_SYS_WDT_COUNTER1_RESET | CY_SYS_WDT_COUNTER2_RESET));
1670:.\Generated_Source\PSoC4/CyLib.c ****     }
1671:.\Generated_Source\PSoC4/CyLib.c **** 
1672:.\Generated_Source\PSoC4/CyLib.c **** 
1673:.\Generated_Source\PSoC4/CyLib.c ****     /*******************************************************************************
1674:.\Generated_Source\PSoC4/CyLib.c ****     * Function Name: CySysClkLfclkPosedgeCatch
1675:.\Generated_Source\PSoC4/CyLib.c ****     ********************************************************************************
1676:.\Generated_Source\PSoC4/CyLib.c ****     *
1677:.\Generated_Source\PSoC4/CyLib.c ****     * Summary:
1678:.\Generated_Source\PSoC4/CyLib.c ****     *  Returns once LFCLK positive edge occurred.
1679:.\Generated_Source\PSoC4/CyLib.c ****     *
1680:.\Generated_Source\PSoC4/CyLib.c ****     *  The CySysClkLfclkPosedgeRestore() should be called after this function in
1681:.\Generated_Source\PSoC4/CyLib.c ****     *  order to restore WDT configuration.
1682:.\Generated_Source\PSoC4/CyLib.c ****     *
1683:.\Generated_Source\PSoC4/CyLib.c ****     *  The pair of the CySysClkLfclkPosedgeCatch() and CySysClkLfclkPosedgeRestore()
1684:.\Generated_Source\PSoC4/CyLib.c ****     *  functions expected to be called inside of a critical section.
1685:.\Generated_Source\PSoC4/CyLib.c ****     *
1686:.\Generated_Source\PSoC4/CyLib.c ****     *  To ensure that the WDT counter value is read until it changes. The enabled
1687:.\Generated_Source\PSoC4/CyLib.c ****     *  WDT counter is used for that purpose. If no counters are enabled, the counter
1688:.\Generated_Source\PSoC4/CyLib.c ****     *  0 is enabled. And after LFCLK source is switched, the counter 0 configuration
1689:.\Generated_Source\PSoC4/CyLib.c ****     *  is restored back.
1690:.\Generated_Source\PSoC4/CyLib.c ****     *
1691:.\Generated_Source\PSoC4/CyLib.c ****     *  Not applicable for the PSoC 4000 devices.
1692:.\Generated_Source\PSoC4/CyLib.c ****     *
1693:.\Generated_Source\PSoC4/CyLib.c ****     * Parameters:
1694:.\Generated_Source\PSoC4/CyLib.c ****     *  None
1695:.\Generated_Source\PSoC4/CyLib.c ****     *
1696:.\Generated_Source\PSoC4/CyLib.c ****     * Return:
1697:.\Generated_Source\PSoC4/CyLib.c ****     *  None
1698:.\Generated_Source\PSoC4/CyLib.c ****     *
1699:.\Generated_Source\PSoC4/CyLib.c ****     * Side Effects:
1700:.\Generated_Source\PSoC4/CyLib.c ****     *  This function will have no effect if the WDT is locked (CySysWdtLock() is
1701:.\Generated_Source\PSoC4/CyLib.c ****     *  called). Call CySysWdtUnlock() to unlock the WDT.
1702:.\Generated_Source\PSoC4/CyLib.c ****     *
1703:.\Generated_Source\PSoC4/CyLib.c ****     *******************************************************************************/
1704:.\Generated_Source\PSoC4/CyLib.c ****     static void CySysClkLfclkPosedgeCatch(void)
1705:.\Generated_Source\PSoC4/CyLib.c ****     {
1706:.\Generated_Source\PSoC4/CyLib.c ****         uint32 firstCount;
1707:.\Generated_Source\PSoC4/CyLib.c **** 
1708:.\Generated_Source\PSoC4/CyLib.c ****         if (0u != CySysWdtReadEnabledStatus(CY_SYS_WDT_COUNTER0))
 1029              		.loc 1 1708 0
 1030 0026 9A07     		lsl	r2, r3, #30
 1031 0028 02D5     		bpl	.L128
1709:.\Generated_Source\PSoC4/CyLib.c ****         {
1710:.\Generated_Source\PSoC4/CyLib.c ****             lfclkPosedgeEnabledWdtCounter = CY_SYS_WDT_COUNTER0;
 1032              		.loc 1 1710 0
 1033 002a 009A     		ldr	r2, [sp]
 1034 002c 2260     		str	r2, [r4]
 1035 002e 19E0     		b	.L115
 1036              	.L128:
 1037              	.LVL78:
 1038              	.LBB84:
 1039              	.LBB85:
ARM GAS  C:\Users\Pablo\AppData\Local\Temp\ccDGsedh.s 			page 50


1053:.\Generated_Source\PSoC4/CyLib.c ****         return ((CY_SYS_WDT_CONTROL_REG >> ((CY_SYS_WDT_CNT_SHIFT * counterNum) + CY_SYS_WDT_CNT_ST
 1040              		.loc 1 1053 0
 1041 0030 3368     		ldr	r3, [r6]
 1042 0032 5B0A     		lsr	r3, r3, #9
 1043              	.LBE85:
 1044              	.LBE84:
1711:.\Generated_Source\PSoC4/CyLib.c ****         }
1712:.\Generated_Source\PSoC4/CyLib.c ****         else if (0u != CySysWdtReadEnabledStatus(CY_SYS_WDT_COUNTER1))
 1045              		.loc 1 1712 0
 1046 0034 2B42     		tst	r3, r5
 1047 0036 01D0     		beq	.L116
1713:.\Generated_Source\PSoC4/CyLib.c ****         {
1714:.\Generated_Source\PSoC4/CyLib.c ****             lfclkPosedgeEnabledWdtCounter = CY_SYS_WDT_COUNTER1;
 1048              		.loc 1 1714 0
 1049 0038 2560     		str	r5, [r4]
 1050 003a 13E0     		b	.L115
 1051              	.L116:
 1052              	.LVL79:
 1053              	.LBB86:
 1054              	.LBB87:
1053:.\Generated_Source\PSoC4/CyLib.c ****         return ((CY_SYS_WDT_CONTROL_REG >> ((CY_SYS_WDT_CNT_SHIFT * counterNum) + CY_SYS_WDT_CNT_ST
 1055              		.loc 1 1053 0
 1056 003c 3168     		ldr	r1, [r6]
 1057 003e 490C     		lsr	r1, r1, #17
 1058 0040 2940     		and	r1, r5
 1059              	.LBE87:
 1060              	.LBE86:
1715:.\Generated_Source\PSoC4/CyLib.c ****         }
1716:.\Generated_Source\PSoC4/CyLib.c ****         else if (0u != CySysWdtReadEnabledStatus(CY_SYS_WDT_COUNTER2))
 1061              		.loc 1 1716 0
 1062 0042 02D0     		beq	.L117
1717:.\Generated_Source\PSoC4/CyLib.c ****         {
1718:.\Generated_Source\PSoC4/CyLib.c ****             lfclkPosedgeEnabledWdtCounter = CY_SYS_WDT_COUNTER2;
 1063              		.loc 1 1718 0
 1064 0044 0223     		mov	r3, #2
 1065 0046 2360     		str	r3, [r4]
 1066 0048 0CE0     		b	.L115
 1067              	.L117:
 1068              	.LBB88:
 1069              	.LBB89:
1119:.\Generated_Source\PSoC4/CyLib.c ****         return ((CY_SYS_WDT_CONFIG_REG >> (counterNum * CY_SYS_WDT_CNT_SHIFT)) & CY_SYS_WDT_MODE_MA
 1070              		.loc 1 1119 0
 1071 004a 194B     		ldr	r3, .L129+16
 1072              	.LBE89:
 1073              	.LBE88:
1719:.\Generated_Source\PSoC4/CyLib.c ****         }
1720:.\Generated_Source\PSoC4/CyLib.c ****         else /* All WDT counters are disabled */
1721:.\Generated_Source\PSoC4/CyLib.c ****         {
1722:.\Generated_Source\PSoC4/CyLib.c ****             /* Configure WDT counter # 0 */
1723:.\Generated_Source\PSoC4/CyLib.c ****             lfclkPosedgeWdtCounter0Enabled = 1u;
 1074              		.loc 1 1723 0
 1075 004c 6560     		str	r5, [r4, #4]
1724:.\Generated_Source\PSoC4/CyLib.c ****             lfclkPosedgeEnabledWdtCounter = CY_SYS_WDT_COUNTER0;
 1076              		.loc 1 1724 0
 1077 004e 2160     		str	r1, [r4]
 1078              	.LVL80:
 1079              	.LBB91:
ARM GAS  C:\Users\Pablo\AppData\Local\Temp\ccDGsedh.s 			page 51


 1080              	.LBB90:
1119:.\Generated_Source\PSoC4/CyLib.c ****         return ((CY_SYS_WDT_CONFIG_REG >> (counterNum * CY_SYS_WDT_CNT_SHIFT)) & CY_SYS_WDT_MODE_MA
 1081              		.loc 1 1119 0
 1082 0050 1A68     		ldr	r2, [r3]
 1083 0052 0323     		mov	r3, #3
 1084 0054 1340     		and	r3, r2
 1085              	.LBE90:
 1086              	.LBE91:
1725:.\Generated_Source\PSoC4/CyLib.c **** 
1726:.\Generated_Source\PSoC4/CyLib.c ****             lfclkPosedgeWdtCounter0Mode = CySysWdtReadMode(CY_SYS_WDT_COUNTER0);
1727:.\Generated_Source\PSoC4/CyLib.c ****             CySysWdtWriteMode(CY_SYS_WDT_COUNTER0, CY_SYS_WDT_MODE_NONE);
 1087              		.loc 1 1727 0
 1088 0056 081C     		mov	r0, r1
1726:.\Generated_Source\PSoC4/CyLib.c ****             lfclkPosedgeWdtCounter0Mode = CySysWdtReadMode(CY_SYS_WDT_COUNTER0);
 1089              		.loc 1 1726 0
 1090 0058 A360     		str	r3, [r4, #8]
 1091              		.loc 1 1727 0
 1092 005a FFF7FEFF 		bl	CySysWdtWriteMode
 1093              	.LVL81:
1728:.\Generated_Source\PSoC4/CyLib.c ****             CySysWdtEnable(CY_SYS_WDT_COUNTER0_MASK);
 1094              		.loc 1 1728 0
 1095 005e 281C     		mov	r0, r5
 1096 0060 FFF7FEFF 		bl	CySysWdtEnable
 1097              	.LVL82:
 1098              	.L115:
1729:.\Generated_Source\PSoC4/CyLib.c ****         }
1730:.\Generated_Source\PSoC4/CyLib.c **** 
1731:.\Generated_Source\PSoC4/CyLib.c ****         firstCount = CySysWdtReadCount(lfclkPosedgeEnabledWdtCounter);
 1099              		.loc 1 1731 0
 1100 0064 2068     		ldr	r0, [r4]
 1101 0066 FFF7FEFF 		bl	CySysWdtReadCount
 1102              	.LVL83:
 1103 006a 051C     		mov	r5, r0
 1104              	.LVL84:
 1105              	.L119:
1732:.\Generated_Source\PSoC4/CyLib.c ****         while (CySysWdtReadCount(lfclkPosedgeEnabledWdtCounter) == firstCount)
 1106              		.loc 1 1732 0
 1107 006c 2068     		ldr	r0, [r4]
 1108 006e FFF7FEFF 		bl	CySysWdtReadCount
 1109              	.LVL85:
 1110 0072 A842     		cmp	r0, r5
 1111 0074 FAD0     		beq	.L119
 1112              	.LBE92:
 1113              	.LBE93:
 176:.\Generated_Source\PSoC4/CyLib.c ****                 CY_SYS_CLK_ILO_CONFIG_REG &= ( uint32 ) ( ~( uint32 )CY_SYS_CLK_ILO_CONFIG_ENABLE);
 1114              		.loc 1 176 0
 1115 0076 3B68     		ldr	r3, [r7]
 1116 0078 5B00     		lsl	r3, r3, #1
 1117 007a 5B08     		lsr	r3, r3, #1
 1118 007c 3B60     		str	r3, [r7]
 1119              	.LBB94:
 1120              	.LBB95:
1733:.\Generated_Source\PSoC4/CyLib.c ****         {
1734:.\Generated_Source\PSoC4/CyLib.c ****             /* Wait for counter to increment */
1735:.\Generated_Source\PSoC4/CyLib.c ****         }
1736:.\Generated_Source\PSoC4/CyLib.c ****     }
1737:.\Generated_Source\PSoC4/CyLib.c **** 
ARM GAS  C:\Users\Pablo\AppData\Local\Temp\ccDGsedh.s 			page 52


1738:.\Generated_Source\PSoC4/CyLib.c **** 
1739:.\Generated_Source\PSoC4/CyLib.c ****     /*******************************************************************************
1740:.\Generated_Source\PSoC4/CyLib.c ****     * Function Name: CySysClkLfclkPosedgeRestore
1741:.\Generated_Source\PSoC4/CyLib.c ****     ********************************************************************************
1742:.\Generated_Source\PSoC4/CyLib.c ****     *
1743:.\Generated_Source\PSoC4/CyLib.c ****     * Summary:
1744:.\Generated_Source\PSoC4/CyLib.c ****     *  Restores WDT configuration after CySysClkLfclkPosedgeCatch() call.
1745:.\Generated_Source\PSoC4/CyLib.c ****     *
1746:.\Generated_Source\PSoC4/CyLib.c ****     *  The pair of the CySysClkLfclkPosedgeCatch() and CySysClkLfclkPosedgeRestore()
1747:.\Generated_Source\PSoC4/CyLib.c ****     *  functions expected to be called inside of a critical section.
1748:.\Generated_Source\PSoC4/CyLib.c ****     *
1749:.\Generated_Source\PSoC4/CyLib.c ****     *  Not applicable for the PSoC 4000 devices.
1750:.\Generated_Source\PSoC4/CyLib.c ****     *
1751:.\Generated_Source\PSoC4/CyLib.c ****     * Parameters:
1752:.\Generated_Source\PSoC4/CyLib.c ****     *  None
1753:.\Generated_Source\PSoC4/CyLib.c ****     *
1754:.\Generated_Source\PSoC4/CyLib.c ****     * Return:
1755:.\Generated_Source\PSoC4/CyLib.c ****     *  None
1756:.\Generated_Source\PSoC4/CyLib.c ****     *
1757:.\Generated_Source\PSoC4/CyLib.c ****     * Side Effects:
1758:.\Generated_Source\PSoC4/CyLib.c ****     *  This function will have no effect if the WDT is locked (CySysWdtLock() is
1759:.\Generated_Source\PSoC4/CyLib.c ****     *  called). Call CySysWdtUnlock() to unlock the WDT.
1760:.\Generated_Source\PSoC4/CyLib.c ****     *
1761:.\Generated_Source\PSoC4/CyLib.c ****     *******************************************************************************/
1762:.\Generated_Source\PSoC4/CyLib.c ****     static void CySysClkLfclkPosedgeRestore(void)
1763:.\Generated_Source\PSoC4/CyLib.c ****     {
1764:.\Generated_Source\PSoC4/CyLib.c ****         if (lfclkPosedgeWdtCounter0Enabled != 0u)
 1121              		.loc 1 1764 0
 1122 007e 6368     		ldr	r3, [r4, #4]
 1123 0080 002B     		cmp	r3, #0
 1124 0082 09D0     		beq	.L120
1765:.\Generated_Source\PSoC4/CyLib.c ****         {
1766:.\Generated_Source\PSoC4/CyLib.c ****             /* Restore counter # 0 configuration and force it's shutdown */
1767:.\Generated_Source\PSoC4/CyLib.c ****             CY_SYS_WDT_CONTROL_REG &= (uint32)(~CY_SYS_WDT_COUNTER0_MASK);
 1125              		.loc 1 1767 0
 1126 0084 3368     		ldr	r3, [r6]
 1127 0086 0122     		mov	r2, #1
 1128 0088 9343     		bic	r3, r2
 1129 008a 3360     		str	r3, [r6]
1768:.\Generated_Source\PSoC4/CyLib.c ****             CySysWdtWriteMode(CY_SYS_WDT_COUNTER0, lfclkPosedgeWdtCounter0Mode);
 1130              		.loc 1 1768 0
 1131 008c 0020     		mov	r0, #0
 1132 008e A168     		ldr	r1, [r4, #8]
 1133 0090 FFF7FEFF 		bl	CySysWdtWriteMode
 1134              	.LVL86:
1769:.\Generated_Source\PSoC4/CyLib.c ****             lfclkPosedgeWdtCounter0Enabled = 0u;
 1135              		.loc 1 1769 0
 1136 0094 0023     		mov	r3, #0
 1137 0096 6360     		str	r3, [r4, #4]
 1138              	.L120:
 1139              	.LBE95:
 1140              	.LBE94:
 178:.\Generated_Source\PSoC4/CyLib.c ****                 CyExitCriticalSection(interruptState);
 1141              		.loc 1 178 0
 1142 0098 0198     		ldr	r0, [sp, #4]
 1143 009a FFF7FEFF 		bl	CyExitCriticalSection
 1144              	.LVL87:
ARM GAS  C:\Users\Pablo\AppData\Local\Temp\ccDGsedh.s 			page 53


 1145              	.L112:
 193:.\Generated_Source\PSoC4/CyLib.c **** }
 1146              		.loc 1 193 0
 1147              		@ sp needed
 1148 009e F7BD     		pop	{r0, r1, r2, r4, r5, r6, r7, pc}
 1149              	.L130:
 1150              		.align	2
 1151              	.L129:
 1152 00a0 00010B40 		.word	1074462976
 1153 00a4 04010B40 		.word	1074462980
 1154 00a8 10020B40 		.word	1074463248
 1155 00ac 00000000 		.word	.LANCHOR0
 1156 00b0 0C020B40 		.word	1074463244
 1157              		.cfi_endproc
 1158              	.LFE3:
 1159              		.size	CySysClkIloStop, .-CySysClkIloStop
 1160              		.section	.text.CySysWdtGetInterruptSource,"ax",%progbits
 1161              		.align	1
 1162              		.global	CySysWdtGetInterruptSource
 1163              		.code	16
 1164              		.thumb_func
 1165              		.type	CySysWdtGetInterruptSource, %function
 1166              	CySysWdtGetInterruptSource:
 1167              	.LFB25:
1576:.\Generated_Source\PSoC4/CyLib.c ****     {
 1168              		.loc 1 1576 0
 1169              		.cfi_startproc
1577:.\Generated_Source\PSoC4/CyLib.c ****         return (CY_SYS_WDT_CONTROL_REG & (CY_SYS_WDT_COUNTER0_INT | CY_SYS_WDT_COUNTER1_INT | CY_SY
 1170              		.loc 1 1577 0
 1171 0000 024B     		ldr	r3, .L132
1578:.\Generated_Source\PSoC4/CyLib.c ****     }
 1172              		.loc 1 1578 0
 1173              		@ sp needed
1577:.\Generated_Source\PSoC4/CyLib.c ****         return (CY_SYS_WDT_CONTROL_REG & (CY_SYS_WDT_COUNTER0_INT | CY_SYS_WDT_COUNTER1_INT | CY_SY
 1174              		.loc 1 1577 0
 1175 0002 1868     		ldr	r0, [r3]
 1176 0004 024B     		ldr	r3, .L132+4
 1177 0006 1840     		and	r0, r3
1578:.\Generated_Source\PSoC4/CyLib.c ****     }
 1178              		.loc 1 1578 0
 1179 0008 7047     		bx	lr
 1180              	.L133:
 1181 000a C046     		.align	2
 1182              	.L132:
 1183 000c 10020B40 		.word	1074463248
 1184 0010 04040400 		.word	263172
 1185              		.cfi_endproc
 1186              	.LFE25:
 1187              		.size	CySysWdtGetInterruptSource, .-CySysWdtGetInterruptSource
 1188              		.section	.text.CySysWdtClearInterrupt,"ax",%progbits
 1189              		.align	1
 1190              		.global	CySysWdtClearInterrupt
 1191              		.code	16
 1192              		.thumb_func
 1193              		.type	CySysWdtClearInterrupt, %function
 1194              	CySysWdtClearInterrupt:
 1195              	.LFB26:
ARM GAS  C:\Users\Pablo\AppData\Local\Temp\ccDGsedh.s 			page 54


1610:.\Generated_Source\PSoC4/CyLib.c ****     {
 1196              		.loc 1 1610 0
 1197              		.cfi_startproc
 1198              	.LVL88:
 1199 0000 38B5     		push	{r3, r4, r5, lr}
 1200              		.cfi_def_cfa_offset 16
 1201              		.cfi_offset 3, -16
 1202              		.cfi_offset 4, -12
 1203              		.cfi_offset 5, -8
 1204              		.cfi_offset 14, -4
1610:.\Generated_Source\PSoC4/CyLib.c ****     {
 1205              		.loc 1 1610 0
 1206 0002 041C     		mov	r4, r0
1614:.\Generated_Source\PSoC4/CyLib.c ****         interruptState = CyEnterCriticalSection();
 1207              		.loc 1 1614 0
 1208 0004 FFF7FEFF 		bl	CyEnterCriticalSection
 1209              	.LVL89:
 1210              	.LBB98:
 1211              	.LBB99:
 995:.\Generated_Source\PSoC4/CyLib.c ****         return ((0u != (CY_SYS_CLK_SELECT_REG & (uint32)(CY_SYS_WDT_CLK_LOCK_BITS_MASK))) ? (uint32
 1212              		.loc 1 995 0
 1213 0008 0D4B     		ldr	r3, .L139
 1214              	.LBE99:
 1215              	.LBE98:
1614:.\Generated_Source\PSoC4/CyLib.c ****         interruptState = CyEnterCriticalSection();
 1216              		.loc 1 1614 0
 1217 000a 051C     		mov	r5, r0
 1218              	.LVL90:
 1219              	.LBB101:
 1220              	.LBB100:
 995:.\Generated_Source\PSoC4/CyLib.c ****         return ((0u != (CY_SYS_CLK_SELECT_REG & (uint32)(CY_SYS_WDT_CLK_LOCK_BITS_MASK))) ? (uint32
 1221              		.loc 1 995 0
 1222 000c 1A68     		ldr	r2, [r3]
 1223 000e C023     		mov	r3, #192
 1224 0010 1B02     		lsl	r3, r3, #8
 1225 0012 1340     		and	r3, r2
 1226 0014 0FD1     		bne	.L135
 1227              	.LVL91:
 1228              	.L137:
 1229              	.LBE100:
 1230              	.LBE101:
1631:.\Generated_Source\PSoC4/CyLib.c ****         CY_SYS_WDT_CONTROL_REG = counterMask | (CY_SYS_WDT_CONTROL_REG & ~(CY_SYS_WDT_COUNTER0_INT 
 1231              		.loc 1 1631 0
 1232 0016 0B4A     		ldr	r2, .L139+4
1627:.\Generated_Source\PSoC4/CyLib.c ****         counterMask &= (CY_SYS_WDT_COUNTER0_INT |
 1233              		.loc 1 1627 0
 1234 0018 0B49     		ldr	r1, .L139+8
1631:.\Generated_Source\PSoC4/CyLib.c ****         CY_SYS_WDT_CONTROL_REG = counterMask | (CY_SYS_WDT_CONTROL_REG & ~(CY_SYS_WDT_COUNTER0_INT 
 1235              		.loc 1 1631 0
 1236 001a 1068     		ldr	r0, [r2]
1627:.\Generated_Source\PSoC4/CyLib.c ****         counterMask &= (CY_SYS_WDT_COUNTER0_INT |
 1237              		.loc 1 1627 0
 1238 001c 0C40     		and	r4, r1
 1239              	.LVL92:
1631:.\Generated_Source\PSoC4/CyLib.c ****         CY_SYS_WDT_CONTROL_REG = counterMask | (CY_SYS_WDT_CONTROL_REG & ~(CY_SYS_WDT_COUNTER0_INT 
 1240              		.loc 1 1631 0
 1241 001e 0B49     		ldr	r1, .L139+12
ARM GAS  C:\Users\Pablo\AppData\Local\Temp\ccDGsedh.s 			page 55


 1242 0020 0140     		and	r1, r0
 1243 0022 0C43     		orr	r4, r1
 1244              	.LVL93:
 1245 0024 1460     		str	r4, [r2]
1635:.\Generated_Source\PSoC4/CyLib.c ****         if (1u == wdtLockState)
 1246              		.loc 1 1635 0
 1247 0026 012B     		cmp	r3, #1
 1248 0028 01D1     		bne	.L136
 1249              	.LVL94:
1637:.\Generated_Source\PSoC4/CyLib.c ****             CySysWdtLock();
 1250              		.loc 1 1637 0
 1251 002a FFF7FEFF 		bl	CySysWdtLock
 1252              	.LVL95:
 1253              	.L136:
1640:.\Generated_Source\PSoC4/CyLib.c ****         CyExitCriticalSection(interruptState);
 1254              		.loc 1 1640 0
 1255 002e 281C     		mov	r0, r5
 1256 0030 FFF7FEFF 		bl	CyExitCriticalSection
 1257              	.LVL96:
1641:.\Generated_Source\PSoC4/CyLib.c ****     }
 1258              		.loc 1 1641 0
 1259              		@ sp needed
 1260              	.LVL97:
 1261 0034 38BD     		pop	{r3, r4, r5, pc}
 1262              	.LVL98:
 1263              	.L135:
1619:.\Generated_Source\PSoC4/CyLib.c ****             CySysWdtUnlock();
 1264              		.loc 1 1619 0
 1265 0036 FFF7FEFF 		bl	CySysWdtUnlock
 1266              	.LVL99:
1618:.\Generated_Source\PSoC4/CyLib.c ****             wdtLockState = 1u;
 1267              		.loc 1 1618 0
 1268 003a 0123     		mov	r3, #1
 1269 003c EBE7     		b	.L137
 1270              	.L140:
 1271 003e C046     		.align	2
 1272              	.L139:
 1273 0040 00010B40 		.word	1074462976
 1274 0044 10020B40 		.word	1074463248
 1275 0048 04040400 		.word	263172
 1276 004c FBFBFBFF 		.word	-263173
 1277              		.cfi_endproc
 1278              	.LFE26:
 1279              		.size	CySysWdtClearInterrupt, .-CySysWdtClearInterrupt
 1280              		.section	.text.CySysWdtResetCounters,"ax",%progbits
 1281              		.align	1
 1282              		.global	CySysWdtResetCounters
 1283              		.code	16
 1284              		.thumb_func
 1285              		.type	CySysWdtResetCounters, %function
 1286              	CySysWdtResetCounters:
 1287              	.LFB27:
1666:.\Generated_Source\PSoC4/CyLib.c ****     {
 1288              		.loc 1 1666 0
 1289              		.cfi_startproc
 1290              	.LVL100:
1668:.\Generated_Source\PSoC4/CyLib.c ****         CY_SYS_WDT_CONTROL_REG |= (countersMask & (CY_SYS_WDT_COUNTER0_RESET |
ARM GAS  C:\Users\Pablo\AppData\Local\Temp\ccDGsedh.s 			page 56


 1291              		.loc 1 1668 0
 1292 0000 034B     		ldr	r3, .L142
 1293 0002 0449     		ldr	r1, .L142+4
 1294 0004 1A68     		ldr	r2, [r3]
 1295 0006 0840     		and	r0, r1
 1296              	.LVL101:
 1297 0008 1043     		orr	r0, r2
 1298 000a 1860     		str	r0, [r3]
1670:.\Generated_Source\PSoC4/CyLib.c ****     }
 1299              		.loc 1 1670 0
 1300              		@ sp needed
 1301 000c 7047     		bx	lr
 1302              	.L143:
 1303 000e C046     		.align	2
 1304              	.L142:
 1305 0010 10020B40 		.word	1074463248
 1306 0014 08080800 		.word	526344
 1307              		.cfi_endproc
 1308              	.LFE27:
 1309              		.size	CySysWdtResetCounters, .-CySysWdtResetCounters
 1310              		.section	.text.CySysLvdEnable,"ax",%progbits
 1311              		.align	1
 1312              		.global	CySysLvdEnable
 1313              		.code	16
 1314              		.thumb_func
 1315              		.type	CySysLvdEnable, %function
 1316              	CySysLvdEnable:
 1317              	.LFB30:
1770:.\Generated_Source\PSoC4/CyLib.c ****         }
1771:.\Generated_Source\PSoC4/CyLib.c ****     }
1772:.\Generated_Source\PSoC4/CyLib.c **** 
1773:.\Generated_Source\PSoC4/CyLib.c **** #else
1774:.\Generated_Source\PSoC4/CyLib.c **** 
1775:.\Generated_Source\PSoC4/CyLib.c ****     /*******************************************************************************
1776:.\Generated_Source\PSoC4/CyLib.c ****     * Function Name: CySysWdtReadEnabledStatus
1777:.\Generated_Source\PSoC4/CyLib.c ****     ********************************************************************************
1778:.\Generated_Source\PSoC4/CyLib.c ****     *
1779:.\Generated_Source\PSoC4/CyLib.c ****     * Summary:
1780:.\Generated_Source\PSoC4/CyLib.c ****     *  Reads the enabled status WDT counter.
1781:.\Generated_Source\PSoC4/CyLib.c ****     *
1782:.\Generated_Source\PSoC4/CyLib.c ****     * Parameters:
1783:.\Generated_Source\PSoC4/CyLib.c ****     *  None
1784:.\Generated_Source\PSoC4/CyLib.c ****     *
1785:.\Generated_Source\PSoC4/CyLib.c ****     * Return:
1786:.\Generated_Source\PSoC4/CyLib.c ****     *  Status of WDT counter:
1787:.\Generated_Source\PSoC4/CyLib.c ****     *   0 - counter is disabled
1788:.\Generated_Source\PSoC4/CyLib.c ****     *   1 - counter is enabled
1789:.\Generated_Source\PSoC4/CyLib.c ****     *
1790:.\Generated_Source\PSoC4/CyLib.c ****     *******************************************************************************/
1791:.\Generated_Source\PSoC4/CyLib.c ****     uint32 CySysWdtReadEnabledStatus(void)
1792:.\Generated_Source\PSoC4/CyLib.c ****     {
1793:.\Generated_Source\PSoC4/CyLib.c ****         return ((CY_SYS_WDT_DISABLE_KEY_REG == CY_SYS_WDT_KEY) ? (uint32) 0u : (uint32) 1u);
1794:.\Generated_Source\PSoC4/CyLib.c ****     }
1795:.\Generated_Source\PSoC4/CyLib.c **** 
1796:.\Generated_Source\PSoC4/CyLib.c **** 
1797:.\Generated_Source\PSoC4/CyLib.c ****     /*******************************************************************************
1798:.\Generated_Source\PSoC4/CyLib.c ****     * Function Name: CySysWdtEnable
ARM GAS  C:\Users\Pablo\AppData\Local\Temp\ccDGsedh.s 			page 57


1799:.\Generated_Source\PSoC4/CyLib.c ****     ********************************************************************************
1800:.\Generated_Source\PSoC4/CyLib.c ****     *
1801:.\Generated_Source\PSoC4/CyLib.c ****     * Summary:
1802:.\Generated_Source\PSoC4/CyLib.c ****     *  Enables the watchdog timer reset generation. The CySysWdtClearInterrupt()
1803:.\Generated_Source\PSoC4/CyLib.c ****     *  feeds the watch dog. Two unserviced interrupts will lead to a system reset
1804:.\Generated_Source\PSoC4/CyLib.c ****     *  (i.e. at the third match).
1805:.\Generated_Source\PSoC4/CyLib.c ****     *
1806:.\Generated_Source\PSoC4/CyLib.c ****     * Parameters:
1807:.\Generated_Source\PSoC4/CyLib.c ****     *  None
1808:.\Generated_Source\PSoC4/CyLib.c ****     *
1809:.\Generated_Source\PSoC4/CyLib.c ****     * Return:
1810:.\Generated_Source\PSoC4/CyLib.c ****     *  None
1811:.\Generated_Source\PSoC4/CyLib.c ****     *
1812:.\Generated_Source\PSoC4/CyLib.c ****     * Side Effects:
1813:.\Generated_Source\PSoC4/CyLib.c ****     *  The ILO is enabled by hardware once WDT is started.
1814:.\Generated_Source\PSoC4/CyLib.c ****     *
1815:.\Generated_Source\PSoC4/CyLib.c ****     *******************************************************************************/
1816:.\Generated_Source\PSoC4/CyLib.c ****     void CySysWdtEnable(void)
1817:.\Generated_Source\PSoC4/CyLib.c ****     {
1818:.\Generated_Source\PSoC4/CyLib.c ****         CY_SYS_WDT_DISABLE_KEY_REG = 0u;
1819:.\Generated_Source\PSoC4/CyLib.c ****     }
1820:.\Generated_Source\PSoC4/CyLib.c **** 
1821:.\Generated_Source\PSoC4/CyLib.c **** 
1822:.\Generated_Source\PSoC4/CyLib.c ****     /*******************************************************************************
1823:.\Generated_Source\PSoC4/CyLib.c ****     * Function Name: CySysWdtDisable
1824:.\Generated_Source\PSoC4/CyLib.c ****     ********************************************************************************
1825:.\Generated_Source\PSoC4/CyLib.c ****     *
1826:.\Generated_Source\PSoC4/CyLib.c ****     * Summary:
1827:.\Generated_Source\PSoC4/CyLib.c ****     *  Disables the WDT reset generation.
1828:.\Generated_Source\PSoC4/CyLib.c ****     *
1829:.\Generated_Source\PSoC4/CyLib.c ****     * Parameters:
1830:.\Generated_Source\PSoC4/CyLib.c ****     *  None
1831:.\Generated_Source\PSoC4/CyLib.c ****     *
1832:.\Generated_Source\PSoC4/CyLib.c ****     * Return:
1833:.\Generated_Source\PSoC4/CyLib.c ****     *  None
1834:.\Generated_Source\PSoC4/CyLib.c ****     *
1835:.\Generated_Source\PSoC4/CyLib.c ****     *******************************************************************************/
1836:.\Generated_Source\PSoC4/CyLib.c ****     void CySysWdtDisable(void)
1837:.\Generated_Source\PSoC4/CyLib.c ****     {
1838:.\Generated_Source\PSoC4/CyLib.c ****         CY_SYS_WDT_DISABLE_KEY_REG = CY_SYS_WDT_KEY;
1839:.\Generated_Source\PSoC4/CyLib.c ****     }
1840:.\Generated_Source\PSoC4/CyLib.c **** 
1841:.\Generated_Source\PSoC4/CyLib.c **** 
1842:.\Generated_Source\PSoC4/CyLib.c ****     /*******************************************************************************
1843:.\Generated_Source\PSoC4/CyLib.c ****     * Function Name: CySysWdtWriteMatch
1844:.\Generated_Source\PSoC4/CyLib.c ****     ********************************************************************************
1845:.\Generated_Source\PSoC4/CyLib.c ****     *
1846:.\Generated_Source\PSoC4/CyLib.c ****     * Summary:
1847:.\Generated_Source\PSoC4/CyLib.c ****     *  Configures the WDT counter match comparison value.
1848:.\Generated_Source\PSoC4/CyLib.c ****     *
1849:.\Generated_Source\PSoC4/CyLib.c ****     * Parameters:
1850:.\Generated_Source\PSoC4/CyLib.c ****     *  match:
1851:.\Generated_Source\PSoC4/CyLib.c ****     *   Valid range [0-65535]. Value to be used to match against the counter.
1852:.\Generated_Source\PSoC4/CyLib.c ****     *
1853:.\Generated_Source\PSoC4/CyLib.c ****     * Return:
1854:.\Generated_Source\PSoC4/CyLib.c ****     *  None
1855:.\Generated_Source\PSoC4/CyLib.c ****     *
ARM GAS  C:\Users\Pablo\AppData\Local\Temp\ccDGsedh.s 			page 58


1856:.\Generated_Source\PSoC4/CyLib.c ****     *******************************************************************************/
1857:.\Generated_Source\PSoC4/CyLib.c ****     void CySysWdtWriteMatch(uint32 match)
1858:.\Generated_Source\PSoC4/CyLib.c ****     {
1859:.\Generated_Source\PSoC4/CyLib.c ****         CY_SYS_WDT_MATCH_REG = (CY_SYS_WDT_MATCH_REG & (uint32)(~ (uint32)CY_SYS_WDT_MATCH_MASK)) |
1860:.\Generated_Source\PSoC4/CyLib.c ****     }
1861:.\Generated_Source\PSoC4/CyLib.c **** 
1862:.\Generated_Source\PSoC4/CyLib.c **** 
1863:.\Generated_Source\PSoC4/CyLib.c ****     /*******************************************************************************
1864:.\Generated_Source\PSoC4/CyLib.c ****     * Function Name: CySysWdtReadMatch
1865:.\Generated_Source\PSoC4/CyLib.c ****     ********************************************************************************
1866:.\Generated_Source\PSoC4/CyLib.c ****     *
1867:.\Generated_Source\PSoC4/CyLib.c ****     * Summary:
1868:.\Generated_Source\PSoC4/CyLib.c ****     *  Reads the WDT counter match comparison value.
1869:.\Generated_Source\PSoC4/CyLib.c ****     *
1870:.\Generated_Source\PSoC4/CyLib.c ****     * Parameters:
1871:.\Generated_Source\PSoC4/CyLib.c ****     *  None
1872:.\Generated_Source\PSoC4/CyLib.c ****     *
1873:.\Generated_Source\PSoC4/CyLib.c ****     * Return:
1874:.\Generated_Source\PSoC4/CyLib.c ****     *  Counter match value.
1875:.\Generated_Source\PSoC4/CyLib.c ****     *
1876:.\Generated_Source\PSoC4/CyLib.c ****     *******************************************************************************/
1877:.\Generated_Source\PSoC4/CyLib.c ****     uint32 CySysWdtReadMatch(void)
1878:.\Generated_Source\PSoC4/CyLib.c ****     {
1879:.\Generated_Source\PSoC4/CyLib.c ****         return (CY_SYS_WDT_MATCH_REG & CY_SYS_WDT_MATCH_MASK);
1880:.\Generated_Source\PSoC4/CyLib.c ****     }
1881:.\Generated_Source\PSoC4/CyLib.c **** 
1882:.\Generated_Source\PSoC4/CyLib.c **** 
1883:.\Generated_Source\PSoC4/CyLib.c ****     /*******************************************************************************
1884:.\Generated_Source\PSoC4/CyLib.c ****     * Function Name: CySysWdtReadCount
1885:.\Generated_Source\PSoC4/CyLib.c ****     ********************************************************************************
1886:.\Generated_Source\PSoC4/CyLib.c ****     *
1887:.\Generated_Source\PSoC4/CyLib.c ****     * Summary:
1888:.\Generated_Source\PSoC4/CyLib.c ****     *  Reads the current WDT counter value.
1889:.\Generated_Source\PSoC4/CyLib.c ****     *
1890:.\Generated_Source\PSoC4/CyLib.c ****     * Parameters:
1891:.\Generated_Source\PSoC4/CyLib.c ****     *  None
1892:.\Generated_Source\PSoC4/CyLib.c ****     *
1893:.\Generated_Source\PSoC4/CyLib.c ****     * Return:
1894:.\Generated_Source\PSoC4/CyLib.c ****     *  Live counter value
1895:.\Generated_Source\PSoC4/CyLib.c ****     *
1896:.\Generated_Source\PSoC4/CyLib.c ****     *******************************************************************************/
1897:.\Generated_Source\PSoC4/CyLib.c ****     uint32 CySysWdtReadCount(void)
1898:.\Generated_Source\PSoC4/CyLib.c ****     {
1899:.\Generated_Source\PSoC4/CyLib.c ****         return ((uint32)CY_SYS_WDT_COUNTER_REG);
1900:.\Generated_Source\PSoC4/CyLib.c ****     }
1901:.\Generated_Source\PSoC4/CyLib.c **** 
1902:.\Generated_Source\PSoC4/CyLib.c **** 
1903:.\Generated_Source\PSoC4/CyLib.c ****     /*******************************************************************************
1904:.\Generated_Source\PSoC4/CyLib.c ****     * Function Name: CySysWdtWriteIgnoreBits
1905:.\Generated_Source\PSoC4/CyLib.c ****     ********************************************************************************
1906:.\Generated_Source\PSoC4/CyLib.c ****     *
1907:.\Generated_Source\PSoC4/CyLib.c ****     * Summary:
1908:.\Generated_Source\PSoC4/CyLib.c ****     *  Configures the number of the MSB bits of the watchdog timer that are not
1909:.\Generated_Source\PSoC4/CyLib.c ****     *  checked against the match.
1910:.\Generated_Source\PSoC4/CyLib.c ****     *
1911:.\Generated_Source\PSoC4/CyLib.c ****     * Parameters:
1912:.\Generated_Source\PSoC4/CyLib.c ****     *  bitsNum:
ARM GAS  C:\Users\Pablo\AppData\Local\Temp\ccDGsedh.s 			page 59


1913:.\Generated_Source\PSoC4/CyLib.c ****     *   Valid range [0-15]. Number of MSB bits.
1914:.\Generated_Source\PSoC4/CyLib.c ****     *
1915:.\Generated_Source\PSoC4/CyLib.c ****     * Return:
1916:.\Generated_Source\PSoC4/CyLib.c ****     *  None
1917:.\Generated_Source\PSoC4/CyLib.c ****     *
1918:.\Generated_Source\PSoC4/CyLib.c ****     * Side Effects:
1919:.\Generated_Source\PSoC4/CyLib.c ****     *  The value of bitsNum provides control over the time-to-reset of the watchdog
1920:.\Generated_Source\PSoC4/CyLib.c ****     *  (which happens after 3 successive matches).
1921:.\Generated_Source\PSoC4/CyLib.c ****     *
1922:.\Generated_Source\PSoC4/CyLib.c ****     *******************************************************************************/
1923:.\Generated_Source\PSoC4/CyLib.c ****     void CySysWdtWriteIgnoreBits(uint32 bitsNum)
1924:.\Generated_Source\PSoC4/CyLib.c ****     {
1925:.\Generated_Source\PSoC4/CyLib.c ****         bitsNum = ((uint32)(bitsNum << CY_SYS_WDT_IGNORE_BITS_SHIFT) & CY_SYS_WDT_IGNORE_BITS_MASK)
1926:.\Generated_Source\PSoC4/CyLib.c ****         CY_SYS_WDT_MATCH_REG = (CY_SYS_WDT_MATCH_REG & (uint32)(~CY_SYS_WDT_IGNORE_BITS_MASK)) | bi
1927:.\Generated_Source\PSoC4/CyLib.c ****     }
1928:.\Generated_Source\PSoC4/CyLib.c **** 
1929:.\Generated_Source\PSoC4/CyLib.c **** 
1930:.\Generated_Source\PSoC4/CyLib.c ****     /*******************************************************************************
1931:.\Generated_Source\PSoC4/CyLib.c ****     * Function Name: CySysWdtReadIgnoreBits
1932:.\Generated_Source\PSoC4/CyLib.c ****     ********************************************************************************
1933:.\Generated_Source\PSoC4/CyLib.c ****     *
1934:.\Generated_Source\PSoC4/CyLib.c ****     * Summary:
1935:.\Generated_Source\PSoC4/CyLib.c ****     *  Reads the number of the  MSB bits of the watchdog timer that are not
1936:.\Generated_Source\PSoC4/CyLib.c ****     *  checked against the match.
1937:.\Generated_Source\PSoC4/CyLib.c ****     *
1938:.\Generated_Source\PSoC4/CyLib.c ****     * Parameters:
1939:.\Generated_Source\PSoC4/CyLib.c ****     *  None
1940:.\Generated_Source\PSoC4/CyLib.c ****     *
1941:.\Generated_Source\PSoC4/CyLib.c ****     * Return:
1942:.\Generated_Source\PSoC4/CyLib.c ****     *  Number of MSB bits.
1943:.\Generated_Source\PSoC4/CyLib.c ****     *
1944:.\Generated_Source\PSoC4/CyLib.c ****     *******************************************************************************/
1945:.\Generated_Source\PSoC4/CyLib.c ****     uint32 CySysWdtReadIgnoreBits(void)
1946:.\Generated_Source\PSoC4/CyLib.c ****     {
1947:.\Generated_Source\PSoC4/CyLib.c ****         return((uint32)((CY_SYS_WDT_MATCH_REG & CY_SYS_WDT_IGNORE_BITS_MASK) >> CY_SYS_WDT_IGNORE_B
1948:.\Generated_Source\PSoC4/CyLib.c ****     }
1949:.\Generated_Source\PSoC4/CyLib.c **** 
1950:.\Generated_Source\PSoC4/CyLib.c **** 
1951:.\Generated_Source\PSoC4/CyLib.c ****     /*******************************************************************************
1952:.\Generated_Source\PSoC4/CyLib.c ****     * Function Name: CySysWdtClearInterrupt
1953:.\Generated_Source\PSoC4/CyLib.c ****     ********************************************************************************
1954:.\Generated_Source\PSoC4/CyLib.c ****     *
1955:.\Generated_Source\PSoC4/CyLib.c ****     * Summary:
1956:.\Generated_Source\PSoC4/CyLib.c ****     *  Feeds the watch dog. Cleans the WDT match flag, which is set every time the
1957:.\Generated_Source\PSoC4/CyLib.c ****     *  WDT counter reaches a WDT match value.  Two unserviced interrupts will lead
1958:.\Generated_Source\PSoC4/CyLib.c ****     *  to a system reset (i.e. at the third match).
1959:.\Generated_Source\PSoC4/CyLib.c ****     *
1960:.\Generated_Source\PSoC4/CyLib.c ****     * Parameters:
1961:.\Generated_Source\PSoC4/CyLib.c ****     *  None
1962:.\Generated_Source\PSoC4/CyLib.c ****     *
1963:.\Generated_Source\PSoC4/CyLib.c ****     * Return:
1964:.\Generated_Source\PSoC4/CyLib.c ****     *  None
1965:.\Generated_Source\PSoC4/CyLib.c ****     *
1966:.\Generated_Source\PSoC4/CyLib.c ****     *******************************************************************************/
1967:.\Generated_Source\PSoC4/CyLib.c ****     void CySysWdtClearInterrupt(void)
1968:.\Generated_Source\PSoC4/CyLib.c ****     {
1969:.\Generated_Source\PSoC4/CyLib.c ****         CY_SYS_SRSS_INTR_REG |= CY_SYS_WDT_LOWER_BIT_MASK;
ARM GAS  C:\Users\Pablo\AppData\Local\Temp\ccDGsedh.s 			page 60


1970:.\Generated_Source\PSoC4/CyLib.c ****     }
1971:.\Generated_Source\PSoC4/CyLib.c **** 
1972:.\Generated_Source\PSoC4/CyLib.c **** 
1973:.\Generated_Source\PSoC4/CyLib.c ****     /*******************************************************************************
1974:.\Generated_Source\PSoC4/CyLib.c ****     * Function Name: CySysWdtMaskInterrupt
1975:.\Generated_Source\PSoC4/CyLib.c ****     ********************************************************************************
1976:.\Generated_Source\PSoC4/CyLib.c ****     *
1977:.\Generated_Source\PSoC4/CyLib.c ****     * Summary:
1978:.\Generated_Source\PSoC4/CyLib.c ****     *  After masking interrupts from the WDT, they are not passed to the CPU.
1979:.\Generated_Source\PSoC4/CyLib.c ****     *  This function does not disable the WDT reset generation.
1980:.\Generated_Source\PSoC4/CyLib.c ****     *
1981:.\Generated_Source\PSoC4/CyLib.c ****     * Parameters:
1982:.\Generated_Source\PSoC4/CyLib.c ****     *  None
1983:.\Generated_Source\PSoC4/CyLib.c ****     *
1984:.\Generated_Source\PSoC4/CyLib.c ****     * Return:
1985:.\Generated_Source\PSoC4/CyLib.c ****     *  None
1986:.\Generated_Source\PSoC4/CyLib.c ****     *
1987:.\Generated_Source\PSoC4/CyLib.c ****     *******************************************************************************/
1988:.\Generated_Source\PSoC4/CyLib.c ****     void CySysWdtMaskInterrupt(void)
1989:.\Generated_Source\PSoC4/CyLib.c ****     {
1990:.\Generated_Source\PSoC4/CyLib.c ****         CY_SYS_SRSS_INTR_MASK_REG &= (uint32)(~ (uint32)CY_SYS_WDT_LOWER_BIT_MASK);
1991:.\Generated_Source\PSoC4/CyLib.c ****     }
1992:.\Generated_Source\PSoC4/CyLib.c **** 
1993:.\Generated_Source\PSoC4/CyLib.c **** 
1994:.\Generated_Source\PSoC4/CyLib.c ****     /*******************************************************************************
1995:.\Generated_Source\PSoC4/CyLib.c ****     * Function Name: CySysWdtUnmaskInterrupt
1996:.\Generated_Source\PSoC4/CyLib.c ****     ********************************************************************************
1997:.\Generated_Source\PSoC4/CyLib.c ****     *
1998:.\Generated_Source\PSoC4/CyLib.c ****     * Summary:
1999:.\Generated_Source\PSoC4/CyLib.c ****     *  Unmasks WDT interrupts.
2000:.\Generated_Source\PSoC4/CyLib.c ****     *
2001:.\Generated_Source\PSoC4/CyLib.c ****     * Parameters:
2002:.\Generated_Source\PSoC4/CyLib.c ****     *  None
2003:.\Generated_Source\PSoC4/CyLib.c ****     *
2004:.\Generated_Source\PSoC4/CyLib.c ****     * Return:
2005:.\Generated_Source\PSoC4/CyLib.c ****     *  None
2006:.\Generated_Source\PSoC4/CyLib.c ****     *
2007:.\Generated_Source\PSoC4/CyLib.c ****     *******************************************************************************/
2008:.\Generated_Source\PSoC4/CyLib.c ****     void CySysWdtUnmaskInterrupt(void)
2009:.\Generated_Source\PSoC4/CyLib.c ****     {
2010:.\Generated_Source\PSoC4/CyLib.c ****         CY_SYS_SRSS_INTR_MASK_REG |= CY_SYS_WDT_LOWER_BIT_MASK;
2011:.\Generated_Source\PSoC4/CyLib.c ****     }
2012:.\Generated_Source\PSoC4/CyLib.c **** 
2013:.\Generated_Source\PSoC4/CyLib.c **** #endif /* (CY_IP_SRSSV2) */
2014:.\Generated_Source\PSoC4/CyLib.c **** 
2015:.\Generated_Source\PSoC4/CyLib.c **** 
2016:.\Generated_Source\PSoC4/CyLib.c **** #if(CY_IP_SRSSV2)
2017:.\Generated_Source\PSoC4/CyLib.c **** 
2018:.\Generated_Source\PSoC4/CyLib.c ****     /*******************************************************************************
2019:.\Generated_Source\PSoC4/CyLib.c ****     * Function Name: CySysLvdEnable
2020:.\Generated_Source\PSoC4/CyLib.c ****     ********************************************************************************
2021:.\Generated_Source\PSoC4/CyLib.c ****     *
2022:.\Generated_Source\PSoC4/CyLib.c ****     * Summary:
2023:.\Generated_Source\PSoC4/CyLib.c ****     *  Enables the output of the low-voltage monitor when Vddd is at or below the
2024:.\Generated_Source\PSoC4/CyLib.c ****     *  trip point, configures the device to generate an interrupt, and sets the voltage
2025:.\Generated_Source\PSoC4/CyLib.c ****     *  trip level.
2026:.\Generated_Source\PSoC4/CyLib.c ****     *
ARM GAS  C:\Users\Pablo\AppData\Local\Temp\ccDGsedh.s 			page 61


2027:.\Generated_Source\PSoC4/CyLib.c ****     * Parameters:
2028:.\Generated_Source\PSoC4/CyLib.c ****     *  threshold: Threshold selection for Low Voltage Detect circuit.
2029:.\Generated_Source\PSoC4/CyLib.c ****     *  Threshold variation is +/- 2.5% from these typical voltage choices.
2030:.\Generated_Source\PSoC4/CyLib.c ****     *         Define                     Voltage threshold
2031:.\Generated_Source\PSoC4/CyLib.c ****     *    CY_LVD_THRESHOLD_1_75_V       1.7500 V
2032:.\Generated_Source\PSoC4/CyLib.c ****     *    CY_LVD_THRESHOLD_1_80_V       1.8000 V
2033:.\Generated_Source\PSoC4/CyLib.c ****     *    CY_LVD_THRESHOLD_1_90_V       1.9000 V
2034:.\Generated_Source\PSoC4/CyLib.c ****     *    CY_LVD_THRESHOLD_2_00_V       2.0000 V
2035:.\Generated_Source\PSoC4/CyLib.c ****     *    CY_LVD_THRESHOLD_2_10_V       2.1000 V
2036:.\Generated_Source\PSoC4/CyLib.c ****     *    CY_LVD_THRESHOLD_2_20_V       2.2000 V
2037:.\Generated_Source\PSoC4/CyLib.c ****     *    CY_LVD_THRESHOLD_2_30_V       2.3000 V
2038:.\Generated_Source\PSoC4/CyLib.c ****     *    CY_LVD_THRESHOLD_2_40_V       2.4000 V
2039:.\Generated_Source\PSoC4/CyLib.c ****     *    CY_LVD_THRESHOLD_2_50_V       2.5000 V
2040:.\Generated_Source\PSoC4/CyLib.c ****     *    CY_LVD_THRESHOLD_2_60_V       2.6000 V
2041:.\Generated_Source\PSoC4/CyLib.c ****     *    CY_LVD_THRESHOLD_2_70_V       2.7000 V
2042:.\Generated_Source\PSoC4/CyLib.c ****     *    CY_LVD_THRESHOLD_2_80_V       2.8000 V
2043:.\Generated_Source\PSoC4/CyLib.c ****     *    CY_LVD_THRESHOLD_2_90_V       2.9000 V
2044:.\Generated_Source\PSoC4/CyLib.c ****     *    CY_LVD_THRESHOLD_3_00_V       3.0000 V
2045:.\Generated_Source\PSoC4/CyLib.c ****     *    CY_LVD_THRESHOLD_3_20_V       3.2000 V
2046:.\Generated_Source\PSoC4/CyLib.c ****     *    CY_LVD_THRESHOLD_4_50_V       4.5000 V
2047:.\Generated_Source\PSoC4/CyLib.c ****     *
2048:.\Generated_Source\PSoC4/CyLib.c ****     * Return:
2049:.\Generated_Source\PSoC4/CyLib.c ****     *  None
2050:.\Generated_Source\PSoC4/CyLib.c ****     *
2051:.\Generated_Source\PSoC4/CyLib.c ****     *******************************************************************************/
2052:.\Generated_Source\PSoC4/CyLib.c ****     void CySysLvdEnable(uint32 threshold)
2053:.\Generated_Source\PSoC4/CyLib.c ****     {
 1318              		.loc 1 2053 0
 1319              		.cfi_startproc
 1320              	.LVL102:
2054:.\Generated_Source\PSoC4/CyLib.c ****         /* Set threshold */
2055:.\Generated_Source\PSoC4/CyLib.c ****         CY_LVD_PWR_VMON_CONFIG_REG = (CY_LVD_PWR_VMON_CONFIG_REG & ~CY_LVD_PWR_VMON_CONFIG_LVD_SEL_
 1321              		.loc 1 2055 0
 1322 0000 084B     		ldr	r3, .L145
2056:.\Generated_Source\PSoC4/CyLib.c ****                 ((threshold << CY_LVD_PWR_VMON_CONFIG_LVD_SEL_SHIFT) & CY_LVD_PWR_VMON_CONFIG_LVD_S
 1323              		.loc 1 2056 0
 1324 0002 1E22     		mov	r2, #30
2055:.\Generated_Source\PSoC4/CyLib.c ****         CY_LVD_PWR_VMON_CONFIG_REG = (CY_LVD_PWR_VMON_CONFIG_REG & ~CY_LVD_PWR_VMON_CONFIG_LVD_SEL_
 1325              		.loc 1 2055 0
 1326 0004 1968     		ldr	r1, [r3]
 1327              		.loc 1 2056 0
 1328 0006 4000     		lsl	r0, r0, #1
 1329              	.LVL103:
2055:.\Generated_Source\PSoC4/CyLib.c ****         CY_LVD_PWR_VMON_CONFIG_REG = (CY_LVD_PWR_VMON_CONFIG_REG & ~CY_LVD_PWR_VMON_CONFIG_LVD_SEL_
 1330              		.loc 1 2055 0
 1331 0008 9143     		bic	r1, r2
 1332              		.loc 1 2056 0
 1333 000a 1040     		and	r0, r2
2055:.\Generated_Source\PSoC4/CyLib.c ****         CY_LVD_PWR_VMON_CONFIG_REG = (CY_LVD_PWR_VMON_CONFIG_REG & ~CY_LVD_PWR_VMON_CONFIG_LVD_SEL_
 1334              		.loc 1 2055 0
 1335 000c 0843     		orr	r0, r1
 1336 000e 1860     		str	r0, [r3]
2057:.\Generated_Source\PSoC4/CyLib.c **** 
2058:.\Generated_Source\PSoC4/CyLib.c ****         CY_LVD_PWR_VMON_CONFIG_REG |= CY_LVD_PWR_VMON_CONFIG_LVD_EN;
 1337              		.loc 1 2058 0
 1338 0010 1A68     		ldr	r2, [r3]
 1339 0012 0121     		mov	r1, #1
ARM GAS  C:\Users\Pablo\AppData\Local\Temp\ccDGsedh.s 			page 62


 1340 0014 0A43     		orr	r2, r1
 1341 0016 1A60     		str	r2, [r3]
2059:.\Generated_Source\PSoC4/CyLib.c ****         CY_LVD_PWR_INTR_MASK_REG   |= CY_LVD_PROPAGATE_INT_TO_CPU;
 1342              		.loc 1 2059 0
 1343 0018 034B     		ldr	r3, .L145+4
 1344 001a 0221     		mov	r1, #2
 1345 001c 1A68     		ldr	r2, [r3]
2060:.\Generated_Source\PSoC4/CyLib.c ****     }
 1346              		.loc 1 2060 0
 1347              		@ sp needed
2059:.\Generated_Source\PSoC4/CyLib.c ****         CY_LVD_PWR_INTR_MASK_REG   |= CY_LVD_PROPAGATE_INT_TO_CPU;
 1348              		.loc 1 2059 0
 1349 001e 0A43     		orr	r2, r1
 1350 0020 1A60     		str	r2, [r3]
 1351              		.loc 1 2060 0
 1352 0022 7047     		bx	lr
 1353              	.L146:
 1354              		.align	2
 1355              	.L145:
 1356 0024 18000B40 		.word	1074462744
 1357 0028 08000B40 		.word	1074462728
 1358              		.cfi_endproc
 1359              	.LFE30:
 1360              		.size	CySysLvdEnable, .-CySysLvdEnable
 1361              		.section	.text.CySysLvdDisable,"ax",%progbits
 1362              		.align	1
 1363              		.global	CySysLvdDisable
 1364              		.code	16
 1365              		.thumb_func
 1366              		.type	CySysLvdDisable, %function
 1367              	CySysLvdDisable:
 1368              	.LFB31:
2061:.\Generated_Source\PSoC4/CyLib.c **** 
2062:.\Generated_Source\PSoC4/CyLib.c **** 
2063:.\Generated_Source\PSoC4/CyLib.c ****     /*******************************************************************************
2064:.\Generated_Source\PSoC4/CyLib.c ****     * Function Name: CySysLvdDisable
2065:.\Generated_Source\PSoC4/CyLib.c ****     ********************************************************************************
2066:.\Generated_Source\PSoC4/CyLib.c ****     *
2067:.\Generated_Source\PSoC4/CyLib.c ****     * Summary:
2068:.\Generated_Source\PSoC4/CyLib.c ****     *  Disables the low voltage detection. A low voltage interrupt is disabled.
2069:.\Generated_Source\PSoC4/CyLib.c ****     *
2070:.\Generated_Source\PSoC4/CyLib.c ****     * Parameters:
2071:.\Generated_Source\PSoC4/CyLib.c ****     *  None
2072:.\Generated_Source\PSoC4/CyLib.c ****     *
2073:.\Generated_Source\PSoC4/CyLib.c ****     * Return:
2074:.\Generated_Source\PSoC4/CyLib.c ****     *  None
2075:.\Generated_Source\PSoC4/CyLib.c ****     *
2076:.\Generated_Source\PSoC4/CyLib.c ****     *******************************************************************************/
2077:.\Generated_Source\PSoC4/CyLib.c ****     void CySysLvdDisable(void)
2078:.\Generated_Source\PSoC4/CyLib.c ****     {
 1369              		.loc 1 2078 0
 1370              		.cfi_startproc
2079:.\Generated_Source\PSoC4/CyLib.c ****         CY_LVD_PWR_INTR_MASK_REG   &= ~CY_LVD_PROPAGATE_INT_TO_CPU;
 1371              		.loc 1 2079 0
 1372 0000 054B     		ldr	r3, .L148
 1373 0002 0221     		mov	r1, #2
 1374 0004 1A68     		ldr	r2, [r3]
ARM GAS  C:\Users\Pablo\AppData\Local\Temp\ccDGsedh.s 			page 63


2080:.\Generated_Source\PSoC4/CyLib.c ****         CY_LVD_PWR_VMON_CONFIG_REG &= ~CY_LVD_PWR_VMON_CONFIG_LVD_EN;
2081:.\Generated_Source\PSoC4/CyLib.c ****     }
 1375              		.loc 1 2081 0
 1376              		@ sp needed
2079:.\Generated_Source\PSoC4/CyLib.c ****         CY_LVD_PWR_INTR_MASK_REG   &= ~CY_LVD_PROPAGATE_INT_TO_CPU;
 1377              		.loc 1 2079 0
 1378 0006 8A43     		bic	r2, r1
 1379 0008 1A60     		str	r2, [r3]
2080:.\Generated_Source\PSoC4/CyLib.c ****         CY_LVD_PWR_VMON_CONFIG_REG &= ~CY_LVD_PWR_VMON_CONFIG_LVD_EN;
 1380              		.loc 1 2080 0
 1381 000a 044B     		ldr	r3, .L148+4
 1382 000c 0121     		mov	r1, #1
 1383 000e 1A68     		ldr	r2, [r3]
 1384 0010 8A43     		bic	r2, r1
 1385 0012 1A60     		str	r2, [r3]
 1386              		.loc 1 2081 0
 1387 0014 7047     		bx	lr
 1388              	.L149:
 1389 0016 C046     		.align	2
 1390              	.L148:
 1391 0018 08000B40 		.word	1074462728
 1392 001c 18000B40 		.word	1074462744
 1393              		.cfi_endproc
 1394              	.LFE31:
 1395              		.size	CySysLvdDisable, .-CySysLvdDisable
 1396              		.section	.text.CySysLvdGetInterruptSource,"ax",%progbits
 1397              		.align	1
 1398              		.global	CySysLvdGetInterruptSource
 1399              		.code	16
 1400              		.thumb_func
 1401              		.type	CySysLvdGetInterruptSource, %function
 1402              	CySysLvdGetInterruptSource:
 1403              	.LFB32:
2082:.\Generated_Source\PSoC4/CyLib.c **** 
2083:.\Generated_Source\PSoC4/CyLib.c **** 
2084:.\Generated_Source\PSoC4/CyLib.c ****     /*******************************************************************************
2085:.\Generated_Source\PSoC4/CyLib.c ****     * Function Name: CySysLvdGetInterruptSource
2086:.\Generated_Source\PSoC4/CyLib.c ****     ********************************************************************************
2087:.\Generated_Source\PSoC4/CyLib.c ****     *
2088:.\Generated_Source\PSoC4/CyLib.c ****     * Summary:
2089:.\Generated_Source\PSoC4/CyLib.c ****     *  Gets the low voltage detection interrupt status (without clearing).
2090:.\Generated_Source\PSoC4/CyLib.c ****     *
2091:.\Generated_Source\PSoC4/CyLib.c ****     * Parameters:
2092:.\Generated_Source\PSoC4/CyLib.c ****     *  None
2093:.\Generated_Source\PSoC4/CyLib.c ****     *
2094:.\Generated_Source\PSoC4/CyLib.c ****     * Return:
2095:.\Generated_Source\PSoC4/CyLib.c ****     *  Interrupt request value:
2096:.\Generated_Source\PSoC4/CyLib.c ****     *    CY_SYS_LVD_INT - Indicates an Low Voltage Detect interrupt
2097:.\Generated_Source\PSoC4/CyLib.c ****     *
2098:.\Generated_Source\PSoC4/CyLib.c ****     *******************************************************************************/
2099:.\Generated_Source\PSoC4/CyLib.c ****     uint32 CySysLvdGetInterruptSource(void)
2100:.\Generated_Source\PSoC4/CyLib.c ****     {
 1404              		.loc 1 2100 0
 1405              		.cfi_startproc
2101:.\Generated_Source\PSoC4/CyLib.c ****         return (CY_LVD_PWR_INTR_REG & CY_SYS_LVD_INT);
 1406              		.loc 1 2101 0
 1407 0000 024B     		ldr	r3, .L151
ARM GAS  C:\Users\Pablo\AppData\Local\Temp\ccDGsedh.s 			page 64


2102:.\Generated_Source\PSoC4/CyLib.c ****     }
 1408              		.loc 1 2102 0
 1409              		@ sp needed
2101:.\Generated_Source\PSoC4/CyLib.c ****         return (CY_LVD_PWR_INTR_REG & CY_SYS_LVD_INT);
 1410              		.loc 1 2101 0
 1411 0002 1868     		ldr	r0, [r3]
 1412 0004 0223     		mov	r3, #2
 1413 0006 1840     		and	r0, r3
 1414              		.loc 1 2102 0
 1415 0008 7047     		bx	lr
 1416              	.L152:
 1417 000a C046     		.align	2
 1418              	.L151:
 1419 000c 04000B40 		.word	1074462724
 1420              		.cfi_endproc
 1421              	.LFE32:
 1422              		.size	CySysLvdGetInterruptSource, .-CySysLvdGetInterruptSource
 1423              		.section	.text.CySysLvdClearInterrupt,"ax",%progbits
 1424              		.align	1
 1425              		.global	CySysLvdClearInterrupt
 1426              		.code	16
 1427              		.thumb_func
 1428              		.type	CySysLvdClearInterrupt, %function
 1429              	CySysLvdClearInterrupt:
 1430              	.LFB33:
2103:.\Generated_Source\PSoC4/CyLib.c **** 
2104:.\Generated_Source\PSoC4/CyLib.c **** 
2105:.\Generated_Source\PSoC4/CyLib.c ****     /*******************************************************************************
2106:.\Generated_Source\PSoC4/CyLib.c ****     * Function Name: CySysLvdClearInterrupt
2107:.\Generated_Source\PSoC4/CyLib.c ****     ********************************************************************************
2108:.\Generated_Source\PSoC4/CyLib.c ****     *
2109:.\Generated_Source\PSoC4/CyLib.c ****     * Summary:
2110:.\Generated_Source\PSoC4/CyLib.c ****     *  Clears the low voltage detection interrupt status.
2111:.\Generated_Source\PSoC4/CyLib.c ****     *
2112:.\Generated_Source\PSoC4/CyLib.c ****     * Parameters:
2113:.\Generated_Source\PSoC4/CyLib.c ****     *  None
2114:.\Generated_Source\PSoC4/CyLib.c ****     *
2115:.\Generated_Source\PSoC4/CyLib.c ****     * Return:
2116:.\Generated_Source\PSoC4/CyLib.c ****     *  None
2117:.\Generated_Source\PSoC4/CyLib.c ****     *
2118:.\Generated_Source\PSoC4/CyLib.c ****     *******************************************************************************/
2119:.\Generated_Source\PSoC4/CyLib.c ****     void CySysLvdClearInterrupt(void)
2120:.\Generated_Source\PSoC4/CyLib.c ****     {
 1431              		.loc 1 2120 0
 1432              		.cfi_startproc
2121:.\Generated_Source\PSoC4/CyLib.c ****         CY_LVD_PWR_INTR_REG = CY_SYS_LVD_INT;
 1433              		.loc 1 2121 0
 1434 0000 014B     		ldr	r3, .L154
 1435 0002 0222     		mov	r2, #2
 1436 0004 1A60     		str	r2, [r3]
2122:.\Generated_Source\PSoC4/CyLib.c ****     }
 1437              		.loc 1 2122 0
 1438              		@ sp needed
 1439 0006 7047     		bx	lr
 1440              	.L155:
 1441              		.align	2
 1442              	.L154:
ARM GAS  C:\Users\Pablo\AppData\Local\Temp\ccDGsedh.s 			page 65


 1443 0008 04000B40 		.word	1074462724
 1444              		.cfi_endproc
 1445              	.LFE33:
 1446              		.size	CySysLvdClearInterrupt, .-CySysLvdClearInterrupt
 1447              		.section	.text.CySysGetResetReason,"ax",%progbits
 1448              		.align	1
 1449              		.global	CySysGetResetReason
 1450              		.code	16
 1451              		.thumb_func
 1452              		.type	CySysGetResetReason, %function
 1453              	CySysGetResetReason:
 1454              	.LFB34:
2123:.\Generated_Source\PSoC4/CyLib.c **** 
2124:.\Generated_Source\PSoC4/CyLib.c **** #endif /* (CY_IP_SRSSV2) */
2125:.\Generated_Source\PSoC4/CyLib.c **** 
2126:.\Generated_Source\PSoC4/CyLib.c **** 
2127:.\Generated_Source\PSoC4/CyLib.c **** /*******************************************************************************
2128:.\Generated_Source\PSoC4/CyLib.c **** * Function Name: CySysGetResetReason
2129:.\Generated_Source\PSoC4/CyLib.c **** ********************************************************************************
2130:.\Generated_Source\PSoC4/CyLib.c **** *
2131:.\Generated_Source\PSoC4/CyLib.c **** * Summary:
2132:.\Generated_Source\PSoC4/CyLib.c **** *  Reports the cause for the latest reset(s) that occurred in the system. All the
2133:.\Generated_Source\PSoC4/CyLib.c **** *  bits in the RES_CAUSE register assert when the corresponding reset cause
2134:.\Generated_Source\PSoC4/CyLib.c **** *  occurs and must be cleared by the firmware. These bits are cleared by the hardware
2135:.\Generated_Source\PSoC4/CyLib.c **** *  only during XRES, POR, or a detected brown-out.
2136:.\Generated_Source\PSoC4/CyLib.c **** *
2137:.\Generated_Source\PSoC4/CyLib.c **** * Parameters:
2138:.\Generated_Source\PSoC4/CyLib.c **** *  reason: bits in the RES_CAUSE register to clear.
2139:.\Generated_Source\PSoC4/CyLib.c **** *   CY_SYS_RESET_WDT       - WDT caused a reset
2140:.\Generated_Source\PSoC4/CyLib.c **** *   CY_SYS_RESET_PROTFAULT - A protection violation occurred that requires a RESET
2141:.\Generated_Source\PSoC4/CyLib.c **** *   CY_SYS_RESET_SW        - Cortex-M0 requested a system reset.
2142:.\Generated_Source\PSoC4/CyLib.c **** *
2143:.\Generated_Source\PSoC4/CyLib.c **** * Return:
2144:.\Generated_Source\PSoC4/CyLib.c **** *  Status. Same enumerated bit values as used for the reason parameter.
2145:.\Generated_Source\PSoC4/CyLib.c **** *
2146:.\Generated_Source\PSoC4/CyLib.c **** *******************************************************************************/
2147:.\Generated_Source\PSoC4/CyLib.c **** uint32 CySysGetResetReason(uint32 reason)
2148:.\Generated_Source\PSoC4/CyLib.c **** {
 1455              		.loc 1 2148 0
 1456              		.cfi_startproc
 1457              	.LVL104:
2149:.\Generated_Source\PSoC4/CyLib.c ****     uint32 status;
2150:.\Generated_Source\PSoC4/CyLib.c **** 
2151:.\Generated_Source\PSoC4/CyLib.c ****     reason &= (CY_SYS_RESET_WDT | CY_SYS_RESET_PROTFAULT | CY_SYS_RESET_SW);
2152:.\Generated_Source\PSoC4/CyLib.c ****     status = CY_SYS_RES_CAUSE_REG &
 1458              		.loc 1 2152 0
 1459 0000 034A     		ldr	r2, .L157
2151:.\Generated_Source\PSoC4/CyLib.c ****     reason &= (CY_SYS_RESET_WDT | CY_SYS_RESET_PROTFAULT | CY_SYS_RESET_SW);
 1460              		.loc 1 2151 0
 1461 0002 1923     		mov	r3, #25
 1462 0004 011C     		mov	r1, r0
 1463              		.loc 1 2152 0
 1464 0006 1068     		ldr	r0, [r2]
 1465              	.LVL105:
2151:.\Generated_Source\PSoC4/CyLib.c ****     reason &= (CY_SYS_RESET_WDT | CY_SYS_RESET_PROTFAULT | CY_SYS_RESET_SW);
 1466              		.loc 1 2151 0
 1467 0008 1940     		and	r1, r3
ARM GAS  C:\Users\Pablo\AppData\Local\Temp\ccDGsedh.s 			page 66


 1468              	.LVL106:
 1469              		.loc 1 2152 0
 1470 000a 1840     		and	r0, r3
 1471              	.LVL107:
2153:.\Generated_Source\PSoC4/CyLib.c ****              (CY_SYS_RESET_WDT | CY_SYS_RESET_PROTFAULT | CY_SYS_RESET_SW);
2154:.\Generated_Source\PSoC4/CyLib.c ****     CY_SYS_RES_CAUSE_REG = reason;
 1472              		.loc 1 2154 0
 1473 000c 1160     		str	r1, [r2]
2155:.\Generated_Source\PSoC4/CyLib.c **** 
2156:.\Generated_Source\PSoC4/CyLib.c ****     return (status);
2157:.\Generated_Source\PSoC4/CyLib.c **** }
 1474              		.loc 1 2157 0
 1475              		@ sp needed
 1476 000e 7047     		bx	lr
 1477              	.L158:
 1478              		.align	2
 1479              	.L157:
 1480 0010 00030B40 		.word	1074463488
 1481              		.cfi_endproc
 1482              	.LFE34:
 1483              		.size	CySysGetResetReason, .-CySysGetResetReason
 1484              		.section	.text.CyDisableInts,"ax",%progbits
 1485              		.align	1
 1486              		.global	CyDisableInts
 1487              		.code	16
 1488              		.thumb_func
 1489              		.type	CyDisableInts, %function
 1490              	CyDisableInts:
 1491              	.LFB35:
2158:.\Generated_Source\PSoC4/CyLib.c **** 
2159:.\Generated_Source\PSoC4/CyLib.c **** 
2160:.\Generated_Source\PSoC4/CyLib.c **** /*******************************************************************************
2161:.\Generated_Source\PSoC4/CyLib.c **** * Function Name: CyDisableInts
2162:.\Generated_Source\PSoC4/CyLib.c **** ********************************************************************************
2163:.\Generated_Source\PSoC4/CyLib.c **** *
2164:.\Generated_Source\PSoC4/CyLib.c **** * Summary:
2165:.\Generated_Source\PSoC4/CyLib.c **** *  Disables all interrupts.
2166:.\Generated_Source\PSoC4/CyLib.c **** *
2167:.\Generated_Source\PSoC4/CyLib.c **** * Parameters:
2168:.\Generated_Source\PSoC4/CyLib.c **** *  None
2169:.\Generated_Source\PSoC4/CyLib.c **** *
2170:.\Generated_Source\PSoC4/CyLib.c **** * Return:
2171:.\Generated_Source\PSoC4/CyLib.c **** *  32 bit mask of previously enabled interrupts.
2172:.\Generated_Source\PSoC4/CyLib.c **** *
2173:.\Generated_Source\PSoC4/CyLib.c **** *******************************************************************************/
2174:.\Generated_Source\PSoC4/CyLib.c **** uint32 CyDisableInts(void)
2175:.\Generated_Source\PSoC4/CyLib.c **** {
 1492              		.loc 1 2175 0
 1493              		.cfi_startproc
2176:.\Generated_Source\PSoC4/CyLib.c ****     uint32 intState;
2177:.\Generated_Source\PSoC4/CyLib.c **** 
2178:.\Generated_Source\PSoC4/CyLib.c ****     /* Get current interrupt state. */
2179:.\Generated_Source\PSoC4/CyLib.c ****     intState = CY_INT_CLEAR_REG;
 1494              		.loc 1 2179 0
 1495 0000 024B     		ldr	r3, .L160
2180:.\Generated_Source\PSoC4/CyLib.c **** 
2181:.\Generated_Source\PSoC4/CyLib.c ****     /* Disable all interrupts. */
ARM GAS  C:\Users\Pablo\AppData\Local\Temp\ccDGsedh.s 			page 67


2182:.\Generated_Source\PSoC4/CyLib.c ****     CY_INT_CLEAR_REG = CY_INT_CLEAR_DISABLE_ALL;
 1496              		.loc 1 2182 0
 1497 0002 0122     		mov	r2, #1
 1498 0004 5242     		neg	r2, r2
2179:.\Generated_Source\PSoC4/CyLib.c ****     intState = CY_INT_CLEAR_REG;
 1499              		.loc 1 2179 0
 1500 0006 1868     		ldr	r0, [r3]
 1501              	.LVL108:
2183:.\Generated_Source\PSoC4/CyLib.c **** 
2184:.\Generated_Source\PSoC4/CyLib.c ****     return (intState);
2185:.\Generated_Source\PSoC4/CyLib.c **** }
 1502              		.loc 1 2185 0
 1503              		@ sp needed
2182:.\Generated_Source\PSoC4/CyLib.c ****     CY_INT_CLEAR_REG = CY_INT_CLEAR_DISABLE_ALL;
 1504              		.loc 1 2182 0
 1505 0008 1A60     		str	r2, [r3]
 1506              		.loc 1 2185 0
 1507 000a 7047     		bx	lr
 1508              	.L161:
 1509              		.align	2
 1510              	.L160:
 1511 000c 80E100E0 		.word	-536813184
 1512              		.cfi_endproc
 1513              	.LFE35:
 1514              		.size	CyDisableInts, .-CyDisableInts
 1515              		.section	.text.CyEnableInts,"ax",%progbits
 1516              		.align	1
 1517              		.global	CyEnableInts
 1518              		.code	16
 1519              		.thumb_func
 1520              		.type	CyEnableInts, %function
 1521              	CyEnableInts:
 1522              	.LFB36:
2186:.\Generated_Source\PSoC4/CyLib.c **** 
2187:.\Generated_Source\PSoC4/CyLib.c **** 
2188:.\Generated_Source\PSoC4/CyLib.c **** /*******************************************************************************
2189:.\Generated_Source\PSoC4/CyLib.c **** * Function Name: CyEnableInts
2190:.\Generated_Source\PSoC4/CyLib.c **** ********************************************************************************
2191:.\Generated_Source\PSoC4/CyLib.c **** *
2192:.\Generated_Source\PSoC4/CyLib.c **** * Summary:
2193:.\Generated_Source\PSoC4/CyLib.c **** *  Enables interrupts to a given state.
2194:.\Generated_Source\PSoC4/CyLib.c **** *
2195:.\Generated_Source\PSoC4/CyLib.c **** * Parameters:
2196:.\Generated_Source\PSoC4/CyLib.c **** *   mask, 32 bit mask of interrupts to enable.
2197:.\Generated_Source\PSoC4/CyLib.c **** *
2198:.\Generated_Source\PSoC4/CyLib.c **** * Return:
2199:.\Generated_Source\PSoC4/CyLib.c **** *  None
2200:.\Generated_Source\PSoC4/CyLib.c **** *
2201:.\Generated_Source\PSoC4/CyLib.c **** *******************************************************************************/
2202:.\Generated_Source\PSoC4/CyLib.c **** void CyEnableInts(uint32 mask)
2203:.\Generated_Source\PSoC4/CyLib.c **** {
 1523              		.loc 1 2203 0
 1524              		.cfi_startproc
 1525              	.LVL109:
2204:.\Generated_Source\PSoC4/CyLib.c ****     CY_INT_ENABLE_REG = mask;
 1526              		.loc 1 2204 0
 1527 0000 014B     		ldr	r3, .L163
ARM GAS  C:\Users\Pablo\AppData\Local\Temp\ccDGsedh.s 			page 68


2205:.\Generated_Source\PSoC4/CyLib.c **** }
 1528              		.loc 1 2205 0
 1529              		@ sp needed
2204:.\Generated_Source\PSoC4/CyLib.c ****     CY_INT_ENABLE_REG = mask;
 1530              		.loc 1 2204 0
 1531 0002 1860     		str	r0, [r3]
 1532              		.loc 1 2205 0
 1533 0004 7047     		bx	lr
 1534              	.L164:
 1535 0006 C046     		.align	2
 1536              	.L163:
 1537 0008 00E100E0 		.word	-536813312
 1538              		.cfi_endproc
 1539              	.LFE36:
 1540              		.size	CyEnableInts, .-CyEnableInts
 1541              		.section	.text.CyIntSetSysVector,"ax",%progbits
 1542              		.align	1
 1543              		.global	CyIntSetSysVector
 1544              		.code	16
 1545              		.thumb_func
 1546              		.type	CyIntSetSysVector, %function
 1547              	CyIntSetSysVector:
 1548              	.LFB37:
2206:.\Generated_Source\PSoC4/CyLib.c **** 
2207:.\Generated_Source\PSoC4/CyLib.c **** 
2208:.\Generated_Source\PSoC4/CyLib.c **** /*******************************************************************************
2209:.\Generated_Source\PSoC4/CyLib.c **** * Function Name: CyIntSetSysVector
2210:.\Generated_Source\PSoC4/CyLib.c **** ********************************************************************************
2211:.\Generated_Source\PSoC4/CyLib.c **** *
2212:.\Generated_Source\PSoC4/CyLib.c **** * Summary:
2213:.\Generated_Source\PSoC4/CyLib.c **** *  Sets the interrupt vector of the specified system interrupt number. These
2214:.\Generated_Source\PSoC4/CyLib.c **** *  interrupts are for SysTick, PendSV and others.
2215:.\Generated_Source\PSoC4/CyLib.c **** *
2216:.\Generated_Source\PSoC4/CyLib.c **** * Parameters:
2217:.\Generated_Source\PSoC4/CyLib.c **** *  number: System interrupt number:
2218:.\Generated_Source\PSoC4/CyLib.c **** *    CY_INT_NMI_IRQN        - Non Maskable Interrupt
2219:.\Generated_Source\PSoC4/CyLib.c **** *    CY_INT_HARD_FAULT_IRQN - Hard Fault Interrupt
2220:.\Generated_Source\PSoC4/CyLib.c **** *    CY_INT_SVCALL_IRQN     - SV Call Interrupt
2221:.\Generated_Source\PSoC4/CyLib.c **** *    CY_INT_PEND_SV_IRQN    - Pend SV Interrupt
2222:.\Generated_Source\PSoC4/CyLib.c **** *    CY_INT_SYSTICK_IRQN    - System Tick Interrupt
2223:.\Generated_Source\PSoC4/CyLib.c **** *
2224:.\Generated_Source\PSoC4/CyLib.c **** *  address: Pointer to an interrupt service routine.
2225:.\Generated_Source\PSoC4/CyLib.c **** *
2226:.\Generated_Source\PSoC4/CyLib.c **** * Return:
2227:.\Generated_Source\PSoC4/CyLib.c **** *  The old ISR vector at this location.
2228:.\Generated_Source\PSoC4/CyLib.c **** *
2229:.\Generated_Source\PSoC4/CyLib.c **** *******************************************************************************/
2230:.\Generated_Source\PSoC4/CyLib.c **** cyisraddress CyIntSetSysVector(uint8 number, cyisraddress address)
2231:.\Generated_Source\PSoC4/CyLib.c **** {
 1549              		.loc 1 2231 0
 1550              		.cfi_startproc
 1551              	.LVL110:
2232:.\Generated_Source\PSoC4/CyLib.c ****     cyisraddress oldIsr;
2233:.\Generated_Source\PSoC4/CyLib.c ****     cyisraddress *ramVectorTable = (cyisraddress *) CY_INT_VECT_TABLE;
2234:.\Generated_Source\PSoC4/CyLib.c **** 
2235:.\Generated_Source\PSoC4/CyLib.c ****     CYASSERT(number < CY_INT_IRQ_BASE);
2236:.\Generated_Source\PSoC4/CyLib.c **** 
ARM GAS  C:\Users\Pablo\AppData\Local\Temp\ccDGsedh.s 			page 69


2237:.\Generated_Source\PSoC4/CyLib.c ****     /* Save old Interrupt service routine. */
2238:.\Generated_Source\PSoC4/CyLib.c ****     oldIsr = ramVectorTable[number];
 1552              		.loc 1 2238 0
 1553 0000 8022     		mov	r2, #128
 1554 0002 8300     		lsl	r3, r0, #2
 1555 0004 9205     		lsl	r2, r2, #22
 1556 0006 9B18     		add	r3, r3, r2
 1557 0008 1868     		ldr	r0, [r3]
 1558              	.LVL111:
2239:.\Generated_Source\PSoC4/CyLib.c **** 
2240:.\Generated_Source\PSoC4/CyLib.c ****     /* Set new Interrupt service routine. */
2241:.\Generated_Source\PSoC4/CyLib.c ****     ramVectorTable[number] = address;
2242:.\Generated_Source\PSoC4/CyLib.c **** 
2243:.\Generated_Source\PSoC4/CyLib.c ****     return(oldIsr);
2244:.\Generated_Source\PSoC4/CyLib.c **** }
 1559              		.loc 1 2244 0
 1560              		@ sp needed
2241:.\Generated_Source\PSoC4/CyLib.c ****     ramVectorTable[number] = address;
 1561              		.loc 1 2241 0
 1562 000a 1960     		str	r1, [r3]
 1563              		.loc 1 2244 0
 1564 000c 7047     		bx	lr
 1565              		.cfi_endproc
 1566              	.LFE37:
 1567              		.size	CyIntSetSysVector, .-CyIntSetSysVector
 1568              		.section	.text.CyIntGetSysVector,"ax",%progbits
 1569              		.align	1
 1570              		.global	CyIntGetSysVector
 1571              		.code	16
 1572              		.thumb_func
 1573              		.type	CyIntGetSysVector, %function
 1574              	CyIntGetSysVector:
 1575              	.LFB38:
2245:.\Generated_Source\PSoC4/CyLib.c **** 
2246:.\Generated_Source\PSoC4/CyLib.c **** 
2247:.\Generated_Source\PSoC4/CyLib.c **** /*******************************************************************************
2248:.\Generated_Source\PSoC4/CyLib.c **** * Function Name: CyIntGetSysVector
2249:.\Generated_Source\PSoC4/CyLib.c **** ********************************************************************************
2250:.\Generated_Source\PSoC4/CyLib.c **** *
2251:.\Generated_Source\PSoC4/CyLib.c **** * Summary:
2252:.\Generated_Source\PSoC4/CyLib.c **** *   Gets the interrupt vector of the specified system interrupt number. These
2253:.\Generated_Source\PSoC4/CyLib.c **** *   interrupts are for SysTick, PendSV and others.
2254:.\Generated_Source\PSoC4/CyLib.c **** *
2255:.\Generated_Source\PSoC4/CyLib.c **** * Parameters:
2256:.\Generated_Source\PSoC4/CyLib.c **** *  number: System interrupt number:
2257:.\Generated_Source\PSoC4/CyLib.c **** *    CY_INT_NMI_IRQN        - Non Maskable Interrupt
2258:.\Generated_Source\PSoC4/CyLib.c **** *    CY_INT_HARD_FAULT_IRQN - Hard Fault Interrupt
2259:.\Generated_Source\PSoC4/CyLib.c **** *    CY_INT_SVCALL_IRQN     - SV Call Interrupt
2260:.\Generated_Source\PSoC4/CyLib.c **** *    CY_INT_PEND_SV_IRQN    - Pend SV Interrupt
2261:.\Generated_Source\PSoC4/CyLib.c **** *    CY_INT_SYSTICK_IRQN    - System Tick Interrupt
2262:.\Generated_Source\PSoC4/CyLib.c **** *
2263:.\Generated_Source\PSoC4/CyLib.c **** * Return:
2264:.\Generated_Source\PSoC4/CyLib.c **** *   Address of the ISR in the interrupt vector table.
2265:.\Generated_Source\PSoC4/CyLib.c **** *
2266:.\Generated_Source\PSoC4/CyLib.c **** *******************************************************************************/
2267:.\Generated_Source\PSoC4/CyLib.c **** cyisraddress CyIntGetSysVector(uint8 number)
2268:.\Generated_Source\PSoC4/CyLib.c **** {
ARM GAS  C:\Users\Pablo\AppData\Local\Temp\ccDGsedh.s 			page 70


 1576              		.loc 1 2268 0
 1577              		.cfi_startproc
 1578              	.LVL112:
2269:.\Generated_Source\PSoC4/CyLib.c ****     cyisraddress *ramVectorTable = (cyisraddress *) CY_INT_VECT_TABLE;
2270:.\Generated_Source\PSoC4/CyLib.c **** 
2271:.\Generated_Source\PSoC4/CyLib.c ****     CYASSERT(number < CY_INT_IRQ_BASE);
2272:.\Generated_Source\PSoC4/CyLib.c **** 
2273:.\Generated_Source\PSoC4/CyLib.c ****     return(ramVectorTable[number]);
 1579              		.loc 1 2273 0
 1580 0000 8023     		mov	r3, #128
 1581 0002 9B05     		lsl	r3, r3, #22
 1582 0004 8000     		lsl	r0, r0, #2
 1583              	.LVL113:
 1584 0006 C018     		add	r0, r0, r3
 1585 0008 0068     		ldr	r0, [r0]
2274:.\Generated_Source\PSoC4/CyLib.c **** }
 1586              		.loc 1 2274 0
 1587              		@ sp needed
 1588 000a 7047     		bx	lr
 1589              		.cfi_endproc
 1590              	.LFE38:
 1591              		.size	CyIntGetSysVector, .-CyIntGetSysVector
 1592              		.section	.text.CyIntSetVector,"ax",%progbits
 1593              		.align	1
 1594              		.global	CyIntSetVector
 1595              		.code	16
 1596              		.thumb_func
 1597              		.type	CyIntSetVector, %function
 1598              	CyIntSetVector:
 1599              	.LFB39:
2275:.\Generated_Source\PSoC4/CyLib.c **** 
2276:.\Generated_Source\PSoC4/CyLib.c **** 
2277:.\Generated_Source\PSoC4/CyLib.c **** /*******************************************************************************
2278:.\Generated_Source\PSoC4/CyLib.c **** * Function Name: CyIntSetVector
2279:.\Generated_Source\PSoC4/CyLib.c **** ********************************************************************************
2280:.\Generated_Source\PSoC4/CyLib.c **** *
2281:.\Generated_Source\PSoC4/CyLib.c **** * Summary:
2282:.\Generated_Source\PSoC4/CyLib.c **** *  Sets the interrupt vector of the specified interrupt number.
2283:.\Generated_Source\PSoC4/CyLib.c **** *
2284:.\Generated_Source\PSoC4/CyLib.c **** * Parameters:
2285:.\Generated_Source\PSoC4/CyLib.c **** *  number: Valid range [0-31].  Interrupt number
2286:.\Generated_Source\PSoC4/CyLib.c **** *  address: Pointer to an interrupt service routine
2287:.\Generated_Source\PSoC4/CyLib.c **** *
2288:.\Generated_Source\PSoC4/CyLib.c **** * Return:
2289:.\Generated_Source\PSoC4/CyLib.c **** *   Previous interrupt vector value.
2290:.\Generated_Source\PSoC4/CyLib.c **** *
2291:.\Generated_Source\PSoC4/CyLib.c **** *******************************************************************************/
2292:.\Generated_Source\PSoC4/CyLib.c **** cyisraddress CyIntSetVector(uint8 number, cyisraddress address)
2293:.\Generated_Source\PSoC4/CyLib.c **** {
 1600              		.loc 1 2293 0
 1601              		.cfi_startproc
 1602              	.LVL114:
2294:.\Generated_Source\PSoC4/CyLib.c ****     cyisraddress oldIsr;
2295:.\Generated_Source\PSoC4/CyLib.c ****     cyisraddress *ramVectorTable = (cyisraddress *) CY_INT_VECT_TABLE;
2296:.\Generated_Source\PSoC4/CyLib.c **** 
2297:.\Generated_Source\PSoC4/CyLib.c ****     CYASSERT(number < CY_NUM_INTERRUPTS);
2298:.\Generated_Source\PSoC4/CyLib.c **** 
ARM GAS  C:\Users\Pablo\AppData\Local\Temp\ccDGsedh.s 			page 71


2299:.\Generated_Source\PSoC4/CyLib.c ****     /* Save old Interrupt service routine. */
2300:.\Generated_Source\PSoC4/CyLib.c ****     oldIsr = ramVectorTable[CY_INT_IRQ_BASE + number];
 1603              		.loc 1 2300 0
 1604 0000 024A     		ldr	r2, .L168
 1605 0002 8300     		lsl	r3, r0, #2
 1606 0004 9B18     		add	r3, r3, r2
 1607 0006 1868     		ldr	r0, [r3]
 1608              	.LVL115:
2301:.\Generated_Source\PSoC4/CyLib.c **** 
2302:.\Generated_Source\PSoC4/CyLib.c ****     /* Set new Interrupt service routine. */
2303:.\Generated_Source\PSoC4/CyLib.c ****     ramVectorTable[CY_INT_IRQ_BASE + number] = address;
2304:.\Generated_Source\PSoC4/CyLib.c **** 
2305:.\Generated_Source\PSoC4/CyLib.c ****     return(oldIsr);
2306:.\Generated_Source\PSoC4/CyLib.c **** }
 1609              		.loc 1 2306 0
 1610              		@ sp needed
2303:.\Generated_Source\PSoC4/CyLib.c ****     ramVectorTable[CY_INT_IRQ_BASE + number] = address;
 1611              		.loc 1 2303 0
 1612 0008 1960     		str	r1, [r3]
 1613              		.loc 1 2306 0
 1614 000a 7047     		bx	lr
 1615              	.L169:
 1616              		.align	2
 1617              	.L168:
 1618 000c 40000020 		.word	536870976
 1619              		.cfi_endproc
 1620              	.LFE39:
 1621              		.size	CyIntSetVector, .-CyIntSetVector
 1622              		.section	.text.CyIntGetVector,"ax",%progbits
 1623              		.align	1
 1624              		.global	CyIntGetVector
 1625              		.code	16
 1626              		.thumb_func
 1627              		.type	CyIntGetVector, %function
 1628              	CyIntGetVector:
 1629              	.LFB40:
2307:.\Generated_Source\PSoC4/CyLib.c **** 
2308:.\Generated_Source\PSoC4/CyLib.c **** 
2309:.\Generated_Source\PSoC4/CyLib.c **** /*******************************************************************************
2310:.\Generated_Source\PSoC4/CyLib.c **** * Function Name: CyIntGetVector
2311:.\Generated_Source\PSoC4/CyLib.c **** ********************************************************************************
2312:.\Generated_Source\PSoC4/CyLib.c **** *
2313:.\Generated_Source\PSoC4/CyLib.c **** * Summary:
2314:.\Generated_Source\PSoC4/CyLib.c **** *  Gets the interrupt vector of the specified interrupt number.
2315:.\Generated_Source\PSoC4/CyLib.c **** *
2316:.\Generated_Source\PSoC4/CyLib.c **** * Parameters:
2317:.\Generated_Source\PSoC4/CyLib.c **** *  number: Valid range [0-31].  Interrupt number
2318:.\Generated_Source\PSoC4/CyLib.c **** *
2319:.\Generated_Source\PSoC4/CyLib.c **** * Return:
2320:.\Generated_Source\PSoC4/CyLib.c **** *  Address of the ISR in the interrupt vector table.
2321:.\Generated_Source\PSoC4/CyLib.c **** *
2322:.\Generated_Source\PSoC4/CyLib.c **** *******************************************************************************/
2323:.\Generated_Source\PSoC4/CyLib.c **** cyisraddress CyIntGetVector(uint8 number)
2324:.\Generated_Source\PSoC4/CyLib.c **** {
 1630              		.loc 1 2324 0
 1631              		.cfi_startproc
 1632              	.LVL116:
ARM GAS  C:\Users\Pablo\AppData\Local\Temp\ccDGsedh.s 			page 72


2325:.\Generated_Source\PSoC4/CyLib.c ****     cyisraddress *ramVectorTable = (cyisraddress *) CY_INT_VECT_TABLE;
2326:.\Generated_Source\PSoC4/CyLib.c **** 
2327:.\Generated_Source\PSoC4/CyLib.c ****     CYASSERT(number < CY_NUM_INTERRUPTS);
2328:.\Generated_Source\PSoC4/CyLib.c **** 
2329:.\Generated_Source\PSoC4/CyLib.c ****     return (ramVectorTable[CY_INT_IRQ_BASE + number]);
 1633              		.loc 1 2329 0
 1634 0000 024B     		ldr	r3, .L171
 1635 0002 8000     		lsl	r0, r0, #2
 1636              	.LVL117:
 1637 0004 C018     		add	r0, r0, r3
 1638 0006 0068     		ldr	r0, [r0]
2330:.\Generated_Source\PSoC4/CyLib.c **** }
 1639              		.loc 1 2330 0
 1640              		@ sp needed
 1641 0008 7047     		bx	lr
 1642              	.L172:
 1643 000a C046     		.align	2
 1644              	.L171:
 1645 000c 40000020 		.word	536870976
 1646              		.cfi_endproc
 1647              	.LFE40:
 1648              		.size	CyIntGetVector, .-CyIntGetVector
 1649              		.section	.text.CyIntSetPriority,"ax",%progbits
 1650              		.align	1
 1651              		.global	CyIntSetPriority
 1652              		.code	16
 1653              		.thumb_func
 1654              		.type	CyIntSetPriority, %function
 1655              	CyIntSetPriority:
 1656              	.LFB41:
2331:.\Generated_Source\PSoC4/CyLib.c **** 
2332:.\Generated_Source\PSoC4/CyLib.c **** /*******************************************************************************
2333:.\Generated_Source\PSoC4/CyLib.c **** * Function Name: CyIntSetPriority
2334:.\Generated_Source\PSoC4/CyLib.c **** ********************************************************************************
2335:.\Generated_Source\PSoC4/CyLib.c **** *
2336:.\Generated_Source\PSoC4/CyLib.c **** * Summary:
2337:.\Generated_Source\PSoC4/CyLib.c **** *  Sets the priority of the interrupt.
2338:.\Generated_Source\PSoC4/CyLib.c **** *
2339:.\Generated_Source\PSoC4/CyLib.c **** * Parameters:
2340:.\Generated_Source\PSoC4/CyLib.c **** *  priority: Priority of the interrupt. 0 - 3, 0 being the highest.
2341:.\Generated_Source\PSoC4/CyLib.c **** *  number: The number of the interrupt, 0 - 31.
2342:.\Generated_Source\PSoC4/CyLib.c **** *
2343:.\Generated_Source\PSoC4/CyLib.c **** * Return:
2344:.\Generated_Source\PSoC4/CyLib.c **** *  None
2345:.\Generated_Source\PSoC4/CyLib.c **** *
2346:.\Generated_Source\PSoC4/CyLib.c **** *******************************************************************************/
2347:.\Generated_Source\PSoC4/CyLib.c **** void CyIntSetPriority(uint8 number, uint8 priority)
2348:.\Generated_Source\PSoC4/CyLib.c **** {
 1657              		.loc 1 2348 0
 1658              		.cfi_startproc
 1659              	.LVL118:
 1660 0000 38B5     		push	{r3, r4, r5, lr}
 1661              		.cfi_def_cfa_offset 16
 1662              		.cfi_offset 3, -16
 1663              		.cfi_offset 4, -12
 1664              		.cfi_offset 5, -8
 1665              		.cfi_offset 14, -4
ARM GAS  C:\Users\Pablo\AppData\Local\Temp\ccDGsedh.s 			page 73


 1666              		.loc 1 2348 0
 1667 0002 041C     		mov	r4, r0
 1668              	.LVL119:
 1669 0004 0D1C     		mov	r5, r1
2349:.\Generated_Source\PSoC4/CyLib.c ****     uint8 interruptState;
2350:.\Generated_Source\PSoC4/CyLib.c ****     uint32 shift;
2351:.\Generated_Source\PSoC4/CyLib.c ****     uint32 value;
2352:.\Generated_Source\PSoC4/CyLib.c **** 
2353:.\Generated_Source\PSoC4/CyLib.c ****     CYASSERT(priority <= CY_MIN_PRIORITY);
2354:.\Generated_Source\PSoC4/CyLib.c ****     CYASSERT(number < CY_NUM_INTERRUPTS);
2355:.\Generated_Source\PSoC4/CyLib.c **** 
2356:.\Generated_Source\PSoC4/CyLib.c ****     shift = CY_INT_PRIORITY_SHIFT(number);
2357:.\Generated_Source\PSoC4/CyLib.c **** 
2358:.\Generated_Source\PSoC4/CyLib.c ****     interruptState = CyEnterCriticalSection();
 1670              		.loc 1 2358 0
 1671 0006 FFF7FEFF 		bl	CyEnterCriticalSection
 1672              	.LVL120:
2359:.\Generated_Source\PSoC4/CyLib.c **** 
2360:.\Generated_Source\PSoC4/CyLib.c ****     value = CY_INT_PRIORITY_REG(number);
 1673              		.loc 1 2360 0
 1674 000a A308     		lsr	r3, r4, #2
 1675 000c 084A     		ldr	r2, .L174
 1676 000e 9B00     		lsl	r3, r3, #2
 1677 0010 9B18     		add	r3, r3, r2
2356:.\Generated_Source\PSoC4/CyLib.c ****     shift = CY_INT_PRIORITY_SHIFT(number);
 1678              		.loc 1 2356 0
 1679 0012 0322     		mov	r2, #3
 1680 0014 1440     		and	r4, r2
 1681              	.LVL121:
 1682 0016 9440     		lsl	r4, r4, r2
 1683              		.loc 1 2360 0
 1684 0018 1968     		ldr	r1, [r3]
 1685              	.LVL122:
2356:.\Generated_Source\PSoC4/CyLib.c ****     shift = CY_INT_PRIORITY_SHIFT(number);
 1686              		.loc 1 2356 0
 1687 001a 0634     		add	r4, r4, #6
2361:.\Generated_Source\PSoC4/CyLib.c ****     value &= (uint32)(~((uint32)(CY_INT_PRIORITY_MASK << shift)));
 1688              		.loc 1 2361 0
 1689 001c A240     		lsl	r2, r2, r4
 1690 001e 9143     		bic	r1, r2
 1691              	.LVL123:
2362:.\Generated_Source\PSoC4/CyLib.c ****     value |= ((uint32)priority << shift);
 1692              		.loc 1 2362 0
 1693 0020 A540     		lsl	r5, r5, r4
 1694 0022 0C1C     		mov	r4, r1
 1695 0024 2C43     		orr	r4, r5
 1696              	.LVL124:
2363:.\Generated_Source\PSoC4/CyLib.c ****     CY_INT_PRIORITY_REG(number) = value;
 1697              		.loc 1 2363 0
 1698 0026 1C60     		str	r4, [r3]
2364:.\Generated_Source\PSoC4/CyLib.c **** 
2365:.\Generated_Source\PSoC4/CyLib.c ****     CyExitCriticalSection(interruptState);
 1699              		.loc 1 2365 0
 1700 0028 FFF7FEFF 		bl	CyExitCriticalSection
 1701              	.LVL125:
2366:.\Generated_Source\PSoC4/CyLib.c **** }
 1702              		.loc 1 2366 0
ARM GAS  C:\Users\Pablo\AppData\Local\Temp\ccDGsedh.s 			page 74


 1703              		@ sp needed
 1704              	.LVL126:
 1705 002c 38BD     		pop	{r3, r4, r5, pc}
 1706              	.L175:
 1707 002e C046     		.align	2
 1708              	.L174:
 1709 0030 00E400E0 		.word	-536812544
 1710              		.cfi_endproc
 1711              	.LFE41:
 1712              		.size	CyIntSetPriority, .-CyIntSetPriority
 1713              		.section	.text.CyIntGetPriority,"ax",%progbits
 1714              		.align	1
 1715              		.global	CyIntGetPriority
 1716              		.code	16
 1717              		.thumb_func
 1718              		.type	CyIntGetPriority, %function
 1719              	CyIntGetPriority:
 1720              	.LFB42:
2367:.\Generated_Source\PSoC4/CyLib.c **** 
2368:.\Generated_Source\PSoC4/CyLib.c **** 
2369:.\Generated_Source\PSoC4/CyLib.c **** /*******************************************************************************
2370:.\Generated_Source\PSoC4/CyLib.c **** * Function Name: CyIntGetPriority
2371:.\Generated_Source\PSoC4/CyLib.c **** ********************************************************************************
2372:.\Generated_Source\PSoC4/CyLib.c **** *
2373:.\Generated_Source\PSoC4/CyLib.c **** * Summary:
2374:.\Generated_Source\PSoC4/CyLib.c **** *  Gets the priority of the interrupt.
2375:.\Generated_Source\PSoC4/CyLib.c **** *
2376:.\Generated_Source\PSoC4/CyLib.c **** * Parameters:
2377:.\Generated_Source\PSoC4/CyLib.c **** *  number: The number of the interrupt, 0 - 31.
2378:.\Generated_Source\PSoC4/CyLib.c **** *
2379:.\Generated_Source\PSoC4/CyLib.c **** * Return:
2380:.\Generated_Source\PSoC4/CyLib.c **** *  Priority of the interrupt. 0 - 3, 0 being the highest.
2381:.\Generated_Source\PSoC4/CyLib.c **** *
2382:.\Generated_Source\PSoC4/CyLib.c **** *******************************************************************************/
2383:.\Generated_Source\PSoC4/CyLib.c **** uint8 CyIntGetPriority(uint8 number)
2384:.\Generated_Source\PSoC4/CyLib.c **** {
 1721              		.loc 1 2384 0
 1722              		.cfi_startproc
 1723              	.LVL127:
2385:.\Generated_Source\PSoC4/CyLib.c ****     uint8 priority;
2386:.\Generated_Source\PSoC4/CyLib.c **** 
2387:.\Generated_Source\PSoC4/CyLib.c ****     CYASSERT(number < CY_NUM_INTERRUPTS);
2388:.\Generated_Source\PSoC4/CyLib.c **** 
2389:.\Generated_Source\PSoC4/CyLib.c ****     priority = (uint8) (CY_INT_PRIORITY_REG(number) >> CY_INT_PRIORITY_SHIFT(number));
 1724              		.loc 1 2389 0
 1725 0000 8308     		lsr	r3, r0, #2
 1726 0002 064A     		ldr	r2, .L177
 1727 0004 9B00     		lsl	r3, r3, #2
 1728 0006 9B18     		add	r3, r3, r2
 1729 0008 1A68     		ldr	r2, [r3]
 1730              	.LVL128:
 1731 000a 0323     		mov	r3, #3
 1732 000c 1840     		and	r0, r3
 1733              	.LVL129:
 1734 000e 9840     		lsl	r0, r0, r3
 1735 0010 0630     		add	r0, r0, #6
 1736 0012 C240     		lsr	r2, r2, r0
ARM GAS  C:\Users\Pablo\AppData\Local\Temp\ccDGsedh.s 			page 75


 1737 0014 101C     		mov	r0, r2
2390:.\Generated_Source\PSoC4/CyLib.c **** 
2391:.\Generated_Source\PSoC4/CyLib.c ****     return (priority & (uint8) CY_INT_PRIORITY_MASK);
 1738              		.loc 1 2391 0
 1739 0016 1840     		and	r0, r3
2392:.\Generated_Source\PSoC4/CyLib.c **** }
 1740              		.loc 1 2392 0
 1741              		@ sp needed
 1742 0018 7047     		bx	lr
 1743              	.L178:
 1744 001a C046     		.align	2
 1745              	.L177:
 1746 001c 00E400E0 		.word	-536812544
 1747              		.cfi_endproc
 1748              	.LFE42:
 1749              		.size	CyIntGetPriority, .-CyIntGetPriority
 1750              		.section	.text.CyIntEnable,"ax",%progbits
 1751              		.align	1
 1752              		.global	CyIntEnable
 1753              		.code	16
 1754              		.thumb_func
 1755              		.type	CyIntEnable, %function
 1756              	CyIntEnable:
 1757              	.LFB43:
2393:.\Generated_Source\PSoC4/CyLib.c **** 
2394:.\Generated_Source\PSoC4/CyLib.c **** 
2395:.\Generated_Source\PSoC4/CyLib.c **** /*******************************************************************************
2396:.\Generated_Source\PSoC4/CyLib.c **** * Function Name: CyIntEnable
2397:.\Generated_Source\PSoC4/CyLib.c **** ********************************************************************************
2398:.\Generated_Source\PSoC4/CyLib.c **** *
2399:.\Generated_Source\PSoC4/CyLib.c **** * Summary:
2400:.\Generated_Source\PSoC4/CyLib.c **** *  Enables the specified interrupt number.
2401:.\Generated_Source\PSoC4/CyLib.c **** *
2402:.\Generated_Source\PSoC4/CyLib.c **** * Parameters:
2403:.\Generated_Source\PSoC4/CyLib.c **** *  number: Valid range [0-31].  Interrupt number
2404:.\Generated_Source\PSoC4/CyLib.c **** *
2405:.\Generated_Source\PSoC4/CyLib.c **** * Return:
2406:.\Generated_Source\PSoC4/CyLib.c **** *  None
2407:.\Generated_Source\PSoC4/CyLib.c **** *
2408:.\Generated_Source\PSoC4/CyLib.c **** *******************************************************************************/
2409:.\Generated_Source\PSoC4/CyLib.c **** void CyIntEnable(uint8 number)
2410:.\Generated_Source\PSoC4/CyLib.c **** {
 1758              		.loc 1 2410 0
 1759              		.cfi_startproc
 1760              	.LVL130:
2411:.\Generated_Source\PSoC4/CyLib.c ****     CY_INT_ENABLE_REG = ((uint32) 0x01u << (CY_INT_ENABLE_RANGE_MASK & number));
 1761              		.loc 1 2411 0
 1762 0000 1F23     		mov	r3, #31
 1763 0002 1840     		and	r0, r3
 1764              	.LVL131:
 1765 0004 0123     		mov	r3, #1
 1766 0006 8340     		lsl	r3, r3, r0
 1767 0008 181C     		mov	r0, r3
 1768 000a 014B     		ldr	r3, .L180
2412:.\Generated_Source\PSoC4/CyLib.c **** }
 1769              		.loc 1 2412 0
 1770              		@ sp needed
ARM GAS  C:\Users\Pablo\AppData\Local\Temp\ccDGsedh.s 			page 76


2411:.\Generated_Source\PSoC4/CyLib.c ****     CY_INT_ENABLE_REG = ((uint32) 0x01u << (CY_INT_ENABLE_RANGE_MASK & number));
 1771              		.loc 1 2411 0
 1772 000c 1860     		str	r0, [r3]
 1773              		.loc 1 2412 0
 1774 000e 7047     		bx	lr
 1775              	.L181:
 1776              		.align	2
 1777              	.L180:
 1778 0010 00E100E0 		.word	-536813312
 1779              		.cfi_endproc
 1780              	.LFE43:
 1781              		.size	CyIntEnable, .-CyIntEnable
 1782              		.section	.text.CyIntGetState,"ax",%progbits
 1783              		.align	1
 1784              		.global	CyIntGetState
 1785              		.code	16
 1786              		.thumb_func
 1787              		.type	CyIntGetState, %function
 1788              	CyIntGetState:
 1789              	.LFB44:
2413:.\Generated_Source\PSoC4/CyLib.c **** 
2414:.\Generated_Source\PSoC4/CyLib.c **** 
2415:.\Generated_Source\PSoC4/CyLib.c **** /*******************************************************************************
2416:.\Generated_Source\PSoC4/CyLib.c **** * Function Name: CyIntGetState
2417:.\Generated_Source\PSoC4/CyLib.c **** ********************************************************************************
2418:.\Generated_Source\PSoC4/CyLib.c **** *
2419:.\Generated_Source\PSoC4/CyLib.c **** * Summary:
2420:.\Generated_Source\PSoC4/CyLib.c **** *  Gets the enable state of the specified interrupt number.
2421:.\Generated_Source\PSoC4/CyLib.c **** *
2422:.\Generated_Source\PSoC4/CyLib.c **** * Parameters:
2423:.\Generated_Source\PSoC4/CyLib.c **** *  number: Valid range [0-31].  Interrupt number.
2424:.\Generated_Source\PSoC4/CyLib.c **** *
2425:.\Generated_Source\PSoC4/CyLib.c **** * Return:
2426:.\Generated_Source\PSoC4/CyLib.c **** *  Enable status: 1 if enabled, 0 if disabled
2427:.\Generated_Source\PSoC4/CyLib.c **** *
2428:.\Generated_Source\PSoC4/CyLib.c **** *******************************************************************************/
2429:.\Generated_Source\PSoC4/CyLib.c **** uint8 CyIntGetState(uint8 number)
2430:.\Generated_Source\PSoC4/CyLib.c **** {
 1790              		.loc 1 2430 0
 1791              		.cfi_startproc
 1792              	.LVL132:
2431:.\Generated_Source\PSoC4/CyLib.c ****     /* Get state of interrupt. */
2432:.\Generated_Source\PSoC4/CyLib.c ****     return ((0u != (CY_INT_ENABLE_REG & ((uint32) 0x01u << (CY_INT_ENABLE_RANGE_MASK & number)))) ?
 1793              		.loc 1 2432 0
 1794 0000 044B     		ldr	r3, .L183
 1795 0002 1F22     		mov	r2, #31
 1796 0004 1B68     		ldr	r3, [r3]
 1797 0006 1040     		and	r0, r2
 1798              	.LVL133:
 1799 0008 C340     		lsr	r3, r3, r0
 1800 000a 181C     		mov	r0, r3
 1801 000c 0123     		mov	r3, #1
 1802 000e 1840     		and	r0, r3
2433:.\Generated_Source\PSoC4/CyLib.c **** }
 1803              		.loc 1 2433 0
 1804              		@ sp needed
 1805 0010 7047     		bx	lr
ARM GAS  C:\Users\Pablo\AppData\Local\Temp\ccDGsedh.s 			page 77


 1806              	.L184:
 1807 0012 C046     		.align	2
 1808              	.L183:
 1809 0014 00E100E0 		.word	-536813312
 1810              		.cfi_endproc
 1811              	.LFE44:
 1812              		.size	CyIntGetState, .-CyIntGetState
 1813              		.section	.text.CyIntDisable,"ax",%progbits
 1814              		.align	1
 1815              		.global	CyIntDisable
 1816              		.code	16
 1817              		.thumb_func
 1818              		.type	CyIntDisable, %function
 1819              	CyIntDisable:
 1820              	.LFB45:
2434:.\Generated_Source\PSoC4/CyLib.c **** 
2435:.\Generated_Source\PSoC4/CyLib.c **** 
2436:.\Generated_Source\PSoC4/CyLib.c **** /*******************************************************************************
2437:.\Generated_Source\PSoC4/CyLib.c **** * Function Name: CyIntDisable
2438:.\Generated_Source\PSoC4/CyLib.c **** ********************************************************************************
2439:.\Generated_Source\PSoC4/CyLib.c **** *
2440:.\Generated_Source\PSoC4/CyLib.c **** * Summary:
2441:.\Generated_Source\PSoC4/CyLib.c **** *   Disables the specified interrupt number.
2442:.\Generated_Source\PSoC4/CyLib.c **** *
2443:.\Generated_Source\PSoC4/CyLib.c **** * Parameters:
2444:.\Generated_Source\PSoC4/CyLib.c **** *   number: Valid range [0-31].  Interrupt number.
2445:.\Generated_Source\PSoC4/CyLib.c **** *
2446:.\Generated_Source\PSoC4/CyLib.c **** * Return:
2447:.\Generated_Source\PSoC4/CyLib.c **** *  None
2448:.\Generated_Source\PSoC4/CyLib.c **** *
2449:.\Generated_Source\PSoC4/CyLib.c **** *******************************************************************************/
2450:.\Generated_Source\PSoC4/CyLib.c **** void CyIntDisable(uint8 number)
2451:.\Generated_Source\PSoC4/CyLib.c **** {
 1821              		.loc 1 2451 0
 1822              		.cfi_startproc
 1823              	.LVL134:
2452:.\Generated_Source\PSoC4/CyLib.c ****     CY_INT_CLEAR_REG = ((uint32) 0x01u << (CY_INT_ENABLE_RANGE_MASK & number));
 1824              		.loc 1 2452 0
 1825 0000 1F23     		mov	r3, #31
 1826 0002 1840     		and	r0, r3
 1827              	.LVL135:
 1828 0004 0123     		mov	r3, #1
 1829 0006 8340     		lsl	r3, r3, r0
 1830 0008 181C     		mov	r0, r3
 1831 000a 014B     		ldr	r3, .L186
2453:.\Generated_Source\PSoC4/CyLib.c **** }
 1832              		.loc 1 2453 0
 1833              		@ sp needed
2452:.\Generated_Source\PSoC4/CyLib.c ****     CY_INT_CLEAR_REG = ((uint32) 0x01u << (CY_INT_ENABLE_RANGE_MASK & number));
 1834              		.loc 1 2452 0
 1835 000c 1860     		str	r0, [r3]
 1836              		.loc 1 2453 0
 1837 000e 7047     		bx	lr
 1838              	.L187:
 1839              		.align	2
 1840              	.L186:
 1841 0010 80E100E0 		.word	-536813184
ARM GAS  C:\Users\Pablo\AppData\Local\Temp\ccDGsedh.s 			page 78


 1842              		.cfi_endproc
 1843              	.LFE45:
 1844              		.size	CyIntDisable, .-CyIntDisable
 1845              		.section	.text.CyIntSetPending,"ax",%progbits
 1846              		.align	1
 1847              		.global	CyIntSetPending
 1848              		.code	16
 1849              		.thumb_func
 1850              		.type	CyIntSetPending, %function
 1851              	CyIntSetPending:
 1852              	.LFB46:
2454:.\Generated_Source\PSoC4/CyLib.c **** 
2455:.\Generated_Source\PSoC4/CyLib.c **** /*******************************************************************************
2456:.\Generated_Source\PSoC4/CyLib.c **** * Function Name: CyIntSetPending
2457:.\Generated_Source\PSoC4/CyLib.c **** ********************************************************************************
2458:.\Generated_Source\PSoC4/CyLib.c **** *
2459:.\Generated_Source\PSoC4/CyLib.c **** * Summary:
2460:.\Generated_Source\PSoC4/CyLib.c **** *  Forces the specified interrupt number to be pending.
2461:.\Generated_Source\PSoC4/CyLib.c **** *
2462:.\Generated_Source\PSoC4/CyLib.c **** * Parameters:
2463:.\Generated_Source\PSoC4/CyLib.c **** *  number: Valid range [0-31].  Interrupt number.
2464:.\Generated_Source\PSoC4/CyLib.c **** *
2465:.\Generated_Source\PSoC4/CyLib.c **** * Return:
2466:.\Generated_Source\PSoC4/CyLib.c **** *  None
2467:.\Generated_Source\PSoC4/CyLib.c **** *
2468:.\Generated_Source\PSoC4/CyLib.c **** *******************************************************************************/
2469:.\Generated_Source\PSoC4/CyLib.c **** void CyIntSetPending(uint8 number)
2470:.\Generated_Source\PSoC4/CyLib.c **** {
 1853              		.loc 1 2470 0
 1854              		.cfi_startproc
 1855              	.LVL136:
2471:.\Generated_Source\PSoC4/CyLib.c ****     CY_INT_SET_PEND_REG = ((uint32) 0x01u << (CY_INT_ENABLE_RANGE_MASK & number));
 1856              		.loc 1 2471 0
 1857 0000 1F23     		mov	r3, #31
 1858 0002 1840     		and	r0, r3
 1859              	.LVL137:
 1860 0004 0123     		mov	r3, #1
 1861 0006 8340     		lsl	r3, r3, r0
 1862 0008 181C     		mov	r0, r3
 1863 000a 014B     		ldr	r3, .L189
2472:.\Generated_Source\PSoC4/CyLib.c **** }
 1864              		.loc 1 2472 0
 1865              		@ sp needed
2471:.\Generated_Source\PSoC4/CyLib.c ****     CY_INT_SET_PEND_REG = ((uint32) 0x01u << (CY_INT_ENABLE_RANGE_MASK & number));
 1866              		.loc 1 2471 0
 1867 000c 1860     		str	r0, [r3]
 1868              		.loc 1 2472 0
 1869 000e 7047     		bx	lr
 1870              	.L190:
 1871              		.align	2
 1872              	.L189:
 1873 0010 00E200E0 		.word	-536813056
 1874              		.cfi_endproc
 1875              	.LFE46:
 1876              		.size	CyIntSetPending, .-CyIntSetPending
 1877              		.section	.text.CyIntClearPending,"ax",%progbits
 1878              		.align	1
ARM GAS  C:\Users\Pablo\AppData\Local\Temp\ccDGsedh.s 			page 79


 1879              		.global	CyIntClearPending
 1880              		.code	16
 1881              		.thumb_func
 1882              		.type	CyIntClearPending, %function
 1883              	CyIntClearPending:
 1884              	.LFB47:
2473:.\Generated_Source\PSoC4/CyLib.c **** 
2474:.\Generated_Source\PSoC4/CyLib.c **** 
2475:.\Generated_Source\PSoC4/CyLib.c **** /*******************************************************************************
2476:.\Generated_Source\PSoC4/CyLib.c **** * Function Name: CyIntClearPending
2477:.\Generated_Source\PSoC4/CyLib.c **** ********************************************************************************
2478:.\Generated_Source\PSoC4/CyLib.c **** *
2479:.\Generated_Source\PSoC4/CyLib.c **** * Summary:
2480:.\Generated_Source\PSoC4/CyLib.c **** *  Clears any pending interrupt for the specified interrupt number.
2481:.\Generated_Source\PSoC4/CyLib.c **** *
2482:.\Generated_Source\PSoC4/CyLib.c **** * Parameters:
2483:.\Generated_Source\PSoC4/CyLib.c **** *  number: Valid range [0-31].  Interrupt number.
2484:.\Generated_Source\PSoC4/CyLib.c **** *
2485:.\Generated_Source\PSoC4/CyLib.c **** * Return:
2486:.\Generated_Source\PSoC4/CyLib.c **** *  None
2487:.\Generated_Source\PSoC4/CyLib.c **** *
2488:.\Generated_Source\PSoC4/CyLib.c **** *******************************************************************************/
2489:.\Generated_Source\PSoC4/CyLib.c **** void CyIntClearPending(uint8 number)
2490:.\Generated_Source\PSoC4/CyLib.c **** {
 1885              		.loc 1 2490 0
 1886              		.cfi_startproc
 1887              	.LVL138:
2491:.\Generated_Source\PSoC4/CyLib.c ****     CY_INT_CLR_PEND_REG = ((uint32) 0x01u << (CY_INT_ENABLE_RANGE_MASK & number));
 1888              		.loc 1 2491 0
 1889 0000 1F23     		mov	r3, #31
 1890 0002 1840     		and	r0, r3
 1891              	.LVL139:
 1892 0004 0123     		mov	r3, #1
 1893 0006 8340     		lsl	r3, r3, r0
 1894 0008 181C     		mov	r0, r3
 1895 000a 014B     		ldr	r3, .L192
2492:.\Generated_Source\PSoC4/CyLib.c **** }
 1896              		.loc 1 2492 0
 1897              		@ sp needed
2491:.\Generated_Source\PSoC4/CyLib.c ****     CY_INT_CLR_PEND_REG = ((uint32) 0x01u << (CY_INT_ENABLE_RANGE_MASK & number));
 1898              		.loc 1 2491 0
 1899 000c 1860     		str	r0, [r3]
 1900              		.loc 1 2492 0
 1901 000e 7047     		bx	lr
 1902              	.L193:
 1903              		.align	2
 1904              	.L192:
 1905 0010 80E200E0 		.word	-536812928
 1906              		.cfi_endproc
 1907              	.LFE47:
 1908              		.size	CyIntClearPending, .-CyIntClearPending
 1909              		.section	.text.CyHalt,"ax",%progbits
 1910              		.align	1
 1911              		.global	CyHalt
 1912              		.code	16
 1913              		.thumb_func
 1914              		.type	CyHalt, %function
ARM GAS  C:\Users\Pablo\AppData\Local\Temp\ccDGsedh.s 			page 80


 1915              	CyHalt:
 1916              	.LFB48:
2493:.\Generated_Source\PSoC4/CyLib.c **** 
2494:.\Generated_Source\PSoC4/CyLib.c **** 
2495:.\Generated_Source\PSoC4/CyLib.c **** /*******************************************************************************
2496:.\Generated_Source\PSoC4/CyLib.c **** * Function Name: CyHalt
2497:.\Generated_Source\PSoC4/CyLib.c **** ********************************************************************************
2498:.\Generated_Source\PSoC4/CyLib.c **** *
2499:.\Generated_Source\PSoC4/CyLib.c **** * Summary:
2500:.\Generated_Source\PSoC4/CyLib.c **** *  Halts the CPU.
2501:.\Generated_Source\PSoC4/CyLib.c **** *
2502:.\Generated_Source\PSoC4/CyLib.c **** * Parameters:
2503:.\Generated_Source\PSoC4/CyLib.c **** *  reason: Value to be used during debugging.
2504:.\Generated_Source\PSoC4/CyLib.c **** *
2505:.\Generated_Source\PSoC4/CyLib.c **** * Return:
2506:.\Generated_Source\PSoC4/CyLib.c **** *  None
2507:.\Generated_Source\PSoC4/CyLib.c **** *
2508:.\Generated_Source\PSoC4/CyLib.c **** *******************************************************************************/
2509:.\Generated_Source\PSoC4/CyLib.c **** void CyHalt(uint8 reason)
2510:.\Generated_Source\PSoC4/CyLib.c **** {
 1917              		.loc 1 2510 0
 1918              		.cfi_startproc
 1919              	.LVL140:
2511:.\Generated_Source\PSoC4/CyLib.c ****     if(0u != reason)
2512:.\Generated_Source\PSoC4/CyLib.c ****     {
2513:.\Generated_Source\PSoC4/CyLib.c ****         /* To remove unreferenced local variable warning */
2514:.\Generated_Source\PSoC4/CyLib.c ****     }
2515:.\Generated_Source\PSoC4/CyLib.c **** 
2516:.\Generated_Source\PSoC4/CyLib.c ****     #if defined (__ARMCC_VERSION)
2517:.\Generated_Source\PSoC4/CyLib.c ****         __breakpoint(0x0);
2518:.\Generated_Source\PSoC4/CyLib.c ****     #elif defined(__GNUC__) || defined (__ICCARM__)
2519:.\Generated_Source\PSoC4/CyLib.c ****         __asm("    bkpt    1");
 1920              		.loc 1 2519 0
 1921              	@ 2519 ".\Generated_Source\PSoC4\CyLib.c" 1
 1922 0000 01BE     		    bkpt    1
 1923              	@ 0 "" 2
2520:.\Generated_Source\PSoC4/CyLib.c ****     #elif defined(__C51__)
2521:.\Generated_Source\PSoC4/CyLib.c ****         CYDEV_HALT_CPU;
2522:.\Generated_Source\PSoC4/CyLib.c ****     #endif  /* (__ARMCC_VERSION) */
2523:.\Generated_Source\PSoC4/CyLib.c **** }
 1924              		.loc 1 2523 0
 1925              		.code	16
 1926              		@ sp needed
 1927 0002 7047     		bx	lr
 1928              		.cfi_endproc
 1929              	.LFE48:
 1930              		.size	CyHalt, .-CyHalt
 1931              		.section	.text.CySoftwareReset,"ax",%progbits
 1932              		.align	1
 1933              		.global	CySoftwareReset
 1934              		.code	16
 1935              		.thumb_func
 1936              		.type	CySoftwareReset, %function
 1937              	CySoftwareReset:
 1938              	.LFB49:
2524:.\Generated_Source\PSoC4/CyLib.c **** 
2525:.\Generated_Source\PSoC4/CyLib.c **** 
ARM GAS  C:\Users\Pablo\AppData\Local\Temp\ccDGsedh.s 			page 81


2526:.\Generated_Source\PSoC4/CyLib.c **** /*******************************************************************************
2527:.\Generated_Source\PSoC4/CyLib.c **** * Function Name: CySoftwareReset
2528:.\Generated_Source\PSoC4/CyLib.c **** ********************************************************************************
2529:.\Generated_Source\PSoC4/CyLib.c **** *
2530:.\Generated_Source\PSoC4/CyLib.c **** * Summary:
2531:.\Generated_Source\PSoC4/CyLib.c **** *  Forces a software reset of the device.
2532:.\Generated_Source\PSoC4/CyLib.c **** *
2533:.\Generated_Source\PSoC4/CyLib.c **** * Parameters:
2534:.\Generated_Source\PSoC4/CyLib.c **** *  None
2535:.\Generated_Source\PSoC4/CyLib.c **** *
2536:.\Generated_Source\PSoC4/CyLib.c **** * Return:
2537:.\Generated_Source\PSoC4/CyLib.c **** *  None
2538:.\Generated_Source\PSoC4/CyLib.c **** *
2539:.\Generated_Source\PSoC4/CyLib.c **** *******************************************************************************/
2540:.\Generated_Source\PSoC4/CyLib.c **** void CySoftwareReset(void)
2541:.\Generated_Source\PSoC4/CyLib.c **** {
 1939              		.loc 1 2541 0
 1940              		.cfi_startproc
2542:.\Generated_Source\PSoC4/CyLib.c ****     /***************************************************************************
2543:.\Generated_Source\PSoC4/CyLib.c ****     * Setting the system reset request bit. The vector key value must be written
2544:.\Generated_Source\PSoC4/CyLib.c ****     * to the register, otherwise the register write is unpredictable.
2545:.\Generated_Source\PSoC4/CyLib.c ****     ***************************************************************************/
2546:.\Generated_Source\PSoC4/CyLib.c ****     CY_SYS_CM0_AIRCR_REG = (CY_SYS_CM0_AIRCR_REG & (uint32)(~CY_SYS_CM0_AIRCR_VECTKEY_MASK)) |
 1941              		.loc 1 2546 0
 1942 0000 034B     		ldr	r3, .L196
2547:.\Generated_Source\PSoC4/CyLib.c ****                             CY_SYS_CM0_AIRCR_VECTKEY | CY_SYS_CM0_AIRCR_SYSRESETREQ;
 1943              		.loc 1 2547 0
 1944 0002 0449     		ldr	r1, .L196+4
2546:.\Generated_Source\PSoC4/CyLib.c ****     CY_SYS_CM0_AIRCR_REG = (CY_SYS_CM0_AIRCR_REG & (uint32)(~CY_SYS_CM0_AIRCR_VECTKEY_MASK)) |
 1945              		.loc 1 2546 0
 1946 0004 1A68     		ldr	r2, [r3]
2548:.\Generated_Source\PSoC4/CyLib.c **** }
 1947              		.loc 1 2548 0
 1948              		@ sp needed
2546:.\Generated_Source\PSoC4/CyLib.c ****     CY_SYS_CM0_AIRCR_REG = (CY_SYS_CM0_AIRCR_REG & (uint32)(~CY_SYS_CM0_AIRCR_VECTKEY_MASK)) |
 1949              		.loc 1 2546 0
 1950 0006 92B2     		uxth	r2, r2
2547:.\Generated_Source\PSoC4/CyLib.c ****                             CY_SYS_CM0_AIRCR_VECTKEY | CY_SYS_CM0_AIRCR_SYSRESETREQ;
 1951              		.loc 1 2547 0
 1952 0008 0A43     		orr	r2, r1
2546:.\Generated_Source\PSoC4/CyLib.c ****     CY_SYS_CM0_AIRCR_REG = (CY_SYS_CM0_AIRCR_REG & (uint32)(~CY_SYS_CM0_AIRCR_VECTKEY_MASK)) |
 1953              		.loc 1 2546 0
 1954 000a 1A60     		str	r2, [r3]
 1955              		.loc 1 2548 0
 1956 000c 7047     		bx	lr
 1957              	.L197:
 1958 000e C046     		.align	2
 1959              	.L196:
 1960 0010 0CED00E0 		.word	-536810228
 1961 0014 0400FA05 		.word	100270084
 1962              		.cfi_endproc
 1963              	.LFE49:
 1964              		.size	CySoftwareReset, .-CySoftwareReset
 1965              		.section	.text.CyDelay,"ax",%progbits
 1966              		.align	1
 1967              		.global	CyDelay
 1968              		.code	16
ARM GAS  C:\Users\Pablo\AppData\Local\Temp\ccDGsedh.s 			page 82


 1969              		.thumb_func
 1970              		.type	CyDelay, %function
 1971              	CyDelay:
 1972              	.LFB50:
2549:.\Generated_Source\PSoC4/CyLib.c **** 
2550:.\Generated_Source\PSoC4/CyLib.c **** 
2551:.\Generated_Source\PSoC4/CyLib.c **** /*******************************************************************************
2552:.\Generated_Source\PSoC4/CyLib.c **** * Function Name: CyDelay
2553:.\Generated_Source\PSoC4/CyLib.c **** ********************************************************************************
2554:.\Generated_Source\PSoC4/CyLib.c **** *
2555:.\Generated_Source\PSoC4/CyLib.c **** * Summary:
2556:.\Generated_Source\PSoC4/CyLib.c **** *  Blocks for milliseconds.
2557:.\Generated_Source\PSoC4/CyLib.c **** *
2558:.\Generated_Source\PSoC4/CyLib.c **** * Parameters:
2559:.\Generated_Source\PSoC4/CyLib.c **** *  milliseconds: number of milliseconds to delay.
2560:.\Generated_Source\PSoC4/CyLib.c **** *
2561:.\Generated_Source\PSoC4/CyLib.c **** * Return:
2562:.\Generated_Source\PSoC4/CyLib.c **** *  None
2563:.\Generated_Source\PSoC4/CyLib.c **** *
2564:.\Generated_Source\PSoC4/CyLib.c **** *******************************************************************************/
2565:.\Generated_Source\PSoC4/CyLib.c **** void CyDelay(uint32 milliseconds)
2566:.\Generated_Source\PSoC4/CyLib.c **** {
 1973              		.loc 1 2566 0
 1974              		.cfi_startproc
 1975              	.LVL141:
 1976 0000 10B5     		push	{r4, lr}
 1977              		.cfi_def_cfa_offset 8
 1978              		.cfi_offset 4, -8
 1979              		.cfi_offset 14, -4
 1980 0002 041C     		mov	r4, r0
 1981              	.LVL142:
 1982              	.L199:
2567:.\Generated_Source\PSoC4/CyLib.c ****     while (milliseconds > CY_DELAY_MS_OVERFLOW)
 1983              		.loc 1 2567 0 discriminator 1
 1984 0004 8022     		mov	r2, #128
 1985 0006 074B     		ldr	r3, .L202
 1986 0008 1202     		lsl	r2, r2, #8
 1987 000a 9442     		cmp	r4, r2
 1988 000c 05D9     		bls	.L201
2568:.\Generated_Source\PSoC4/CyLib.c ****     {
2569:.\Generated_Source\PSoC4/CyLib.c ****         /* This loop prevents overflow.
2570:.\Generated_Source\PSoC4/CyLib.c ****          * At 100MHz, milliseconds * cydelayFreqKhz overflows at about 42 seconds
2571:.\Generated_Source\PSoC4/CyLib.c ****          */
2572:.\Generated_Source\PSoC4/CyLib.c ****         CyDelayCycles(cydelay32kMs);
 1989              		.loc 1 2572 0
 1990 000e 1868     		ldr	r0, [r3]
 1991 0010 FFF7FEFF 		bl	CyDelayCycles
 1992              	.LVL143:
2573:.\Generated_Source\PSoC4/CyLib.c ****         milliseconds -= CY_DELAY_MS_OVERFLOW;
 1993              		.loc 1 2573 0
 1994 0014 044B     		ldr	r3, .L202+4
 1995 0016 E418     		add	r4, r4, r3
 1996              	.LVL144:
 1997 0018 F4E7     		b	.L199
 1998              	.L201:
2574:.\Generated_Source\PSoC4/CyLib.c ****     }
2575:.\Generated_Source\PSoC4/CyLib.c **** 
ARM GAS  C:\Users\Pablo\AppData\Local\Temp\ccDGsedh.s 			page 83


2576:.\Generated_Source\PSoC4/CyLib.c ****     CyDelayCycles(milliseconds * cydelayFreqKhz);
 1999              		.loc 1 2576 0
 2000 001a 5868     		ldr	r0, [r3, #4]
2577:.\Generated_Source\PSoC4/CyLib.c **** }
 2001              		.loc 1 2577 0
 2002              		@ sp needed
2576:.\Generated_Source\PSoC4/CyLib.c ****     CyDelayCycles(milliseconds * cydelayFreqKhz);
 2003              		.loc 1 2576 0
 2004 001c 6043     		mul	r0, r4
 2005 001e FFF7FEFF 		bl	CyDelayCycles
 2006              	.LVL145:
 2007              	.LVL146:
 2008              		.loc 1 2577 0
 2009 0022 10BD     		pop	{r4, pc}
 2010              	.L203:
 2011              		.align	2
 2012              	.L202:
 2013 0024 00000000 		.word	.LANCHOR1
 2014 0028 0080FFFF 		.word	-32768
 2015              		.cfi_endproc
 2016              	.LFE50:
 2017              		.size	CyDelay, .-CyDelay
 2018              		.section	.text.CyDelayUs,"ax",%progbits
 2019              		.align	1
 2020              		.global	CyDelayUs
 2021              		.code	16
 2022              		.thumb_func
 2023              		.type	CyDelayUs, %function
 2024              	CyDelayUs:
 2025              	.LFB51:
2578:.\Generated_Source\PSoC4/CyLib.c **** 
2579:.\Generated_Source\PSoC4/CyLib.c **** 
2580:.\Generated_Source\PSoC4/CyLib.c **** /*******************************************************************************
2581:.\Generated_Source\PSoC4/CyLib.c **** * Function Name: CyDelayUs
2582:.\Generated_Source\PSoC4/CyLib.c **** ********************************************************************************
2583:.\Generated_Source\PSoC4/CyLib.c **** * Summary:
2584:.\Generated_Source\PSoC4/CyLib.c **** *  Blocks for microseconds.
2585:.\Generated_Source\PSoC4/CyLib.c **** *
2586:.\Generated_Source\PSoC4/CyLib.c **** * Parameters:
2587:.\Generated_Source\PSoC4/CyLib.c **** *  microseconds: number of microseconds to delay.
2588:.\Generated_Source\PSoC4/CyLib.c **** *
2589:.\Generated_Source\PSoC4/CyLib.c **** * Return:
2590:.\Generated_Source\PSoC4/CyLib.c **** *  None
2591:.\Generated_Source\PSoC4/CyLib.c **** *
2592:.\Generated_Source\PSoC4/CyLib.c **** *******************************************************************************/
2593:.\Generated_Source\PSoC4/CyLib.c **** void CyDelayUs(uint16 microseconds)
2594:.\Generated_Source\PSoC4/CyLib.c **** {
 2026              		.loc 1 2594 0
 2027              		.cfi_startproc
 2028              	.LVL147:
 2029 0000 08B5     		push	{r3, lr}
 2030              		.cfi_def_cfa_offset 8
 2031              		.cfi_offset 3, -8
 2032              		.cfi_offset 14, -4
2595:.\Generated_Source\PSoC4/CyLib.c ****     CyDelayCycles((uint32)microseconds * cydelayFreqMhz);
 2033              		.loc 1 2595 0
 2034 0002 034B     		ldr	r3, .L205
ARM GAS  C:\Users\Pablo\AppData\Local\Temp\ccDGsedh.s 			page 84


2596:.\Generated_Source\PSoC4/CyLib.c **** }
 2035              		.loc 1 2596 0
 2036              		@ sp needed
2595:.\Generated_Source\PSoC4/CyLib.c ****     CyDelayCycles((uint32)microseconds * cydelayFreqMhz);
 2037              		.loc 1 2595 0
 2038 0004 1B7A     		ldrb	r3, [r3, #8]
 2039 0006 5843     		mul	r0, r3
 2040              	.LVL148:
 2041 0008 FFF7FEFF 		bl	CyDelayCycles
 2042              	.LVL149:
 2043              		.loc 1 2596 0
 2044 000c 08BD     		pop	{r3, pc}
 2045              	.L206:
 2046 000e C046     		.align	2
 2047              	.L205:
 2048 0010 00000000 		.word	.LANCHOR1
 2049              		.cfi_endproc
 2050              	.LFE51:
 2051              		.size	CyDelayUs, .-CyDelayUs
 2052              		.section	.text.CySysClkWriteImoFreq,"ax",%progbits
 2053              		.align	1
 2054              		.global	CySysClkWriteImoFreq
 2055              		.code	16
 2056              		.thumb_func
 2057              		.type	CySysClkWriteImoFreq, %function
 2058              	CySysClkWriteImoFreq:
 2059              	.LFB7:
 431:.\Generated_Source\PSoC4/CyLib.c ****     {
 2060              		.loc 1 431 0
 2061              		.cfi_startproc
 2062              	.LVL150:
 2063 0000 F0B5     		push	{r4, r5, r6, r7, lr}
 2064              		.cfi_def_cfa_offset 20
 2065              		.cfi_offset 4, -20
 2066              		.cfi_offset 5, -16
 2067              		.cfi_offset 6, -12
 2068              		.cfi_offset 7, -8
 2069              		.cfi_offset 14, -4
 439:.\Generated_Source\PSoC4/CyLib.c ****         if ((freq >= CY_SYS_CLK_IMO_MIN_FREQ_MHZ) && (freq <= CY_SYS_CLK_IMO_MAX_FREQ_MHZ))
 2070              		.loc 1 439 0
 2071 0002 C11E     		sub	r1, r0, #3
 431:.\Generated_Source\PSoC4/CyLib.c ****     {
 2072              		.loc 1 431 0
 2073 0004 85B0     		sub	sp, sp, #20
 2074              		.cfi_def_cfa_offset 40
 431:.\Generated_Source\PSoC4/CyLib.c ****     {
 2075              		.loc 1 431 0
 2076 0006 041C     		mov	r4, r0
 439:.\Generated_Source\PSoC4/CyLib.c ****         if ((freq >= CY_SYS_CLK_IMO_MIN_FREQ_MHZ) && (freq <= CY_SYS_CLK_IMO_MAX_FREQ_MHZ))
 2077              		.loc 1 439 0
 2078 0008 0291     		str	r1, [sp, #8]
 2079 000a 2D29     		cmp	r1, #45
 2080 000c 60D8     		bhi	.L207
 441:.\Generated_Source\PSoC4/CyLib.c ****             if(freq <= CY_SFLASH_IMO_MAXF0_REG)
 2081              		.loc 1 441 0
 2082 000e 314B     		ldr	r3, .L219
 2083 0010 1B78     		ldrb	r3, [r3]
ARM GAS  C:\Users\Pablo\AppData\Local\Temp\ccDGsedh.s 			page 85


 2084 0012 9842     		cmp	r0, r3
 2085 0014 04D8     		bhi	.L209
 443:.\Generated_Source\PSoC4/CyLib.c ****                 bgTrim4 = CY_SFLASH_IMO_ABS0_REG;
 2086              		.loc 1 443 0
 2087 0016 304B     		ldr	r3, .L219+4
 2088 0018 1D78     		ldrb	r5, [r3]
 444:.\Generated_Source\PSoC4/CyLib.c ****                 bgTrim5 = CY_SFLASH_IMO_TMPCO0_REG;
 2089              		.loc 1 444 0
 2090 001a 304B     		ldr	r3, .L219+8
 443:.\Generated_Source\PSoC4/CyLib.c ****                 bgTrim4 = CY_SFLASH_IMO_ABS0_REG;
 2091              		.loc 1 443 0
 2092 001c EDB2     		uxtb	r5, r5
 2093              	.LVL151:
 2094 001e 1EE0     		b	.L217
 2095              	.LVL152:
 2096              	.L209:
 446:.\Generated_Source\PSoC4/CyLib.c ****             else if(freq <= CY_SFLASH_IMO_MAXF1_REG)
 2097              		.loc 1 446 0
 2098 0020 2F4B     		ldr	r3, .L219+12
 2099 0022 1B78     		ldrb	r3, [r3]
 2100 0024 9842     		cmp	r0, r3
 2101 0026 04D8     		bhi	.L211
 448:.\Generated_Source\PSoC4/CyLib.c ****                 bgTrim4 = CY_SFLASH_IMO_ABS1_REG;
 2102              		.loc 1 448 0
 2103 0028 2E4B     		ldr	r3, .L219+16
 2104 002a 1D78     		ldrb	r5, [r3]
 449:.\Generated_Source\PSoC4/CyLib.c ****                 bgTrim5 = CY_SFLASH_IMO_TMPCO1_REG;
 2105              		.loc 1 449 0
 2106 002c 2E4B     		ldr	r3, .L219+20
 448:.\Generated_Source\PSoC4/CyLib.c ****                 bgTrim4 = CY_SFLASH_IMO_ABS1_REG;
 2107              		.loc 1 448 0
 2108 002e EDB2     		uxtb	r5, r5
 2109              	.LVL153:
 2110 0030 15E0     		b	.L217
 2111              	.LVL154:
 2112              	.L211:
 451:.\Generated_Source\PSoC4/CyLib.c ****             else if(freq <= CY_SFLASH_IMO_MAXF2_REG)
 2113              		.loc 1 451 0
 2114 0032 2E4B     		ldr	r3, .L219+24
 2115 0034 1B78     		ldrb	r3, [r3]
 2116 0036 9842     		cmp	r0, r3
 2117 0038 04D8     		bhi	.L212
 453:.\Generated_Source\PSoC4/CyLib.c ****                 bgTrim4 = CY_SFLASH_IMO_ABS2_REG;
 2118              		.loc 1 453 0
 2119 003a 2D4B     		ldr	r3, .L219+28
 2120 003c 1D78     		ldrb	r5, [r3]
 454:.\Generated_Source\PSoC4/CyLib.c ****                 bgTrim5 = CY_SFLASH_IMO_TMPCO2_REG;
 2121              		.loc 1 454 0
 2122 003e 2D4B     		ldr	r3, .L219+32
 453:.\Generated_Source\PSoC4/CyLib.c ****                 bgTrim4 = CY_SFLASH_IMO_ABS2_REG;
 2123              		.loc 1 453 0
 2124 0040 EDB2     		uxtb	r5, r5
 2125              	.LVL155:
 2126 0042 0CE0     		b	.L217
 2127              	.LVL156:
 2128              	.L212:
 456:.\Generated_Source\PSoC4/CyLib.c ****             else if(freq <= CY_SFLASH_IMO_MAXF3_REG)
ARM GAS  C:\Users\Pablo\AppData\Local\Temp\ccDGsedh.s 			page 86


 2129              		.loc 1 456 0
 2130 0044 2C4B     		ldr	r3, .L219+36
 2131 0046 1B78     		ldrb	r3, [r3]
 2132 0048 9842     		cmp	r0, r3
 2133 004a 04D8     		bhi	.L213
 458:.\Generated_Source\PSoC4/CyLib.c ****                 bgTrim4 = CY_SFLASH_IMO_ABS3_REG;
 2134              		.loc 1 458 0
 2135 004c 2B4B     		ldr	r3, .L219+40
 2136 004e 1D78     		ldrb	r5, [r3]
 459:.\Generated_Source\PSoC4/CyLib.c ****                 bgTrim5 = CY_SFLASH_IMO_TMPCO3_REG;
 2137              		.loc 1 459 0
 2138 0050 2B4B     		ldr	r3, .L219+44
 458:.\Generated_Source\PSoC4/CyLib.c ****                 bgTrim4 = CY_SFLASH_IMO_ABS3_REG;
 2139              		.loc 1 458 0
 2140 0052 EDB2     		uxtb	r5, r5
 2141              	.LVL157:
 2142 0054 03E0     		b	.L217
 2143              	.LVL158:
 2144              	.L213:
 463:.\Generated_Source\PSoC4/CyLib.c ****                 bgTrim4 = CY_SFLASH_IMO_ABS4_REG;
 2145              		.loc 1 463 0
 2146 0056 2B4B     		ldr	r3, .L219+48
 2147 0058 1D78     		ldrb	r5, [r3]
 464:.\Generated_Source\PSoC4/CyLib.c ****                 bgTrim5 = CY_SFLASH_IMO_TMPCO4_REG;
 2148              		.loc 1 464 0
 2149 005a 2B4B     		ldr	r3, .L219+52
 463:.\Generated_Source\PSoC4/CyLib.c ****                 bgTrim4 = CY_SFLASH_IMO_ABS4_REG;
 2150              		.loc 1 463 0
 2151 005c EDB2     		uxtb	r5, r5
 2152              	.LVL159:
 2153              	.L217:
 468:.\Generated_Source\PSoC4/CyLib.c ****             newImoTrim2Value = cyImoFreqMhz2Reg[freq - CY_SYS_CLK_IMO_FREQ_TABLE_OFFSET];
 2154              		.loc 1 468 0
 2155 005e 2B4E     		ldr	r6, .L219+56
 2156 0060 029A     		ldr	r2, [sp, #8]
 464:.\Generated_Source\PSoC4/CyLib.c ****                 bgTrim5 = CY_SFLASH_IMO_TMPCO4_REG;
 2157              		.loc 1 464 0
 2158 0062 1B78     		ldrb	r3, [r3]
 468:.\Generated_Source\PSoC4/CyLib.c ****             newImoTrim2Value = cyImoFreqMhz2Reg[freq - CY_SYS_CLK_IMO_FREQ_TABLE_OFFSET];
 2159              		.loc 1 468 0
 2160 0064 B25C     		ldrb	r2, [r6, r2]
 464:.\Generated_Source\PSoC4/CyLib.c ****                 bgTrim5 = CY_SFLASH_IMO_TMPCO4_REG;
 2161              		.loc 1 464 0
 2162 0066 DBB2     		uxtb	r3, r3
 2163 0068 0093     		str	r3, [sp]
 2164              	.LVL160:
 468:.\Generated_Source\PSoC4/CyLib.c ****             newImoTrim2Value = cyImoFreqMhz2Reg[freq - CY_SYS_CLK_IMO_FREQ_TABLE_OFFSET];
 2165              		.loc 1 468 0
 2166 006a 0192     		str	r2, [sp, #4]
 2167              	.LVL161:
 471:.\Generated_Source\PSoC4/CyLib.c ****             interruptState = CyEnterCriticalSection();
 2168              		.loc 1 471 0
 2169 006c FFF7FEFF 		bl	CyEnterCriticalSection
 2170              	.LVL162:
 482:.\Generated_Source\PSoC4/CyLib.c ****             if ((newImoTrim2Value >= CY_SYS_CLK_IMO_BOUNDARY_FREQ_TRIM2) && (freq >= CY_SYS_CLK_IMO
 2171              		.loc 1 482 0
 2172 0070 019B     		ldr	r3, [sp, #4]
ARM GAS  C:\Users\Pablo\AppData\Local\Temp\ccDGsedh.s 			page 87


 471:.\Generated_Source\PSoC4/CyLib.c ****             interruptState = CyEnterCriticalSection();
 2173              		.loc 1 471 0
 2174 0072 0390     		str	r0, [sp, #12]
 2175              	.LVL163:
 2176 0074 264E     		ldr	r6, .L219+60
 482:.\Generated_Source\PSoC4/CyLib.c ****             if ((newImoTrim2Value >= CY_SYS_CLK_IMO_BOUNDARY_FREQ_TRIM2) && (freq >= CY_SYS_CLK_IMO
 2177              		.loc 1 482 0
 2178 0076 2F2B     		cmp	r3, #47
 2179 0078 04D9     		bls	.L214
 482:.\Generated_Source\PSoC4/CyLib.c ****             if ((newImoTrim2Value >= CY_SYS_CLK_IMO_BOUNDARY_FREQ_TRIM2) && (freq >= CY_SYS_CLK_IMO
 2180              		.loc 1 482 0 is_stmt 0 discriminator 1
 2181 007a 2A2C     		cmp	r4, #42
 2182 007c 02D9     		bls	.L214
 485:.\Generated_Source\PSoC4/CyLib.c ****                 CY_SYS_CLK_IMO_TRIM2_REG = (uint32) cyImoFreqMhz2Reg[CY_SYS_CLK_IMO_TEMP_FREQ_MHZ -
 2183              		.loc 1 485 0 is_stmt 1
 2184 007e 1927     		mov	r7, #25
 2185 0080 3760     		str	r7, [r6]
 2186 0082 07E0     		b	.L218
 2187              	.L214:
 494:.\Generated_Source\PSoC4/CyLib.c ****                 currentImoTrim2Value = (uint8) (CY_SYS_CLK_IMO_TRIM2_REG & CY_SYS_CLK_IMO_FREQ_BITS
 2188              		.loc 1 494 0
 2189 0084 3768     		ldr	r7, [r6]
 506:.\Generated_Source\PSoC4/CyLib.c ****             if (newImoTrim2Value < currentImoTrim2Value)
 2190              		.loc 1 506 0
 2191 0086 0199     		ldr	r1, [sp, #4]
 494:.\Generated_Source\PSoC4/CyLib.c ****                 currentImoTrim2Value = (uint8) (CY_SYS_CLK_IMO_TRIM2_REG & CY_SYS_CLK_IMO_FREQ_BITS
 2192              		.loc 1 494 0
 2193 0088 3F23     		mov	r3, #63
 2194 008a 1F40     		and	r7, r3
 2195              	.LVL164:
 506:.\Generated_Source\PSoC4/CyLib.c ****             if (newImoTrim2Value < currentImoTrim2Value)
 2196              		.loc 1 506 0
 2197 008c B942     		cmp	r1, r7
 2198 008e 04D2     		bcs	.L215
 509:.\Generated_Source\PSoC4/CyLib.c ****                 CY_SYS_CLK_IMO_TRIM2_REG = cyImoFreqMhz2Reg[freq - CY_SYS_CLK_IMO_FREQ_TABLE_OFFSET
 2199              		.loc 1 509 0
 2200 0090 1F4B     		ldr	r3, .L219+60
 2201 0092 1960     		str	r1, [r3]
 2202              	.LVL165:
 2203              	.L218:
 510:.\Generated_Source\PSoC4/CyLib.c ****                 CyDelayCycles(CY_SYS_CLK_IMO_FREQ_TIMEOUT_CYCLES);
 2204              		.loc 1 510 0
 2205 0094 0520     		mov	r0, #5
 2206 0096 FFF7FEFF 		bl	CyDelayCycles
 2207              	.LVL166:
 2208              	.L215:
 514:.\Generated_Source\PSoC4/CyLib.c ****             CY_SYS_CLK_IMO_TRIM1_REG = (uint32) CY_SFLASH_IMO_TRIM_REG(freq - CY_SYS_CLK_IMO_FREQ_T
 2209              		.loc 1 514 0
 2210 009a 1B4A     		ldr	r2, .L219+52
 2211 009c 1D4B     		ldr	r3, .L219+64
 2212 009e A418     		add	r4, r4, r2
 2213              	.LVL167:
 2214 00a0 2278     		ldrb	r2, [r4]
 516:.\Generated_Source\PSoC4/CyLib.c ****             CY_PWR_BG_TRIM5_REG  = bgTrim5;
 2215              		.loc 1 516 0
 2216 00a2 0099     		ldr	r1, [sp]
 514:.\Generated_Source\PSoC4/CyLib.c ****             CY_SYS_CLK_IMO_TRIM1_REG = (uint32) CY_SFLASH_IMO_TRIM_REG(freq - CY_SYS_CLK_IMO_FREQ_T
ARM GAS  C:\Users\Pablo\AppData\Local\Temp\ccDGsedh.s 			page 88


 2217              		.loc 1 514 0
 2218 00a4 D2B2     		uxtb	r2, r2
 2219 00a6 1A60     		str	r2, [r3]
 515:.\Generated_Source\PSoC4/CyLib.c ****             CY_PWR_BG_TRIM4_REG  = bgTrim4;
 2220              		.loc 1 515 0
 2221 00a8 1B4B     		ldr	r3, .L219+68
 517:.\Generated_Source\PSoC4/CyLib.c ****             CyDelayUs(CY_SYS_CLK_IMO_TRIM_TIMEOUT_US);
 2222              		.loc 1 517 0
 2223 00aa 0520     		mov	r0, #5
 515:.\Generated_Source\PSoC4/CyLib.c ****             CY_PWR_BG_TRIM4_REG  = bgTrim4;
 2224              		.loc 1 515 0
 2225 00ac 1D60     		str	r5, [r3]
 516:.\Generated_Source\PSoC4/CyLib.c ****             CY_PWR_BG_TRIM5_REG  = bgTrim5;
 2226              		.loc 1 516 0
 2227 00ae 1B4B     		ldr	r3, .L219+72
 2228 00b0 1960     		str	r1, [r3]
 517:.\Generated_Source\PSoC4/CyLib.c ****             CyDelayUs(CY_SYS_CLK_IMO_TRIM_TIMEOUT_US);
 2229              		.loc 1 517 0
 2230 00b2 FFF7FEFF 		bl	CyDelayUs
 2231              	.LVL168:
 519:.\Generated_Source\PSoC4/CyLib.c ****             if (newImoTrim2Value > currentImoTrim2Value)
 2232              		.loc 1 519 0
 2233 00b6 019A     		ldr	r2, [sp, #4]
 2234 00b8 BA42     		cmp	r2, r7
 2235 00ba 06D9     		bls	.L216
 522:.\Generated_Source\PSoC4/CyLib.c ****                 CY_SYS_CLK_IMO_TRIM2_REG = cyImoFreqMhz2Reg[freq - CY_SYS_CLK_IMO_FREQ_TABLE_OFFSET
 2236              		.loc 1 522 0
 2237 00bc 029A     		ldr	r2, [sp, #8]
 2238 00be 1349     		ldr	r1, .L219+56
 523:.\Generated_Source\PSoC4/CyLib.c ****                 CyDelayCycles(CY_SYS_CLK_IMO_FREQ_TIMEOUT_CYCLES);
 2239              		.loc 1 523 0
 2240 00c0 0520     		mov	r0, #5
 522:.\Generated_Source\PSoC4/CyLib.c ****                 CY_SYS_CLK_IMO_TRIM2_REG = cyImoFreqMhz2Reg[freq - CY_SYS_CLK_IMO_FREQ_TABLE_OFFSET
 2241              		.loc 1 522 0
 2242 00c2 8B5C     		ldrb	r3, [r1, r2]
 2243 00c4 3360     		str	r3, [r6]
 523:.\Generated_Source\PSoC4/CyLib.c ****                 CyDelayCycles(CY_SYS_CLK_IMO_FREQ_TIMEOUT_CYCLES);
 2244              		.loc 1 523 0
 2245 00c6 FFF7FEFF 		bl	CyDelayCycles
 2246              	.LVL169:
 2247              	.L216:
 526:.\Generated_Source\PSoC4/CyLib.c ****             CyExitCriticalSection(interruptState);
 2248              		.loc 1 526 0
 2249 00ca 0398     		ldr	r0, [sp, #12]
 2250 00cc FFF7FEFF 		bl	CyExitCriticalSection
 2251              	.LVL170:
 2252              	.L207:
 533:.\Generated_Source\PSoC4/CyLib.c ****     }
 2253              		.loc 1 533 0
 2254 00d0 05B0     		add	sp, sp, #20
 2255              		@ sp needed
 2256 00d2 F0BD     		pop	{r4, r5, r6, r7, pc}
 2257              	.L220:
 2258              		.align	2
 2259              	.L219:
 2260 00d4 C0F1FF0F 		.word	268431808
 2261 00d8 C1F1FF0F 		.word	268431809
ARM GAS  C:\Users\Pablo\AppData\Local\Temp\ccDGsedh.s 			page 89


 2262 00dc C2F1FF0F 		.word	268431810
 2263 00e0 C3F1FF0F 		.word	268431811
 2264 00e4 C4F1FF0F 		.word	268431812
 2265 00e8 C5F1FF0F 		.word	268431813
 2266 00ec C6F1FF0F 		.word	268431814
 2267 00f0 C7F1FF0F 		.word	268431815
 2268 00f4 C8F1FF0F 		.word	268431816
 2269 00f8 C9F1FF0F 		.word	268431817
 2270 00fc CAF1FF0F 		.word	268431818
 2271 0100 CBF1FF0F 		.word	268431819
 2272 0104 CCF1FF0F 		.word	268431820
 2273 0108 CDF1FF0F 		.word	268431821
 2274 010c 00000000 		.word	.LANCHOR2
 2275 0110 2CFF0B40 		.word	1074528044
 2276 0114 28FF0B40 		.word	1074528040
 2277 0118 1CFF0B40 		.word	1074528028
 2278 011c 20FF0B40 		.word	1074528032
 2279              		.cfi_endproc
 2280              	.LFE7:
 2281              		.size	CySysClkWriteImoFreq, .-CySysClkWriteImoFreq
 2282              		.section	.text.CySysWdtWriteMatch,"ax",%progbits
 2283              		.align	1
 2284              		.global	CySysWdtWriteMatch
 2285              		.code	16
 2286              		.thumb_func
 2287              		.type	CySysWdtWriteMatch, %function
 2288              	CySysWdtWriteMatch:
 2289              	.LFB20:
1410:.\Generated_Source\PSoC4/CyLib.c ****     {
 2290              		.loc 1 1410 0
 2291              		.cfi_startproc
 2292              	.LVL171:
 2293 0000 38B5     		push	{r3, r4, r5, lr}
 2294              		.cfi_def_cfa_offset 16
 2295              		.cfi_offset 3, -16
 2296              		.cfi_offset 4, -12
 2297              		.cfi_offset 5, -8
 2298              		.cfi_offset 14, -4
1410:.\Generated_Source\PSoC4/CyLib.c ****     {
 2299              		.loc 1 1410 0
 2300 0002 051C     		mov	r5, r0
1417:.\Generated_Source\PSoC4/CyLib.c ****         CyDelayUs(CY_SYS_WDT_3LFCLK_DELAY_US);
 2301              		.loc 1 1417 0
 2302 0004 C920     		mov	r0, #201
 2303              	.LVL172:
1410:.\Generated_Source\PSoC4/CyLib.c ****     {
 2304              		.loc 1 1410 0
 2305 0006 0C1C     		mov	r4, r1
1417:.\Generated_Source\PSoC4/CyLib.c ****         CyDelayUs(CY_SYS_WDT_3LFCLK_DELAY_US);
 2306              		.loc 1 1417 0
 2307 0008 FFF7FEFF 		bl	CyDelayUs
 2308              	.LVL173:
1419:.\Generated_Source\PSoC4/CyLib.c ****         regValue = CY_SYS_WDT_MATCH_REG;
 2309              		.loc 1 1419 0
 2310 000c 064B     		ldr	r3, .L222
1420:.\Generated_Source\PSoC4/CyLib.c ****         regValue &= (uint32)~((uint32)(CY_SYS_WDT_LOWER_16BITS_MASK << (counterNum * CY_SYS_WDT_CNT
 2311              		.loc 1 1420 0
ARM GAS  C:\Users\Pablo\AppData\Local\Temp\ccDGsedh.s 			page 90


 2312 000e 0749     		ldr	r1, .L222+4
 2313 0010 2801     		lsl	r0, r5, #4
1419:.\Generated_Source\PSoC4/CyLib.c ****         regValue = CY_SYS_WDT_MATCH_REG;
 2314              		.loc 1 1419 0
 2315 0012 1A68     		ldr	r2, [r3]
 2316              	.LVL174:
1420:.\Generated_Source\PSoC4/CyLib.c ****         regValue &= (uint32)~((uint32)(CY_SYS_WDT_LOWER_16BITS_MASK << (counterNum * CY_SYS_WDT_CNT
 2317              		.loc 1 1420 0
 2318 0014 8140     		lsl	r1, r1, r0
 2319 0016 8A43     		bic	r2, r1
 2320              	.LVL175:
1421:.\Generated_Source\PSoC4/CyLib.c ****         CY_SYS_WDT_MATCH_REG = (regValue | (match << (counterNum * CY_SYS_WDT_CNT_MATCH_SHIFT)));
 2321              		.loc 1 1421 0
 2322 0018 8440     		lsl	r4, r4, r0
 2323              	.LVL176:
 2324 001a 101C     		mov	r0, r2
 2325 001c 2043     		orr	r0, r4
 2326 001e 1860     		str	r0, [r3]
1424:.\Generated_Source\PSoC4/CyLib.c ****         CyDelayUs(CY_SYS_WDT_1LFCLK_DELAY_US);
 2327              		.loc 1 1424 0
 2328 0020 4320     		mov	r0, #67
 2329 0022 FFF7FEFF 		bl	CyDelayUs
 2330              	.LVL177:
1425:.\Generated_Source\PSoC4/CyLib.c ****     }
 2331              		.loc 1 1425 0
 2332              		@ sp needed
 2333              	.LVL178:
 2334 0026 38BD     		pop	{r3, r4, r5, pc}
 2335              	.L223:
 2336              		.align	2
 2337              	.L222:
 2338 0028 08020B40 		.word	1074463240
 2339 002c FFFF0000 		.word	65535
 2340              		.cfi_endproc
 2341              	.LFE20:
 2342              		.size	CySysWdtWriteMatch, .-CySysWdtWriteMatch
 2343              		.global	__aeabi_uidiv
 2344              		.section	.text.CyDelayFreq,"ax",%progbits
 2345              		.align	1
 2346              		.global	CyDelayFreq
 2347              		.code	16
 2348              		.thumb_func
 2349              		.type	CyDelayFreq, %function
 2350              	CyDelayFreq:
 2351              	.LFB52:
2597:.\Generated_Source\PSoC4/CyLib.c **** 
2598:.\Generated_Source\PSoC4/CyLib.c **** 
2599:.\Generated_Source\PSoC4/CyLib.c **** /*******************************************************************************
2600:.\Generated_Source\PSoC4/CyLib.c **** * Function Name: CyDelayFreq
2601:.\Generated_Source\PSoC4/CyLib.c **** ********************************************************************************
2602:.\Generated_Source\PSoC4/CyLib.c **** * Summary:
2603:.\Generated_Source\PSoC4/CyLib.c **** *  Sets clock frequency for CyDelay.
2604:.\Generated_Source\PSoC4/CyLib.c **** *
2605:.\Generated_Source\PSoC4/CyLib.c **** * Parameters:
2606:.\Generated_Source\PSoC4/CyLib.c **** *  freq: Frequency of bus clock in Hertz.
2607:.\Generated_Source\PSoC4/CyLib.c **** *
2608:.\Generated_Source\PSoC4/CyLib.c **** * Return:
ARM GAS  C:\Users\Pablo\AppData\Local\Temp\ccDGsedh.s 			page 91


2609:.\Generated_Source\PSoC4/CyLib.c **** *  None
2610:.\Generated_Source\PSoC4/CyLib.c **** *
2611:.\Generated_Source\PSoC4/CyLib.c **** *******************************************************************************/
2612:.\Generated_Source\PSoC4/CyLib.c **** void CyDelayFreq(uint32 freq)
2613:.\Generated_Source\PSoC4/CyLib.c **** {
 2352              		.loc 1 2613 0
 2353              		.cfi_startproc
 2354              	.LVL179:
 2355 0000 38B5     		push	{r3, r4, r5, lr}
 2356              		.cfi_def_cfa_offset 16
 2357              		.cfi_offset 3, -16
 2358              		.cfi_offset 4, -12
 2359              		.cfi_offset 5, -8
 2360              		.cfi_offset 14, -4
 2361 0002 0C4C     		ldr	r4, .L227
2614:.\Generated_Source\PSoC4/CyLib.c ****     if (freq != 0u)
 2362              		.loc 1 2614 0
 2363 0004 0028     		cmp	r0, #0
 2364 0006 01D0     		beq	.L225
2615:.\Generated_Source\PSoC4/CyLib.c ****     {
2616:.\Generated_Source\PSoC4/CyLib.c ****         cydelayFreqHz = freq;
 2365              		.loc 1 2616 0
 2366 0008 E060     		str	r0, [r4, #12]
 2367 000a 01E0     		b	.L226
 2368              	.L225:
2617:.\Generated_Source\PSoC4/CyLib.c ****     }
2618:.\Generated_Source\PSoC4/CyLib.c ****     else
2619:.\Generated_Source\PSoC4/CyLib.c ****     {
2620:.\Generated_Source\PSoC4/CyLib.c ****         cydelayFreqHz = CYDEV_BCLK__SYSCLK__HZ;
 2369              		.loc 1 2620 0
 2370 000c 0A4B     		ldr	r3, .L227+4
 2371 000e E360     		str	r3, [r4, #12]
 2372              	.L226:
2621:.\Generated_Source\PSoC4/CyLib.c ****     }
2622:.\Generated_Source\PSoC4/CyLib.c **** 
2623:.\Generated_Source\PSoC4/CyLib.c ****     cydelayFreqMhz = (uint8)((cydelayFreqHz + CY_DELAY_1M_MINUS_1_THRESHOLD) / CY_DELAY_1M_THRESHOL
 2373              		.loc 1 2623 0
 2374 0010 E568     		ldr	r5, [r4, #12]
 2375 0012 0A4B     		ldr	r3, .L227+8
 2376 0014 0A49     		ldr	r1, .L227+12
 2377 0016 E818     		add	r0, r5, r3
 2378              	.LVL180:
 2379 0018 FFF7FEFF 		bl	__aeabi_uidiv
 2380              	.LVL181:
2624:.\Generated_Source\PSoC4/CyLib.c ****     cydelayFreqKhz = (cydelayFreqHz + CY_DELAY_1K_MINUS_1_THRESHOLD) / CY_DELAY_1K_THRESHOLD;
 2381              		.loc 1 2624 0
 2382 001c 094B     		ldr	r3, .L227+16
 2383 001e FA21     		mov	r1, #250
2623:.\Generated_Source\PSoC4/CyLib.c ****     cydelayFreqMhz = (uint8)((cydelayFreqHz + CY_DELAY_1M_MINUS_1_THRESHOLD) / CY_DELAY_1M_THRESHOL
 2384              		.loc 1 2623 0
 2385 0020 2072     		strb	r0, [r4, #8]
 2386              		.loc 1 2624 0
 2387 0022 8900     		lsl	r1, r1, #2
 2388 0024 E818     		add	r0, r5, r3
 2389 0026 FFF7FEFF 		bl	__aeabi_uidiv
 2390              	.LVL182:
 2391 002a 6060     		str	r0, [r4, #4]
ARM GAS  C:\Users\Pablo\AppData\Local\Temp\ccDGsedh.s 			page 92


2625:.\Generated_Source\PSoC4/CyLib.c ****     cydelay32kMs   = CY_DELAY_MS_OVERFLOW * cydelayFreqKhz;
 2392              		.loc 1 2625 0
 2393 002c C003     		lsl	r0, r0, #15
 2394 002e 2060     		str	r0, [r4]
2626:.\Generated_Source\PSoC4/CyLib.c **** }
 2395              		.loc 1 2626 0
 2396              		@ sp needed
 2397 0030 38BD     		pop	{r3, r4, r5, pc}
 2398              	.L228:
 2399 0032 C046     		.align	2
 2400              	.L227:
 2401 0034 00000000 		.word	.LANCHOR1
 2402 0038 00366E01 		.word	24000000
 2403 003c 3F420F00 		.word	999999
 2404 0040 40420F00 		.word	1000000
 2405 0044 E7030000 		.word	999
 2406              		.cfi_endproc
 2407              	.LFE52:
 2408              		.size	CyDelayFreq, .-CyDelayFreq
 2409              		.section	.text.CySysTickInit,"ax",%progbits
 2410              		.align	1
 2411              		.global	CySysTickInit
 2412              		.code	16
 2413              		.thumb_func
 2414              		.type	CySysTickInit, %function
 2415              	CySysTickInit:
 2416              	.LFB54:
2627:.\Generated_Source\PSoC4/CyLib.c **** 
2628:.\Generated_Source\PSoC4/CyLib.c **** 
2629:.\Generated_Source\PSoC4/CyLib.c **** /*******************************************************************************
2630:.\Generated_Source\PSoC4/CyLib.c **** * Function Name: CySysTick_Start
2631:.\Generated_Source\PSoC4/CyLib.c **** ********************************************************************************
2632:.\Generated_Source\PSoC4/CyLib.c **** *
2633:.\Generated_Source\PSoC4/CyLib.c **** * Summary:
2634:.\Generated_Source\PSoC4/CyLib.c **** *  Starts the system timer (SysTick): configures SysTick to generate interrupt
2635:.\Generated_Source\PSoC4/CyLib.c **** *  every 1 ms and enables the interrupt.
2636:.\Generated_Source\PSoC4/CyLib.c **** *
2637:.\Generated_Source\PSoC4/CyLib.c **** * Parameters:
2638:.\Generated_Source\PSoC4/CyLib.c **** *  None
2639:.\Generated_Source\PSoC4/CyLib.c **** *
2640:.\Generated_Source\PSoC4/CyLib.c **** * Return:
2641:.\Generated_Source\PSoC4/CyLib.c **** *  None
2642:.\Generated_Source\PSoC4/CyLib.c **** *
2643:.\Generated_Source\PSoC4/CyLib.c **** * Side Effects:
2644:.\Generated_Source\PSoC4/CyLib.c **** *  Clears SysTick count flag if it was set.
2645:.\Generated_Source\PSoC4/CyLib.c **** *
2646:.\Generated_Source\PSoC4/CyLib.c **** *******************************************************************************/
2647:.\Generated_Source\PSoC4/CyLib.c **** void CySysTickStart(void)
2648:.\Generated_Source\PSoC4/CyLib.c **** {
2649:.\Generated_Source\PSoC4/CyLib.c ****     if (0u == CySysTickInitVar)
2650:.\Generated_Source\PSoC4/CyLib.c ****     {
2651:.\Generated_Source\PSoC4/CyLib.c ****         CySysTickInit();
2652:.\Generated_Source\PSoC4/CyLib.c ****         CySysTickInitVar = 1u;
2653:.\Generated_Source\PSoC4/CyLib.c ****     }
2654:.\Generated_Source\PSoC4/CyLib.c **** 
2655:.\Generated_Source\PSoC4/CyLib.c ****     CySysTickEnable();
2656:.\Generated_Source\PSoC4/CyLib.c **** }
ARM GAS  C:\Users\Pablo\AppData\Local\Temp\ccDGsedh.s 			page 93


2657:.\Generated_Source\PSoC4/CyLib.c **** 
2658:.\Generated_Source\PSoC4/CyLib.c **** 
2659:.\Generated_Source\PSoC4/CyLib.c **** /*******************************************************************************
2660:.\Generated_Source\PSoC4/CyLib.c **** * Function Name: CySysTickInit
2661:.\Generated_Source\PSoC4/CyLib.c **** ********************************************************************************
2662:.\Generated_Source\PSoC4/CyLib.c **** *
2663:.\Generated_Source\PSoC4/CyLib.c **** * Summary:
2664:.\Generated_Source\PSoC4/CyLib.c **** *  Sets CySysTickServiceCallbacks() as an ISR for the SysTick exception.
2665:.\Generated_Source\PSoC4/CyLib.c **** *  The clock source for the SysTick counter is set to the System Clock.
2666:.\Generated_Source\PSoC4/CyLib.c **** *  The SysTick reload value is configured for the timer to generate interrupt
2667:.\Generated_Source\PSoC4/CyLib.c **** *  every 1 ms. The System clock value is on the global variables cydelayFreqHz.
2668:.\Generated_Source\PSoC4/CyLib.c **** *  User is responsible for calling CyDelayFreq() function.
2669:.\Generated_Source\PSoC4/CyLib.c **** *  Initializes CySysTickCallbacks array.
2670:.\Generated_Source\PSoC4/CyLib.c **** *
2671:.\Generated_Source\PSoC4/CyLib.c **** * Parameters:
2672:.\Generated_Source\PSoC4/CyLib.c **** *  None
2673:.\Generated_Source\PSoC4/CyLib.c **** *
2674:.\Generated_Source\PSoC4/CyLib.c **** * Return:
2675:.\Generated_Source\PSoC4/CyLib.c **** *  None
2676:.\Generated_Source\PSoC4/CyLib.c **** *
2677:.\Generated_Source\PSoC4/CyLib.c **** * Side Effects:
2678:.\Generated_Source\PSoC4/CyLib.c **** *  Clears SysTick count flag if it was set
2679:.\Generated_Source\PSoC4/CyLib.c **** *
2680:.\Generated_Source\PSoC4/CyLib.c **** *******************************************************************************/
2681:.\Generated_Source\PSoC4/CyLib.c **** void CySysTickInit(void)
2682:.\Generated_Source\PSoC4/CyLib.c **** {
 2417              		.loc 1 2682 0
 2418              		.cfi_startproc
 2419              	.LVL183:
2683:.\Generated_Source\PSoC4/CyLib.c ****     uint32 i;
2684:.\Generated_Source\PSoC4/CyLib.c **** 
2685:.\Generated_Source\PSoC4/CyLib.c ****     for (i = 0u; i<CY_SYS_SYST_NUM_OF_CALLBACKS; i++)
2686:.\Generated_Source\PSoC4/CyLib.c ****     {
2687:.\Generated_Source\PSoC4/CyLib.c ****         CySysTickCallbacks[i] = (void *) 0;
 2420              		.loc 1 2687 0
 2421 0000 0C4B     		ldr	r3, .L230
2682:.\Generated_Source\PSoC4/CyLib.c **** {
 2422              		.loc 1 2682 0
 2423 0002 10B5     		push	{r4, lr}
 2424              		.cfi_def_cfa_offset 8
 2425              		.cfi_offset 4, -8
 2426              		.cfi_offset 14, -4
 2427              		.loc 1 2687 0
 2428 0004 0024     		mov	r4, #0
 2429 0006 DC60     		str	r4, [r3, #12]
 2430              	.LVL184:
 2431              	.LBB110:
 2432              	.LBB111:
2241:.\Generated_Source\PSoC4/CyLib.c ****     ramVectorTable[number] = address;
 2433              		.loc 1 2241 0
 2434 0008 0B4A     		ldr	r2, .L230+4
 2435              	.LBE111:
 2436              	.LBE110:
 2437              		.loc 1 2687 0
 2438 000a 1C61     		str	r4, [r3, #16]
 2439              	.LVL185:
 2440 000c 5C61     		str	r4, [r3, #20]
ARM GAS  C:\Users\Pablo\AppData\Local\Temp\ccDGsedh.s 			page 94


 2441              	.LVL186:
 2442 000e 9C61     		str	r4, [r3, #24]
 2443              	.LVL187:
 2444 0010 DC61     		str	r4, [r3, #28]
 2445              	.LVL188:
 2446              	.LBB114:
 2447              	.LBB112:
2241:.\Generated_Source\PSoC4/CyLib.c ****     ramVectorTable[number] = address;
 2448              		.loc 1 2241 0
 2449 0012 0A4B     		ldr	r3, .L230+8
 2450              	.LVL189:
 2451              	.LBE112:
 2452              	.LBE114:
2688:.\Generated_Source\PSoC4/CyLib.c ****     }
2689:.\Generated_Source\PSoC4/CyLib.c **** 
2690:.\Generated_Source\PSoC4/CyLib.c ****     (void) CyIntSetSysVector(CY_INT_SYSTICK_IRQN, &CySysTickServiceCallbacks);
2691:.\Generated_Source\PSoC4/CyLib.c **** 
2692:.\Generated_Source\PSoC4/CyLib.c ****     #if(CY_PSOC4_4100BL || CY_PSOC4_4200BL || CY_PSOC5)
2693:.\Generated_Source\PSoC4/CyLib.c ****         CySysTickSetClockSource(CY_SYS_SYST_CSR_CLK_SRC_SYSCLK);
2694:.\Generated_Source\PSoC4/CyLib.c ****     #endif /* (CY_PSOC4_4100BL || CY_PSOC4_4200BL || CY_PSOC5) */
2695:.\Generated_Source\PSoC4/CyLib.c **** 
2696:.\Generated_Source\PSoC4/CyLib.c ****     CySysTickSetReload(cydelayFreqHz/1000u);
 2453              		.loc 1 2696 0
 2454 0014 FA21     		mov	r1, #250
 2455              	.LBB115:
 2456              	.LBB113:
2241:.\Generated_Source\PSoC4/CyLib.c ****     ramVectorTable[number] = address;
 2457              		.loc 1 2241 0
 2458 0016 1A60     		str	r2, [r3]
 2459              	.LVL190:
 2460              	.LBE113:
 2461              	.LBE115:
 2462              		.loc 1 2696 0
 2463 0018 094B     		ldr	r3, .L230+12
 2464 001a 8900     		lsl	r1, r1, #2
 2465 001c D868     		ldr	r0, [r3, #12]
 2466 001e FFF7FEFF 		bl	__aeabi_uidiv
 2467              	.LVL191:
 2468              	.LBB116:
 2469              	.LBB117:
2697:.\Generated_Source\PSoC4/CyLib.c ****     CySysTickClear();
2698:.\Generated_Source\PSoC4/CyLib.c ****     CyIntEnable(CY_INT_SYSTICK_IRQN);
2699:.\Generated_Source\PSoC4/CyLib.c **** }
2700:.\Generated_Source\PSoC4/CyLib.c **** 
2701:.\Generated_Source\PSoC4/CyLib.c **** 
2702:.\Generated_Source\PSoC4/CyLib.c **** /*******************************************************************************
2703:.\Generated_Source\PSoC4/CyLib.c **** * Function Name: CySysTickEnable
2704:.\Generated_Source\PSoC4/CyLib.c **** ********************************************************************************
2705:.\Generated_Source\PSoC4/CyLib.c **** *
2706:.\Generated_Source\PSoC4/CyLib.c **** * Summary:
2707:.\Generated_Source\PSoC4/CyLib.c **** *  Enables the SysTick timer and its interrupt.
2708:.\Generated_Source\PSoC4/CyLib.c **** *
2709:.\Generated_Source\PSoC4/CyLib.c **** * Parameters:
2710:.\Generated_Source\PSoC4/CyLib.c **** *  None
2711:.\Generated_Source\PSoC4/CyLib.c **** *
2712:.\Generated_Source\PSoC4/CyLib.c **** * Return:
2713:.\Generated_Source\PSoC4/CyLib.c **** *  None
ARM GAS  C:\Users\Pablo\AppData\Local\Temp\ccDGsedh.s 			page 95


2714:.\Generated_Source\PSoC4/CyLib.c **** *
2715:.\Generated_Source\PSoC4/CyLib.c **** * Side Effects:
2716:.\Generated_Source\PSoC4/CyLib.c **** *  Clears SysTick count flag if it was set
2717:.\Generated_Source\PSoC4/CyLib.c **** *
2718:.\Generated_Source\PSoC4/CyLib.c **** *******************************************************************************/
2719:.\Generated_Source\PSoC4/CyLib.c **** void CySysTickEnable(void)
2720:.\Generated_Source\PSoC4/CyLib.c **** {
2721:.\Generated_Source\PSoC4/CyLib.c ****     CySysTickEnableInterrupt();
2722:.\Generated_Source\PSoC4/CyLib.c ****     CY_SYS_SYST_CSR_REG |= CY_SYS_SYST_CSR_ENABLE;
2723:.\Generated_Source\PSoC4/CyLib.c **** }
2724:.\Generated_Source\PSoC4/CyLib.c **** 
2725:.\Generated_Source\PSoC4/CyLib.c **** 
2726:.\Generated_Source\PSoC4/CyLib.c **** /*******************************************************************************
2727:.\Generated_Source\PSoC4/CyLib.c **** * Function Name: CySysTickStop
2728:.\Generated_Source\PSoC4/CyLib.c **** ********************************************************************************
2729:.\Generated_Source\PSoC4/CyLib.c **** *
2730:.\Generated_Source\PSoC4/CyLib.c **** * Summary:
2731:.\Generated_Source\PSoC4/CyLib.c **** *  Stops the system timer (SysTick).
2732:.\Generated_Source\PSoC4/CyLib.c **** *
2733:.\Generated_Source\PSoC4/CyLib.c **** * Parameters:
2734:.\Generated_Source\PSoC4/CyLib.c **** *  None
2735:.\Generated_Source\PSoC4/CyLib.c **** *
2736:.\Generated_Source\PSoC4/CyLib.c **** * Return:
2737:.\Generated_Source\PSoC4/CyLib.c **** *  None
2738:.\Generated_Source\PSoC4/CyLib.c **** *
2739:.\Generated_Source\PSoC4/CyLib.c **** * Side Effects:
2740:.\Generated_Source\PSoC4/CyLib.c **** *  Clears SysTick count flag if it was set
2741:.\Generated_Source\PSoC4/CyLib.c **** *
2742:.\Generated_Source\PSoC4/CyLib.c **** *******************************************************************************/
2743:.\Generated_Source\PSoC4/CyLib.c **** void CySysTickStop(void)
2744:.\Generated_Source\PSoC4/CyLib.c **** {
2745:.\Generated_Source\PSoC4/CyLib.c ****     CY_SYS_SYST_CSR_REG &= ((uint32) ~(CY_SYS_SYST_CSR_ENABLE));
2746:.\Generated_Source\PSoC4/CyLib.c **** }
2747:.\Generated_Source\PSoC4/CyLib.c **** 
2748:.\Generated_Source\PSoC4/CyLib.c **** 
2749:.\Generated_Source\PSoC4/CyLib.c **** /*******************************************************************************
2750:.\Generated_Source\PSoC4/CyLib.c **** * Function Name: CySysTickEnableInterrupt
2751:.\Generated_Source\PSoC4/CyLib.c **** ********************************************************************************
2752:.\Generated_Source\PSoC4/CyLib.c **** *
2753:.\Generated_Source\PSoC4/CyLib.c **** * Summary:
2754:.\Generated_Source\PSoC4/CyLib.c **** *  Enables the SysTick interrupt.
2755:.\Generated_Source\PSoC4/CyLib.c **** *
2756:.\Generated_Source\PSoC4/CyLib.c **** * Parameters:
2757:.\Generated_Source\PSoC4/CyLib.c **** *  None
2758:.\Generated_Source\PSoC4/CyLib.c **** *
2759:.\Generated_Source\PSoC4/CyLib.c **** * Return:
2760:.\Generated_Source\PSoC4/CyLib.c **** *  None
2761:.\Generated_Source\PSoC4/CyLib.c **** *
2762:.\Generated_Source\PSoC4/CyLib.c **** * Side Effects:
2763:.\Generated_Source\PSoC4/CyLib.c **** *  Clears SysTick count flag if it was set
2764:.\Generated_Source\PSoC4/CyLib.c **** *
2765:.\Generated_Source\PSoC4/CyLib.c **** *******************************************************************************/
2766:.\Generated_Source\PSoC4/CyLib.c **** void CySysTickEnableInterrupt(void)
2767:.\Generated_Source\PSoC4/CyLib.c **** {
2768:.\Generated_Source\PSoC4/CyLib.c ****     CY_SYS_SYST_CSR_REG |= CY_SYS_SYST_CSR_ENABLE_INT;
2769:.\Generated_Source\PSoC4/CyLib.c **** }
2770:.\Generated_Source\PSoC4/CyLib.c **** 
ARM GAS  C:\Users\Pablo\AppData\Local\Temp\ccDGsedh.s 			page 96


2771:.\Generated_Source\PSoC4/CyLib.c **** 
2772:.\Generated_Source\PSoC4/CyLib.c **** /*******************************************************************************
2773:.\Generated_Source\PSoC4/CyLib.c **** * Function Name: CySysTickDisableInterrupt
2774:.\Generated_Source\PSoC4/CyLib.c **** ********************************************************************************
2775:.\Generated_Source\PSoC4/CyLib.c **** *
2776:.\Generated_Source\PSoC4/CyLib.c **** * Summary:
2777:.\Generated_Source\PSoC4/CyLib.c **** *  Disables the SysTick interrupt.
2778:.\Generated_Source\PSoC4/CyLib.c **** *
2779:.\Generated_Source\PSoC4/CyLib.c **** * Parameters:
2780:.\Generated_Source\PSoC4/CyLib.c **** *  None
2781:.\Generated_Source\PSoC4/CyLib.c **** *
2782:.\Generated_Source\PSoC4/CyLib.c **** * Return:
2783:.\Generated_Source\PSoC4/CyLib.c **** *  None
2784:.\Generated_Source\PSoC4/CyLib.c **** *
2785:.\Generated_Source\PSoC4/CyLib.c **** * Side Effects:
2786:.\Generated_Source\PSoC4/CyLib.c **** *  Clears SysTick count flag if it was set
2787:.\Generated_Source\PSoC4/CyLib.c **** *
2788:.\Generated_Source\PSoC4/CyLib.c **** *******************************************************************************/
2789:.\Generated_Source\PSoC4/CyLib.c **** void CySysTickDisableInterrupt(void)
2790:.\Generated_Source\PSoC4/CyLib.c **** {
2791:.\Generated_Source\PSoC4/CyLib.c ****     CY_SYS_SYST_CSR_REG &= ((uint32) ~(CY_SYS_SYST_CSR_ENABLE_INT));
2792:.\Generated_Source\PSoC4/CyLib.c **** }
2793:.\Generated_Source\PSoC4/CyLib.c **** 
2794:.\Generated_Source\PSoC4/CyLib.c **** 
2795:.\Generated_Source\PSoC4/CyLib.c **** /*******************************************************************************
2796:.\Generated_Source\PSoC4/CyLib.c **** * Function Name: CySysTickSetReload
2797:.\Generated_Source\PSoC4/CyLib.c **** ********************************************************************************
2798:.\Generated_Source\PSoC4/CyLib.c **** *
2799:.\Generated_Source\PSoC4/CyLib.c **** * Summary:
2800:.\Generated_Source\PSoC4/CyLib.c **** *  Sets value the counter is set to on startup and after it reaches zero. This
2801:.\Generated_Source\PSoC4/CyLib.c **** *  function do not change or reset current sysTick counter value, so it should
2802:.\Generated_Source\PSoC4/CyLib.c **** *  be cleared using CySysTickClear() API.
2803:.\Generated_Source\PSoC4/CyLib.c **** *
2804:.\Generated_Source\PSoC4/CyLib.c **** * Parameters:
2805:.\Generated_Source\PSoC4/CyLib.c **** *  value: Valid range [0x0-0x00FFFFFF]. Counter reset value
2806:.\Generated_Source\PSoC4/CyLib.c **** *
2807:.\Generated_Source\PSoC4/CyLib.c **** * Return:
2808:.\Generated_Source\PSoC4/CyLib.c **** *  None
2809:.\Generated_Source\PSoC4/CyLib.c **** *
2810:.\Generated_Source\PSoC4/CyLib.c **** *******************************************************************************/
2811:.\Generated_Source\PSoC4/CyLib.c **** void CySysTickSetReload(uint32 value)
2812:.\Generated_Source\PSoC4/CyLib.c **** {
2813:.\Generated_Source\PSoC4/CyLib.c ****     CY_SYS_SYST_RVR_REG = (value & CY_SYS_SYST_RVR_CNT_MASK);
 2470              		.loc 1 2813 0
 2471 0022 084B     		ldr	r3, .L230+16
 2472              	.LBE117:
 2473              	.LBE116:
 2474              	.LBB119:
 2475              	.LBB120:
2411:.\Generated_Source\PSoC4/CyLib.c ****     CY_INT_ENABLE_REG = ((uint32) 0x01u << (CY_INT_ENABLE_RANGE_MASK & number));
 2476              		.loc 1 2411 0
 2477 0024 8022     		mov	r2, #128
 2478              	.LBE120:
 2479              	.LBE119:
 2480              	.LBB124:
 2481              	.LBB118:
 2482              		.loc 1 2813 0
ARM GAS  C:\Users\Pablo\AppData\Local\Temp\ccDGsedh.s 			page 97


 2483 0026 1860     		str	r0, [r3]
 2484              	.LBE118:
 2485              	.LBE124:
 2486              	.LBB125:
 2487              	.LBB126:
2814:.\Generated_Source\PSoC4/CyLib.c **** }
2815:.\Generated_Source\PSoC4/CyLib.c **** 
2816:.\Generated_Source\PSoC4/CyLib.c **** 
2817:.\Generated_Source\PSoC4/CyLib.c **** /*******************************************************************************
2818:.\Generated_Source\PSoC4/CyLib.c **** * Function Name: CySysTickGetReload
2819:.\Generated_Source\PSoC4/CyLib.c **** ********************************************************************************
2820:.\Generated_Source\PSoC4/CyLib.c **** *
2821:.\Generated_Source\PSoC4/CyLib.c **** * Summary:
2822:.\Generated_Source\PSoC4/CyLib.c **** *  Sets value the counter is set to on startup and after it reaches zero.
2823:.\Generated_Source\PSoC4/CyLib.c **** *
2824:.\Generated_Source\PSoC4/CyLib.c **** * Parameters:
2825:.\Generated_Source\PSoC4/CyLib.c **** *  None
2826:.\Generated_Source\PSoC4/CyLib.c **** *
2827:.\Generated_Source\PSoC4/CyLib.c **** * Return:
2828:.\Generated_Source\PSoC4/CyLib.c **** *  Counter reset value.
2829:.\Generated_Source\PSoC4/CyLib.c **** *
2830:.\Generated_Source\PSoC4/CyLib.c **** *******************************************************************************/
2831:.\Generated_Source\PSoC4/CyLib.c **** uint32 CySysTickGetReload(void)
2832:.\Generated_Source\PSoC4/CyLib.c **** {
2833:.\Generated_Source\PSoC4/CyLib.c ****     return(CY_SYS_SYST_RVR_REG & CY_SYS_SYST_RVR_CNT_MASK);
2834:.\Generated_Source\PSoC4/CyLib.c **** }
2835:.\Generated_Source\PSoC4/CyLib.c **** 
2836:.\Generated_Source\PSoC4/CyLib.c **** 
2837:.\Generated_Source\PSoC4/CyLib.c **** /*******************************************************************************
2838:.\Generated_Source\PSoC4/CyLib.c **** * Function Name: CySysTickGetValue
2839:.\Generated_Source\PSoC4/CyLib.c **** ********************************************************************************
2840:.\Generated_Source\PSoC4/CyLib.c **** *
2841:.\Generated_Source\PSoC4/CyLib.c **** * Summary:
2842:.\Generated_Source\PSoC4/CyLib.c **** *  Gets current SysTick counter value.
2843:.\Generated_Source\PSoC4/CyLib.c **** *
2844:.\Generated_Source\PSoC4/CyLib.c **** * Parameters:
2845:.\Generated_Source\PSoC4/CyLib.c **** *  None
2846:.\Generated_Source\PSoC4/CyLib.c **** *
2847:.\Generated_Source\PSoC4/CyLib.c **** * Return:
2848:.\Generated_Source\PSoC4/CyLib.c **** *  Current SysTick counter value
2849:.\Generated_Source\PSoC4/CyLib.c **** *
2850:.\Generated_Source\PSoC4/CyLib.c **** *******************************************************************************/
2851:.\Generated_Source\PSoC4/CyLib.c **** uint32 CySysTickGetValue(void)
2852:.\Generated_Source\PSoC4/CyLib.c **** {
2853:.\Generated_Source\PSoC4/CyLib.c ****     return(CY_SYS_SYST_RVR_REG & CY_SYS_SYST_CVR_REG);
2854:.\Generated_Source\PSoC4/CyLib.c **** }
2855:.\Generated_Source\PSoC4/CyLib.c **** 
2856:.\Generated_Source\PSoC4/CyLib.c **** 
2857:.\Generated_Source\PSoC4/CyLib.c **** #if(CY_PSOC4_4100BL || CY_PSOC4_4200BL || CY_PSOC5)
2858:.\Generated_Source\PSoC4/CyLib.c ****     /*******************************************************************************
2859:.\Generated_Source\PSoC4/CyLib.c ****     * Function Name: CySysTickSetClockSource
2860:.\Generated_Source\PSoC4/CyLib.c ****     ********************************************************************************
2861:.\Generated_Source\PSoC4/CyLib.c ****     *
2862:.\Generated_Source\PSoC4/CyLib.c ****     * Summary:
2863:.\Generated_Source\PSoC4/CyLib.c ****     *  Sets the clock source for the SysTick counter.
2864:.\Generated_Source\PSoC4/CyLib.c ****     *
2865:.\Generated_Source\PSoC4/CyLib.c ****     * Parameters:
ARM GAS  C:\Users\Pablo\AppData\Local\Temp\ccDGsedh.s 			page 98


2866:.\Generated_Source\PSoC4/CyLib.c ****     *  clockSource: Clock source for SysTick counter
2867:.\Generated_Source\PSoC4/CyLib.c ****     *         Define                     Clock Source
2868:.\Generated_Source\PSoC4/CyLib.c ****     *   CY_SYS_SYST_CSR_CLK_SRC_SYSCLK     SysTick is clocked by CPU clock.
2869:.\Generated_Source\PSoC4/CyLib.c ****     *   CY_SYS_SYST_CSR_CLK_SRC_LFCLK      SysTick is clocked by the low frequency clock
2870:.\Generated_Source\PSoC4/CyLib.c ****     *                                 (ILO 100 KHz for PSoC 5LP, LFCLK for PSoC 4).
2871:.\Generated_Source\PSoC4/CyLib.c ****     *
2872:.\Generated_Source\PSoC4/CyLib.c ****     * Return:
2873:.\Generated_Source\PSoC4/CyLib.c ****     *  None
2874:.\Generated_Source\PSoC4/CyLib.c ****     *
2875:.\Generated_Source\PSoC4/CyLib.c ****     * Side Effects:
2876:.\Generated_Source\PSoC4/CyLib.c ****     *  Clears SysTick count flag if it was set. If clock source is not ready this
2877:.\Generated_Source\PSoC4/CyLib.c ****     *  function call will have no effect. After changing clock source to the low frequency
2878:.\Generated_Source\PSoC4/CyLib.c ****     *  clock the counter and reload register values will remain unchanged so time to
2879:.\Generated_Source\PSoC4/CyLib.c ****     *  the interrupt will be significantly bigger and vice versa.
2880:.\Generated_Source\PSoC4/CyLib.c ****     *
2881:.\Generated_Source\PSoC4/CyLib.c ****     *******************************************************************************/
2882:.\Generated_Source\PSoC4/CyLib.c ****     void CySysTickSetClockSource(uint32 clockSource)
2883:.\Generated_Source\PSoC4/CyLib.c ****     {
2884:.\Generated_Source\PSoC4/CyLib.c ****         if (clockSource == CY_SYS_SYST_CSR_CLK_SRC_SYSCLK)
2885:.\Generated_Source\PSoC4/CyLib.c ****         {
2886:.\Generated_Source\PSoC4/CyLib.c ****             CY_SYS_SYST_CSR_REG |= (uint32)(CY_SYS_SYST_CSR_CLK_SRC_SYSCLK << CY_SYS_SYST_CSR_CLK_S
2887:.\Generated_Source\PSoC4/CyLib.c ****         }
2888:.\Generated_Source\PSoC4/CyLib.c ****         else
2889:.\Generated_Source\PSoC4/CyLib.c ****         {
2890:.\Generated_Source\PSoC4/CyLib.c ****             CY_SYS_SYST_CSR_REG &= ((uint32) ~((uint32)(CY_SYS_SYST_CSR_CLK_SRC_SYSCLK << CY_SYS_SY
2891:.\Generated_Source\PSoC4/CyLib.c ****         }
2892:.\Generated_Source\PSoC4/CyLib.c ****     }
2893:.\Generated_Source\PSoC4/CyLib.c **** #endif /* (CY_PSOC4_4100BL || CY_PSOC4_4200BL || CY_PSOC5) */
2894:.\Generated_Source\PSoC4/CyLib.c **** 
2895:.\Generated_Source\PSoC4/CyLib.c **** 
2896:.\Generated_Source\PSoC4/CyLib.c **** /*******************************************************************************
2897:.\Generated_Source\PSoC4/CyLib.c **** * Function Name: CySysTickGetCountFlag
2898:.\Generated_Source\PSoC4/CyLib.c **** ********************************************************************************
2899:.\Generated_Source\PSoC4/CyLib.c **** *
2900:.\Generated_Source\PSoC4/CyLib.c **** * Summary:
2901:.\Generated_Source\PSoC4/CyLib.c **** *  The count flag is set once SysTick counter reaches zero.
2902:.\Generated_Source\PSoC4/CyLib.c **** *   The flag cleared on read.
2903:.\Generated_Source\PSoC4/CyLib.c **** *
2904:.\Generated_Source\PSoC4/CyLib.c **** * Parameters:
2905:.\Generated_Source\PSoC4/CyLib.c **** *  None
2906:.\Generated_Source\PSoC4/CyLib.c **** *
2907:.\Generated_Source\PSoC4/CyLib.c **** * Return:
2908:.\Generated_Source\PSoC4/CyLib.c **** *  Returns non-zero value is counter is set, otherwise zero is returned.
2909:.\Generated_Source\PSoC4/CyLib.c **** *
2910:.\Generated_Source\PSoC4/CyLib.c **** *
2911:.\Generated_Source\PSoC4/CyLib.c **** * Side Effects:
2912:.\Generated_Source\PSoC4/CyLib.c **** *  Clears SysTick count flag if it was set
2913:.\Generated_Source\PSoC4/CyLib.c **** *
2914:.\Generated_Source\PSoC4/CyLib.c **** *******************************************************************************/
2915:.\Generated_Source\PSoC4/CyLib.c **** uint32 CySysTickGetCountFlag(void)
2916:.\Generated_Source\PSoC4/CyLib.c **** {
2917:.\Generated_Source\PSoC4/CyLib.c ****     return ((CY_SYS_SYST_CSR_REG>>CY_SYS_SYST_CSR_COUNTFLAG_SHIFT) & 0x01u);
2918:.\Generated_Source\PSoC4/CyLib.c **** }
2919:.\Generated_Source\PSoC4/CyLib.c **** 
2920:.\Generated_Source\PSoC4/CyLib.c **** 
2921:.\Generated_Source\PSoC4/CyLib.c **** /*******************************************************************************
2922:.\Generated_Source\PSoC4/CyLib.c **** * Function Name: CySysTickClear
ARM GAS  C:\Users\Pablo\AppData\Local\Temp\ccDGsedh.s 			page 99


2923:.\Generated_Source\PSoC4/CyLib.c **** ********************************************************************************
2924:.\Generated_Source\PSoC4/CyLib.c **** *
2925:.\Generated_Source\PSoC4/CyLib.c **** * Summary:
2926:.\Generated_Source\PSoC4/CyLib.c **** *  Clears the SysTick counter for well-defined startup.
2927:.\Generated_Source\PSoC4/CyLib.c **** *
2928:.\Generated_Source\PSoC4/CyLib.c **** * Parameters:
2929:.\Generated_Source\PSoC4/CyLib.c **** *  None
2930:.\Generated_Source\PSoC4/CyLib.c **** *
2931:.\Generated_Source\PSoC4/CyLib.c **** * Return:
2932:.\Generated_Source\PSoC4/CyLib.c **** *  None
2933:.\Generated_Source\PSoC4/CyLib.c **** *
2934:.\Generated_Source\PSoC4/CyLib.c **** *******************************************************************************/
2935:.\Generated_Source\PSoC4/CyLib.c **** void CySysTickClear(void)
2936:.\Generated_Source\PSoC4/CyLib.c **** {
2937:.\Generated_Source\PSoC4/CyLib.c ****     CY_SYS_SYST_CVR_REG = 0u;
 2488              		.loc 1 2937 0
 2489 0028 074B     		ldr	r3, .L230+20
 2490              	.LBE126:
 2491              	.LBE125:
 2492              	.LBB128:
 2493              	.LBB121:
2411:.\Generated_Source\PSoC4/CyLib.c ****     CY_INT_ENABLE_REG = ((uint32) 0x01u << (CY_INT_ENABLE_RANGE_MASK & number));
 2494              		.loc 1 2411 0
 2495 002a 1202     		lsl	r2, r2, #8
 2496              	.LBE121:
 2497              	.LBE128:
 2498              	.LBB129:
 2499              	.LBB127:
 2500              		.loc 1 2937 0
 2501 002c 1C60     		str	r4, [r3]
 2502              	.LVL192:
 2503              	.LBE127:
 2504              	.LBE129:
 2505              	.LBB130:
 2506              	.LBB122:
2411:.\Generated_Source\PSoC4/CyLib.c ****     CY_INT_ENABLE_REG = ((uint32) 0x01u << (CY_INT_ENABLE_RANGE_MASK & number));
 2507              		.loc 1 2411 0
 2508 002e 074B     		ldr	r3, .L230+24
 2509              	.LBE122:
 2510              	.LBE130:
2699:.\Generated_Source\PSoC4/CyLib.c **** }
 2511              		.loc 1 2699 0
 2512              		@ sp needed
 2513              	.LBB131:
 2514              	.LBB123:
2411:.\Generated_Source\PSoC4/CyLib.c ****     CY_INT_ENABLE_REG = ((uint32) 0x01u << (CY_INT_ENABLE_RANGE_MASK & number));
 2515              		.loc 1 2411 0
 2516 0030 1A60     		str	r2, [r3]
 2517              	.LBE123:
 2518              	.LBE131:
2699:.\Generated_Source\PSoC4/CyLib.c **** }
 2519              		.loc 1 2699 0
 2520 0032 10BD     		pop	{r4, pc}
 2521              	.L231:
 2522              		.align	2
 2523              	.L230:
 2524 0034 00000000 		.word	.LANCHOR0
ARM GAS  C:\Users\Pablo\AppData\Local\Temp\ccDGsedh.s 			page 100


 2525 0038 00000000 		.word	CySysTickServiceCallbacks
 2526 003c 3C000020 		.word	536870972
 2527 0040 00000000 		.word	.LANCHOR1
 2528 0044 14E000E0 		.word	-536813548
 2529 0048 18E000E0 		.word	-536813544
 2530 004c 00E100E0 		.word	-536813312
 2531              		.cfi_endproc
 2532              	.LFE54:
 2533              		.size	CySysTickInit, .-CySysTickInit
 2534              		.section	.text.CySysTickStop,"ax",%progbits
 2535              		.align	1
 2536              		.global	CySysTickStop
 2537              		.code	16
 2538              		.thumb_func
 2539              		.type	CySysTickStop, %function
 2540              	CySysTickStop:
 2541              	.LFB56:
2744:.\Generated_Source\PSoC4/CyLib.c **** {
 2542              		.loc 1 2744 0
 2543              		.cfi_startproc
2745:.\Generated_Source\PSoC4/CyLib.c ****     CY_SYS_SYST_CSR_REG &= ((uint32) ~(CY_SYS_SYST_CSR_ENABLE));
 2544              		.loc 1 2745 0
 2545 0000 024B     		ldr	r3, .L233
 2546 0002 0121     		mov	r1, #1
 2547 0004 1A68     		ldr	r2, [r3]
2746:.\Generated_Source\PSoC4/CyLib.c **** }
 2548              		.loc 1 2746 0
 2549              		@ sp needed
2745:.\Generated_Source\PSoC4/CyLib.c ****     CY_SYS_SYST_CSR_REG &= ((uint32) ~(CY_SYS_SYST_CSR_ENABLE));
 2550              		.loc 1 2745 0
 2551 0006 8A43     		bic	r2, r1
 2552 0008 1A60     		str	r2, [r3]
2746:.\Generated_Source\PSoC4/CyLib.c **** }
 2553              		.loc 1 2746 0
 2554 000a 7047     		bx	lr
 2555              	.L234:
 2556              		.align	2
 2557              	.L233:
 2558 000c 10E000E0 		.word	-536813552
 2559              		.cfi_endproc
 2560              	.LFE56:
 2561              		.size	CySysTickStop, .-CySysTickStop
 2562              		.section	.text.CySysTickEnableInterrupt,"ax",%progbits
 2563              		.align	1
 2564              		.global	CySysTickEnableInterrupt
 2565              		.code	16
 2566              		.thumb_func
 2567              		.type	CySysTickEnableInterrupt, %function
 2568              	CySysTickEnableInterrupt:
 2569              	.LFB57:
2767:.\Generated_Source\PSoC4/CyLib.c **** {
 2570              		.loc 1 2767 0
 2571              		.cfi_startproc
2768:.\Generated_Source\PSoC4/CyLib.c ****     CY_SYS_SYST_CSR_REG |= CY_SYS_SYST_CSR_ENABLE_INT;
 2572              		.loc 1 2768 0
 2573 0000 024B     		ldr	r3, .L236
 2574 0002 0221     		mov	r1, #2
ARM GAS  C:\Users\Pablo\AppData\Local\Temp\ccDGsedh.s 			page 101


 2575 0004 1A68     		ldr	r2, [r3]
2769:.\Generated_Source\PSoC4/CyLib.c **** }
 2576              		.loc 1 2769 0
 2577              		@ sp needed
2768:.\Generated_Source\PSoC4/CyLib.c ****     CY_SYS_SYST_CSR_REG |= CY_SYS_SYST_CSR_ENABLE_INT;
 2578              		.loc 1 2768 0
 2579 0006 0A43     		orr	r2, r1
 2580 0008 1A60     		str	r2, [r3]
2769:.\Generated_Source\PSoC4/CyLib.c **** }
 2581              		.loc 1 2769 0
 2582 000a 7047     		bx	lr
 2583              	.L237:
 2584              		.align	2
 2585              	.L236:
 2586 000c 10E000E0 		.word	-536813552
 2587              		.cfi_endproc
 2588              	.LFE57:
 2589              		.size	CySysTickEnableInterrupt, .-CySysTickEnableInterrupt
 2590              		.section	.text.CySysTickEnable,"ax",%progbits
 2591              		.align	1
 2592              		.global	CySysTickEnable
 2593              		.code	16
 2594              		.thumb_func
 2595              		.type	CySysTickEnable, %function
 2596              	CySysTickEnable:
 2597              	.LFB55:
2720:.\Generated_Source\PSoC4/CyLib.c **** {
 2598              		.loc 1 2720 0
 2599              		.cfi_startproc
 2600 0000 08B5     		push	{r3, lr}
 2601              		.cfi_def_cfa_offset 8
 2602              		.cfi_offset 3, -8
 2603              		.cfi_offset 14, -4
2721:.\Generated_Source\PSoC4/CyLib.c ****     CySysTickEnableInterrupt();
 2604              		.loc 1 2721 0
 2605 0002 FFF7FEFF 		bl	CySysTickEnableInterrupt
 2606              	.LVL193:
2722:.\Generated_Source\PSoC4/CyLib.c ****     CY_SYS_SYST_CSR_REG |= CY_SYS_SYST_CSR_ENABLE;
 2607              		.loc 1 2722 0
 2608 0006 034B     		ldr	r3, .L239
 2609 0008 0121     		mov	r1, #1
 2610 000a 1A68     		ldr	r2, [r3]
2723:.\Generated_Source\PSoC4/CyLib.c **** }
 2611              		.loc 1 2723 0
 2612              		@ sp needed
2722:.\Generated_Source\PSoC4/CyLib.c ****     CY_SYS_SYST_CSR_REG |= CY_SYS_SYST_CSR_ENABLE;
 2613              		.loc 1 2722 0
 2614 000c 0A43     		orr	r2, r1
 2615 000e 1A60     		str	r2, [r3]
2723:.\Generated_Source\PSoC4/CyLib.c **** }
 2616              		.loc 1 2723 0
 2617 0010 08BD     		pop	{r3, pc}
 2618              	.L240:
 2619 0012 C046     		.align	2
 2620              	.L239:
 2621 0014 10E000E0 		.word	-536813552
 2622              		.cfi_endproc
ARM GAS  C:\Users\Pablo\AppData\Local\Temp\ccDGsedh.s 			page 102


 2623              	.LFE55:
 2624              		.size	CySysTickEnable, .-CySysTickEnable
 2625              		.section	.text.CySysTickStart,"ax",%progbits
 2626              		.align	1
 2627              		.global	CySysTickStart
 2628              		.code	16
 2629              		.thumb_func
 2630              		.type	CySysTickStart, %function
 2631              	CySysTickStart:
 2632              	.LFB53:
2648:.\Generated_Source\PSoC4/CyLib.c **** {
 2633              		.loc 1 2648 0
 2634              		.cfi_startproc
 2635 0000 10B5     		push	{r4, lr}
 2636              		.cfi_def_cfa_offset 8
 2637              		.cfi_offset 4, -8
 2638              		.cfi_offset 14, -4
2649:.\Generated_Source\PSoC4/CyLib.c ****     if (0u == CySysTickInitVar)
 2639              		.loc 1 2649 0
 2640 0002 054C     		ldr	r4, .L243
 2641 0004 236A     		ldr	r3, [r4, #32]
 2642 0006 002B     		cmp	r3, #0
 2643 0008 03D1     		bne	.L242
2651:.\Generated_Source\PSoC4/CyLib.c ****         CySysTickInit();
 2644              		.loc 1 2651 0
 2645 000a FFF7FEFF 		bl	CySysTickInit
 2646              	.LVL194:
2652:.\Generated_Source\PSoC4/CyLib.c ****         CySysTickInitVar = 1u;
 2647              		.loc 1 2652 0
 2648 000e 0123     		mov	r3, #1
 2649 0010 2362     		str	r3, [r4, #32]
 2650              	.L242:
2655:.\Generated_Source\PSoC4/CyLib.c ****     CySysTickEnable();
 2651              		.loc 1 2655 0
 2652 0012 FFF7FEFF 		bl	CySysTickEnable
 2653              	.LVL195:
2656:.\Generated_Source\PSoC4/CyLib.c **** }
 2654              		.loc 1 2656 0
 2655              		@ sp needed
 2656 0016 10BD     		pop	{r4, pc}
 2657              	.L244:
 2658              		.align	2
 2659              	.L243:
 2660 0018 00000000 		.word	.LANCHOR0
 2661              		.cfi_endproc
 2662              	.LFE53:
 2663              		.size	CySysTickStart, .-CySysTickStart
 2664              		.section	.text.CySysTickDisableInterrupt,"ax",%progbits
 2665              		.align	1
 2666              		.global	CySysTickDisableInterrupt
 2667              		.code	16
 2668              		.thumb_func
 2669              		.type	CySysTickDisableInterrupt, %function
 2670              	CySysTickDisableInterrupt:
 2671              	.LFB58:
2790:.\Generated_Source\PSoC4/CyLib.c **** {
 2672              		.loc 1 2790 0
ARM GAS  C:\Users\Pablo\AppData\Local\Temp\ccDGsedh.s 			page 103


 2673              		.cfi_startproc
2791:.\Generated_Source\PSoC4/CyLib.c ****     CY_SYS_SYST_CSR_REG &= ((uint32) ~(CY_SYS_SYST_CSR_ENABLE_INT));
 2674              		.loc 1 2791 0
 2675 0000 024B     		ldr	r3, .L246
 2676 0002 0221     		mov	r1, #2
 2677 0004 1A68     		ldr	r2, [r3]
2792:.\Generated_Source\PSoC4/CyLib.c **** }
 2678              		.loc 1 2792 0
 2679              		@ sp needed
2791:.\Generated_Source\PSoC4/CyLib.c ****     CY_SYS_SYST_CSR_REG &= ((uint32) ~(CY_SYS_SYST_CSR_ENABLE_INT));
 2680              		.loc 1 2791 0
 2681 0006 8A43     		bic	r2, r1
 2682 0008 1A60     		str	r2, [r3]
2792:.\Generated_Source\PSoC4/CyLib.c **** }
 2683              		.loc 1 2792 0
 2684 000a 7047     		bx	lr
 2685              	.L247:
 2686              		.align	2
 2687              	.L246:
 2688 000c 10E000E0 		.word	-536813552
 2689              		.cfi_endproc
 2690              	.LFE58:
 2691              		.size	CySysTickDisableInterrupt, .-CySysTickDisableInterrupt
 2692              		.section	.text.CySysTickSetReload,"ax",%progbits
 2693              		.align	1
 2694              		.global	CySysTickSetReload
 2695              		.code	16
 2696              		.thumb_func
 2697              		.type	CySysTickSetReload, %function
 2698              	CySysTickSetReload:
 2699              	.LFB59:
2812:.\Generated_Source\PSoC4/CyLib.c **** {
 2700              		.loc 1 2812 0
 2701              		.cfi_startproc
 2702              	.LVL196:
2813:.\Generated_Source\PSoC4/CyLib.c ****     CY_SYS_SYST_RVR_REG = (value & CY_SYS_SYST_RVR_CNT_MASK);
 2703              		.loc 1 2813 0
 2704 0000 024B     		ldr	r3, .L249
 2705 0002 0002     		lsl	r0, r0, #8
 2706              	.LVL197:
 2707 0004 000A     		lsr	r0, r0, #8
 2708 0006 1860     		str	r0, [r3]
2814:.\Generated_Source\PSoC4/CyLib.c **** }
 2709              		.loc 1 2814 0
 2710              		@ sp needed
 2711 0008 7047     		bx	lr
 2712              	.L250:
 2713 000a C046     		.align	2
 2714              	.L249:
 2715 000c 14E000E0 		.word	-536813548
 2716              		.cfi_endproc
 2717              	.LFE59:
 2718              		.size	CySysTickSetReload, .-CySysTickSetReload
 2719              		.section	.text.CySysTickGetReload,"ax",%progbits
 2720              		.align	1
 2721              		.global	CySysTickGetReload
 2722              		.code	16
ARM GAS  C:\Users\Pablo\AppData\Local\Temp\ccDGsedh.s 			page 104


 2723              		.thumb_func
 2724              		.type	CySysTickGetReload, %function
 2725              	CySysTickGetReload:
 2726              	.LFB60:
2832:.\Generated_Source\PSoC4/CyLib.c **** {
 2727              		.loc 1 2832 0
 2728              		.cfi_startproc
2833:.\Generated_Source\PSoC4/CyLib.c ****     return(CY_SYS_SYST_RVR_REG & CY_SYS_SYST_RVR_CNT_MASK);
 2729              		.loc 1 2833 0
 2730 0000 024B     		ldr	r3, .L252
2834:.\Generated_Source\PSoC4/CyLib.c **** }
 2731              		.loc 1 2834 0
 2732              		@ sp needed
2833:.\Generated_Source\PSoC4/CyLib.c ****     return(CY_SYS_SYST_RVR_REG & CY_SYS_SYST_RVR_CNT_MASK);
 2733              		.loc 1 2833 0
 2734 0002 1868     		ldr	r0, [r3]
 2735 0004 0002     		lsl	r0, r0, #8
 2736 0006 000A     		lsr	r0, r0, #8
2834:.\Generated_Source\PSoC4/CyLib.c **** }
 2737              		.loc 1 2834 0
 2738 0008 7047     		bx	lr
 2739              	.L253:
 2740 000a C046     		.align	2
 2741              	.L252:
 2742 000c 14E000E0 		.word	-536813548
 2743              		.cfi_endproc
 2744              	.LFE60:
 2745              		.size	CySysTickGetReload, .-CySysTickGetReload
 2746              		.section	.text.CySysTickGetValue,"ax",%progbits
 2747              		.align	1
 2748              		.global	CySysTickGetValue
 2749              		.code	16
 2750              		.thumb_func
 2751              		.type	CySysTickGetValue, %function
 2752              	CySysTickGetValue:
 2753              	.LFB61:
2852:.\Generated_Source\PSoC4/CyLib.c **** {
 2754              		.loc 1 2852 0
 2755              		.cfi_startproc
2853:.\Generated_Source\PSoC4/CyLib.c ****     return(CY_SYS_SYST_RVR_REG & CY_SYS_SYST_CVR_REG);
 2756              		.loc 1 2853 0
 2757 0000 024B     		ldr	r3, .L255
2854:.\Generated_Source\PSoC4/CyLib.c **** }
 2758              		.loc 1 2854 0
 2759              		@ sp needed
2853:.\Generated_Source\PSoC4/CyLib.c ****     return(CY_SYS_SYST_RVR_REG & CY_SYS_SYST_CVR_REG);
 2760              		.loc 1 2853 0
 2761 0002 1868     		ldr	r0, [r3]
 2762 0004 024B     		ldr	r3, .L255+4
 2763 0006 1B68     		ldr	r3, [r3]
 2764 0008 1840     		and	r0, r3
2854:.\Generated_Source\PSoC4/CyLib.c **** }
 2765              		.loc 1 2854 0
 2766 000a 7047     		bx	lr
 2767              	.L256:
 2768              		.align	2
 2769              	.L255:
ARM GAS  C:\Users\Pablo\AppData\Local\Temp\ccDGsedh.s 			page 105


 2770 000c 14E000E0 		.word	-536813548
 2771 0010 18E000E0 		.word	-536813544
 2772              		.cfi_endproc
 2773              	.LFE61:
 2774              		.size	CySysTickGetValue, .-CySysTickGetValue
 2775              		.section	.text.CySysTickGetCountFlag,"ax",%progbits
 2776              		.align	1
 2777              		.global	CySysTickGetCountFlag
 2778              		.code	16
 2779              		.thumb_func
 2780              		.type	CySysTickGetCountFlag, %function
 2781              	CySysTickGetCountFlag:
 2782              	.LFB62:
2916:.\Generated_Source\PSoC4/CyLib.c **** {
 2783              		.loc 1 2916 0
 2784              		.cfi_startproc
2917:.\Generated_Source\PSoC4/CyLib.c ****     return ((CY_SYS_SYST_CSR_REG>>CY_SYS_SYST_CSR_COUNTFLAG_SHIFT) & 0x01u);
 2785              		.loc 1 2917 0
 2786 0000 024B     		ldr	r3, .L258
2918:.\Generated_Source\PSoC4/CyLib.c **** }
 2787              		.loc 1 2918 0
 2788              		@ sp needed
2917:.\Generated_Source\PSoC4/CyLib.c ****     return ((CY_SYS_SYST_CSR_REG>>CY_SYS_SYST_CSR_COUNTFLAG_SHIFT) & 0x01u);
 2789              		.loc 1 2917 0
 2790 0002 1868     		ldr	r0, [r3]
 2791 0004 C003     		lsl	r0, r0, #15
 2792 0006 C00F     		lsr	r0, r0, #31
2918:.\Generated_Source\PSoC4/CyLib.c **** }
 2793              		.loc 1 2918 0
 2794 0008 7047     		bx	lr
 2795              	.L259:
 2796 000a C046     		.align	2
 2797              	.L258:
 2798 000c 10E000E0 		.word	-536813552
 2799              		.cfi_endproc
 2800              	.LFE62:
 2801              		.size	CySysTickGetCountFlag, .-CySysTickGetCountFlag
 2802              		.section	.text.CySysTickServiceCallbacks,"ax",%progbits
 2803              		.align	1
 2804              		.code	16
 2805              		.thumb_func
 2806              		.type	CySysTickServiceCallbacks, %function
 2807              	CySysTickServiceCallbacks:
 2808              	.LFB66:
2938:.\Generated_Source\PSoC4/CyLib.c **** }
2939:.\Generated_Source\PSoC4/CyLib.c **** 
2940:.\Generated_Source\PSoC4/CyLib.c **** 
2941:.\Generated_Source\PSoC4/CyLib.c **** /*******************************************************************************
2942:.\Generated_Source\PSoC4/CyLib.c **** * Function Name: CySysTickSetCallback
2943:.\Generated_Source\PSoC4/CyLib.c **** ********************************************************************************
2944:.\Generated_Source\PSoC4/CyLib.c **** *
2945:.\Generated_Source\PSoC4/CyLib.c **** * Summary:
2946:.\Generated_Source\PSoC4/CyLib.c **** *  The function set the pointers to the functions that will be called on
2947:.\Generated_Source\PSoC4/CyLib.c **** *  SysTick interrupt.
2948:.\Generated_Source\PSoC4/CyLib.c **** *
2949:.\Generated_Source\PSoC4/CyLib.c **** * Parameters:
2950:.\Generated_Source\PSoC4/CyLib.c **** *  number:  The number of callback function address to be set.
ARM GAS  C:\Users\Pablo\AppData\Local\Temp\ccDGsedh.s 			page 106


2951:.\Generated_Source\PSoC4/CyLib.c **** *           The valid range is from 0 to 4.
2952:.\Generated_Source\PSoC4/CyLib.c **** *  CallbackFunction: Function address.
2953:.\Generated_Source\PSoC4/CyLib.c **** *
2954:.\Generated_Source\PSoC4/CyLib.c **** * Return:
2955:.\Generated_Source\PSoC4/CyLib.c **** *  Returns the address of the previous callback function.
2956:.\Generated_Source\PSoC4/CyLib.c **** *  The NULL is returned if the specified address in not set.
2957:.\Generated_Source\PSoC4/CyLib.c **** *
2958:.\Generated_Source\PSoC4/CyLib.c **** *******************************************************************************/
2959:.\Generated_Source\PSoC4/CyLib.c **** cySysTickCallback CySysTickSetCallback(uint32 number, cySysTickCallback function)
2960:.\Generated_Source\PSoC4/CyLib.c **** {
2961:.\Generated_Source\PSoC4/CyLib.c ****     cySysTickCallback retVal;
2962:.\Generated_Source\PSoC4/CyLib.c **** 
2963:.\Generated_Source\PSoC4/CyLib.c ****     retVal = CySysTickCallbacks[number];
2964:.\Generated_Source\PSoC4/CyLib.c ****     CySysTickCallbacks[number] = function;
2965:.\Generated_Source\PSoC4/CyLib.c ****     return (retVal);
2966:.\Generated_Source\PSoC4/CyLib.c **** }
2967:.\Generated_Source\PSoC4/CyLib.c **** 
2968:.\Generated_Source\PSoC4/CyLib.c **** 
2969:.\Generated_Source\PSoC4/CyLib.c **** /*******************************************************************************
2970:.\Generated_Source\PSoC4/CyLib.c **** * Function Name: CySysTickGetCallback
2971:.\Generated_Source\PSoC4/CyLib.c **** ********************************************************************************
2972:.\Generated_Source\PSoC4/CyLib.c **** *
2973:.\Generated_Source\PSoC4/CyLib.c **** * Summary:
2974:.\Generated_Source\PSoC4/CyLib.c **** *  The function get the specified callback pointer.
2975:.\Generated_Source\PSoC4/CyLib.c **** *
2976:.\Generated_Source\PSoC4/CyLib.c **** * Parameters:
2977:.\Generated_Source\PSoC4/CyLib.c **** *  None
2978:.\Generated_Source\PSoC4/CyLib.c **** *
2979:.\Generated_Source\PSoC4/CyLib.c **** * Return:
2980:.\Generated_Source\PSoC4/CyLib.c **** *  None
2981:.\Generated_Source\PSoC4/CyLib.c **** *
2982:.\Generated_Source\PSoC4/CyLib.c **** *******************************************************************************/
2983:.\Generated_Source\PSoC4/CyLib.c **** cySysTickCallback CySysTickGetCallback(uint32 number)
2984:.\Generated_Source\PSoC4/CyLib.c **** {
2985:.\Generated_Source\PSoC4/CyLib.c ****     return ((cySysTickCallback) CySysTickCallbacks[number]);
2986:.\Generated_Source\PSoC4/CyLib.c **** }
2987:.\Generated_Source\PSoC4/CyLib.c **** 
2988:.\Generated_Source\PSoC4/CyLib.c **** 
2989:.\Generated_Source\PSoC4/CyLib.c **** /*******************************************************************************
2990:.\Generated_Source\PSoC4/CyLib.c **** * Function Name: CySysTickServiceCallbacks
2991:.\Generated_Source\PSoC4/CyLib.c **** ********************************************************************************
2992:.\Generated_Source\PSoC4/CyLib.c **** *
2993:.\Generated_Source\PSoC4/CyLib.c **** * Summary:
2994:.\Generated_Source\PSoC4/CyLib.c **** *  System Tick timer interrupt routine
2995:.\Generated_Source\PSoC4/CyLib.c **** *
2996:.\Generated_Source\PSoC4/CyLib.c **** * Parameters:
2997:.\Generated_Source\PSoC4/CyLib.c **** *  None
2998:.\Generated_Source\PSoC4/CyLib.c **** *
2999:.\Generated_Source\PSoC4/CyLib.c **** * Return:
3000:.\Generated_Source\PSoC4/CyLib.c **** *  None
3001:.\Generated_Source\PSoC4/CyLib.c **** *
3002:.\Generated_Source\PSoC4/CyLib.c **** *******************************************************************************/
3003:.\Generated_Source\PSoC4/CyLib.c **** static void CySysTickServiceCallbacks(void)
3004:.\Generated_Source\PSoC4/CyLib.c **** {
 2809              		.loc 1 3004 0
 2810              		.cfi_startproc
 2811 0000 10B5     		push	{r4, lr}
ARM GAS  C:\Users\Pablo\AppData\Local\Temp\ccDGsedh.s 			page 107


 2812              		.cfi_def_cfa_offset 8
 2813              		.cfi_offset 4, -8
 2814              		.cfi_offset 14, -4
3005:.\Generated_Source\PSoC4/CyLib.c ****     uint32 i;
3006:.\Generated_Source\PSoC4/CyLib.c **** 
3007:.\Generated_Source\PSoC4/CyLib.c ****     /* Verify that tick timer flag was set */
3008:.\Generated_Source\PSoC4/CyLib.c ****     if (1u == CySysTickGetCountFlag())
 2815              		.loc 1 3008 0
 2816 0002 FFF7FEFF 		bl	CySysTickGetCountFlag
 2817              	.LVL198:
 2818 0006 0128     		cmp	r0, #1
 2819 0008 09D1     		bne	.L260
 2820 000a 0024     		mov	r4, #0
 2821              	.L264:
 2822              	.LBB134:
3009:.\Generated_Source\PSoC4/CyLib.c ****     {
3010:.\Generated_Source\PSoC4/CyLib.c ****         for (i=0u; i < CY_SYS_SYST_NUM_OF_CALLBACKS; i++)
3011:.\Generated_Source\PSoC4/CyLib.c ****         {
3012:.\Generated_Source\PSoC4/CyLib.c ****             if (CySysTickCallbacks[i] != (void *) 0)
 2823              		.loc 1 3012 0
 2824 000c 044B     		ldr	r3, .L271
 2825 000e 0C33     		add	r3, r3, #12
 2826 0010 E358     		ldr	r3, [r4, r3]
 2827 0012 002B     		cmp	r3, #0
 2828 0014 00D0     		beq	.L262
3013:.\Generated_Source\PSoC4/CyLib.c ****             {
3014:.\Generated_Source\PSoC4/CyLib.c ****                 (void)(CySysTickCallbacks[i])();
 2829              		.loc 1 3014 0
 2830 0016 9847     		blx	r3
 2831              	.LVL199:
 2832              	.L262:
 2833 0018 0434     		add	r4, r4, #4
3010:.\Generated_Source\PSoC4/CyLib.c ****         for (i=0u; i < CY_SYS_SYST_NUM_OF_CALLBACKS; i++)
 2834              		.loc 1 3010 0
 2835 001a 142C     		cmp	r4, #20
 2836 001c F6D1     		bne	.L264
 2837              	.L260:
 2838              	.LBE134:
3015:.\Generated_Source\PSoC4/CyLib.c ****             }
3016:.\Generated_Source\PSoC4/CyLib.c ****         }
3017:.\Generated_Source\PSoC4/CyLib.c ****     }
3018:.\Generated_Source\PSoC4/CyLib.c **** }
 2839              		.loc 1 3018 0
 2840              		@ sp needed
 2841 001e 10BD     		pop	{r4, pc}
 2842              	.L272:
 2843              		.align	2
 2844              	.L271:
 2845 0020 00000000 		.word	.LANCHOR0
 2846              		.cfi_endproc
 2847              	.LFE66:
 2848              		.size	CySysTickServiceCallbacks, .-CySysTickServiceCallbacks
 2849              		.section	.text.CySysTickClear,"ax",%progbits
 2850              		.align	1
 2851              		.global	CySysTickClear
 2852              		.code	16
 2853              		.thumb_func
ARM GAS  C:\Users\Pablo\AppData\Local\Temp\ccDGsedh.s 			page 108


 2854              		.type	CySysTickClear, %function
 2855              	CySysTickClear:
 2856              	.LFB63:
2936:.\Generated_Source\PSoC4/CyLib.c **** {
 2857              		.loc 1 2936 0
 2858              		.cfi_startproc
2937:.\Generated_Source\PSoC4/CyLib.c ****     CY_SYS_SYST_CVR_REG = 0u;
 2859              		.loc 1 2937 0
 2860 0000 014B     		ldr	r3, .L274
 2861 0002 0022     		mov	r2, #0
 2862 0004 1A60     		str	r2, [r3]
2938:.\Generated_Source\PSoC4/CyLib.c **** }
 2863              		.loc 1 2938 0
 2864              		@ sp needed
 2865 0006 7047     		bx	lr
 2866              	.L275:
 2867              		.align	2
 2868              	.L274:
 2869 0008 18E000E0 		.word	-536813544
 2870              		.cfi_endproc
 2871              	.LFE63:
 2872              		.size	CySysTickClear, .-CySysTickClear
 2873              		.section	.text.CySysTickSetCallback,"ax",%progbits
 2874              		.align	1
 2875              		.global	CySysTickSetCallback
 2876              		.code	16
 2877              		.thumb_func
 2878              		.type	CySysTickSetCallback, %function
 2879              	CySysTickSetCallback:
 2880              	.LFB64:
2960:.\Generated_Source\PSoC4/CyLib.c **** {
 2881              		.loc 1 2960 0
 2882              		.cfi_startproc
 2883              	.LVL200:
2963:.\Generated_Source\PSoC4/CyLib.c ****     retVal = CySysTickCallbacks[number];
 2884              		.loc 1 2963 0
 2885 0000 024B     		ldr	r3, .L277
 2886 0002 8000     		lsl	r0, r0, #2
 2887              	.LVL201:
 2888 0004 1B18     		add	r3, r3, r0
 2889 0006 D868     		ldr	r0, [r3, #12]
 2890              	.LVL202:
2966:.\Generated_Source\PSoC4/CyLib.c **** }
 2891              		.loc 1 2966 0
 2892              		@ sp needed
2964:.\Generated_Source\PSoC4/CyLib.c ****     CySysTickCallbacks[number] = function;
 2893              		.loc 1 2964 0
 2894 0008 D960     		str	r1, [r3, #12]
2966:.\Generated_Source\PSoC4/CyLib.c **** }
 2895              		.loc 1 2966 0
 2896 000a 7047     		bx	lr
 2897              	.L278:
 2898              		.align	2
 2899              	.L277:
 2900 000c 00000000 		.word	.LANCHOR0
 2901              		.cfi_endproc
 2902              	.LFE64:
ARM GAS  C:\Users\Pablo\AppData\Local\Temp\ccDGsedh.s 			page 109


 2903              		.size	CySysTickSetCallback, .-CySysTickSetCallback
 2904              		.section	.text.CySysTickGetCallback,"ax",%progbits
 2905              		.align	1
 2906              		.global	CySysTickGetCallback
 2907              		.code	16
 2908              		.thumb_func
 2909              		.type	CySysTickGetCallback, %function
 2910              	CySysTickGetCallback:
 2911              	.LFB65:
2984:.\Generated_Source\PSoC4/CyLib.c **** {
 2912              		.loc 1 2984 0
 2913              		.cfi_startproc
 2914              	.LVL203:
2985:.\Generated_Source\PSoC4/CyLib.c ****     return ((cySysTickCallback) CySysTickCallbacks[number]);
 2915              		.loc 1 2985 0
 2916 0000 024B     		ldr	r3, .L280
 2917 0002 8000     		lsl	r0, r0, #2
 2918              	.LVL204:
 2919 0004 1818     		add	r0, r3, r0
 2920 0006 C068     		ldr	r0, [r0, #12]
2986:.\Generated_Source\PSoC4/CyLib.c **** }
 2921              		.loc 1 2986 0
 2922              		@ sp needed
 2923 0008 7047     		bx	lr
 2924              	.L281:
 2925 000a C046     		.align	2
 2926              	.L280:
 2927 000c 00000000 		.word	.LANCHOR0
 2928              		.cfi_endproc
 2929              	.LFE65:
 2930              		.size	CySysTickGetCallback, .-CySysTickGetCallback
 2931              		.global	cyImoFreqMhz2Reg
 2932              		.global	CySysTickInitVar
 2933              		.global	lfclkPosedgeWdtCounter0Mode
 2934              		.global	lfclkPosedgeEnabledWdtCounter
 2935              		.global	lfclkPosedgeWdtCounter0Enabled
 2936              		.global	cydelay32kMs
 2937              		.global	cydelayFreqMhz
 2938              		.global	cydelayFreqKhz
 2939              		.global	cydelayFreqHz
 2940              		.section	.rodata
 2941              		.set	.LANCHOR2,. + 0
 2942              		.type	cyImoFreqMhz2Reg, %object
 2943              		.size	cyImoFreqMhz2Reg, 46
 2944              	cyImoFreqMhz2Reg:
 2945 0000 03       		.byte	3
 2946 0001 04       		.byte	4
 2947 0002 05       		.byte	5
 2948 0003 06       		.byte	6
 2949 0004 07       		.byte	7
 2950 0005 08       		.byte	8
 2951 0006 09       		.byte	9
 2952 0007 0A       		.byte	10
 2953 0008 0B       		.byte	11
 2954 0009 0C       		.byte	12
 2955 000a 0E       		.byte	14
 2956 000b 0F       		.byte	15
ARM GAS  C:\Users\Pablo\AppData\Local\Temp\ccDGsedh.s 			page 110


 2957 000c 10       		.byte	16
 2958 000d 11       		.byte	17
 2959 000e 12       		.byte	18
 2960 000f 13       		.byte	19
 2961 0010 14       		.byte	20
 2962 0011 15       		.byte	21
 2963 0012 16       		.byte	22
 2964 0013 17       		.byte	23
 2965 0014 18       		.byte	24
 2966 0015 19       		.byte	25
 2967 0016 1B       		.byte	27
 2968 0017 1C       		.byte	28
 2969 0018 1D       		.byte	29
 2970 0019 1E       		.byte	30
 2971 001a 1F       		.byte	31
 2972 001b 20       		.byte	32
 2973 001c 21       		.byte	33
 2974 001d 22       		.byte	34
 2975 001e 23       		.byte	35
 2976 001f 25       		.byte	37
 2977 0020 26       		.byte	38
 2978 0021 27       		.byte	39
 2979 0022 28       		.byte	40
 2980 0023 29       		.byte	41
 2981 0024 2A       		.byte	42
 2982 0025 2B       		.byte	43
 2983 0026 2E       		.byte	46
 2984 0027 2F       		.byte	47
 2985 0028 30       		.byte	48
 2986 0029 31       		.byte	49
 2987 002a 32       		.byte	50
 2988 002b 33       		.byte	51
 2989 002c 34       		.byte	52
 2990 002d 35       		.byte	53
 2991              		.data
 2992              		.align	2
 2993              		.set	.LANCHOR1,. + 0
 2994              		.type	cydelay32kMs, %object
 2995              		.size	cydelay32kMs, 4
 2996              	cydelay32kMs:
 2997 0000 0000E02E 		.word	786432000
 2998              		.type	cydelayFreqKhz, %object
 2999              		.size	cydelayFreqKhz, 4
 3000              	cydelayFreqKhz:
 3001 0004 C05D0000 		.word	24000
 3002              		.type	cydelayFreqMhz, %object
 3003              		.size	cydelayFreqMhz, 1
 3004              	cydelayFreqMhz:
 3005 0008 18       		.byte	24
 3006 0009 000000   		.space	3
 3007              		.type	cydelayFreqHz, %object
 3008              		.size	cydelayFreqHz, 4
 3009              	cydelayFreqHz:
 3010 000c 00366E01 		.word	24000000
 3011              		.bss
 3012              		.align	2
 3013              		.set	.LANCHOR0,. + 0
ARM GAS  C:\Users\Pablo\AppData\Local\Temp\ccDGsedh.s 			page 111


 3014              		.type	lfclkPosedgeEnabledWdtCounter, %object
 3015              		.size	lfclkPosedgeEnabledWdtCounter, 4
 3016              	lfclkPosedgeEnabledWdtCounter:
 3017 0000 00000000 		.space	4
 3018              		.type	lfclkPosedgeWdtCounter0Enabled, %object
 3019              		.size	lfclkPosedgeWdtCounter0Enabled, 4
 3020              	lfclkPosedgeWdtCounter0Enabled:
 3021 0004 00000000 		.space	4
 3022              		.type	lfclkPosedgeWdtCounter0Mode, %object
 3023              		.size	lfclkPosedgeWdtCounter0Mode, 4
 3024              	lfclkPosedgeWdtCounter0Mode:
 3025 0008 00000000 		.space	4
 3026              		.type	CySysTickCallbacks, %object
 3027              		.size	CySysTickCallbacks, 20
 3028              	CySysTickCallbacks:
 3029 000c 00000000 		.space	20
 3029      00000000 
 3029      00000000 
 3029      00000000 
 3029      00000000 
 3030              		.type	CySysTickInitVar, %object
 3031              		.size	CySysTickInitVar, 4
 3032              	CySysTickInitVar:
 3033 0020 00000000 		.space	4
 3034              		.text
 3035              	.Letext0:
 3036              		.file 2 ".\\Generated_Source\\PSoC4\\cytypes.h"
 3037              		.file 3 ".\\Generated_Source\\PSoC4\\CyLib.h"
 3038              		.section	.debug_info,"",%progbits
 3039              	.Ldebug_info0:
 3040 0000 A4110000 		.4byte	0x11a4
 3041 0004 0400     		.2byte	0x4
 3042 0006 00000000 		.4byte	.Ldebug_abbrev0
 3043 000a 04       		.byte	0x4
 3044 000b 01       		.uleb128 0x1
 3045 000c D8060000 		.4byte	.LASF133
 3046 0010 01       		.byte	0x1
 3047 0011 C0030000 		.4byte	.LASF134
 3048 0015 B5070000 		.4byte	.LASF135
 3049 0019 28010000 		.4byte	.Ldebug_ranges0+0x128
 3050 001d 00000000 		.4byte	0
 3051 0021 00000000 		.4byte	.Ldebug_line0
 3052 0025 02       		.uleb128 0x2
 3053 0026 01       		.byte	0x1
 3054 0027 06       		.byte	0x6
 3055 0028 2C010000 		.4byte	.LASF0
 3056 002c 02       		.uleb128 0x2
 3057 002d 01       		.byte	0x1
 3058 002e 08       		.byte	0x8
 3059 002f A9050000 		.4byte	.LASF1
 3060 0033 02       		.uleb128 0x2
 3061 0034 02       		.byte	0x2
 3062 0035 05       		.byte	0x5
 3063 0036 DC050000 		.4byte	.LASF2
 3064 003a 02       		.uleb128 0x2
 3065 003b 02       		.byte	0x2
 3066 003c 07       		.byte	0x7
ARM GAS  C:\Users\Pablo\AppData\Local\Temp\ccDGsedh.s 			page 112


 3067 003d 9E030000 		.4byte	.LASF3
 3068 0041 02       		.uleb128 0x2
 3069 0042 04       		.byte	0x4
 3070 0043 05       		.byte	0x5
 3071 0044 AB010000 		.4byte	.LASF4
 3072 0048 02       		.uleb128 0x2
 3073 0049 04       		.byte	0x4
 3074 004a 07       		.byte	0x7
 3075 004b 04030000 		.4byte	.LASF5
 3076 004f 02       		.uleb128 0x2
 3077 0050 08       		.byte	0x8
 3078 0051 05       		.byte	0x5
 3079 0052 1E010000 		.4byte	.LASF6
 3080 0056 02       		.uleb128 0x2
 3081 0057 08       		.byte	0x8
 3082 0058 07       		.byte	0x7
 3083 0059 B2000000 		.4byte	.LASF7
 3084 005d 03       		.uleb128 0x3
 3085 005e 04       		.byte	0x4
 3086 005f 05       		.byte	0x5
 3087 0060 696E7400 		.ascii	"int\000"
 3088 0064 02       		.uleb128 0x2
 3089 0065 04       		.byte	0x4
 3090 0066 07       		.byte	0x7
 3091 0067 DD020000 		.4byte	.LASF8
 3092 006b 04       		.uleb128 0x4
 3093 006c D6010000 		.4byte	.LASF9
 3094 0070 02       		.byte	0x2
 3095 0071 A1       		.byte	0xa1
 3096 0072 2C000000 		.4byte	0x2c
 3097 0076 04       		.uleb128 0x4
 3098 0077 1A000000 		.4byte	.LASF10
 3099 007b 02       		.byte	0x2
 3100 007c A2       		.byte	0xa2
 3101 007d 3A000000 		.4byte	0x3a
 3102 0081 04       		.uleb128 0x4
 3103 0082 48020000 		.4byte	.LASF11
 3104 0086 02       		.byte	0x2
 3105 0087 A3       		.byte	0xa3
 3106 0088 48000000 		.4byte	0x48
 3107 008c 02       		.uleb128 0x2
 3108 008d 04       		.byte	0x4
 3109 008e 04       		.byte	0x4
 3110 008f 1F050000 		.4byte	.LASF12
 3111 0093 02       		.uleb128 0x2
 3112 0094 08       		.byte	0x8
 3113 0095 04       		.byte	0x4
 3114 0096 F2010000 		.4byte	.LASF13
 3115 009a 02       		.uleb128 0x2
 3116 009b 01       		.byte	0x1
 3117 009c 08       		.byte	0x8
 3118 009d 9B060000 		.4byte	.LASF14
 3119 00a1 05       		.uleb128 0x5
 3120 00a2 93050000 		.4byte	.LASF15
 3121 00a6 02       		.byte	0x2
 3122 00a7 4B01     		.2byte	0x14b
 3123 00a9 AD000000 		.4byte	0xad
ARM GAS  C:\Users\Pablo\AppData\Local\Temp\ccDGsedh.s 			page 113


 3124 00ad 06       		.uleb128 0x6
 3125 00ae 6B000000 		.4byte	0x6b
 3126 00b2 05       		.uleb128 0x5
 3127 00b3 30040000 		.4byte	.LASF16
 3128 00b7 02       		.byte	0x2
 3129 00b8 4D01     		.2byte	0x14d
 3130 00ba BE000000 		.4byte	0xbe
 3131 00be 06       		.uleb128 0x6
 3132 00bf 81000000 		.4byte	0x81
 3133 00c3 05       		.uleb128 0x5
 3134 00c4 AE060000 		.4byte	.LASF17
 3135 00c8 02       		.byte	0x2
 3136 00c9 5D01     		.2byte	0x15d
 3137 00cb CF000000 		.4byte	0xcf
 3138 00cf 07       		.uleb128 0x7
 3139 00d0 04       		.byte	0x4
 3140 00d1 D5000000 		.4byte	0xd5
 3141 00d5 08       		.uleb128 0x8
 3142 00d6 02       		.uleb128 0x2
 3143 00d7 04       		.byte	0x4
 3144 00d8 07       		.byte	0x7
 3145 00d9 78040000 		.4byte	.LASF18
 3146 00dd 04       		.uleb128 0x4
 3147 00de 40050000 		.4byte	.LASF19
 3148 00e2 03       		.byte	0x3
 3149 00e3 8B       		.byte	0x8b
 3150 00e4 CF000000 		.4byte	0xcf
 3151 00e8 09       		.uleb128 0x9
 3152 00e9 00000000 		.4byte	.LASF23
 3153 00ed 01       		.byte	0x1
 3154 00ee 3E04     		.2byte	0x43e
 3155 00f0 01       		.byte	0x1
 3156 00f1 1A010000 		.4byte	0x11a
 3157 00f5 0A       		.uleb128 0xa
 3158 00f6 59000000 		.4byte	.LASF20
 3159 00fa 01       		.byte	0x1
 3160 00fb 3E04     		.2byte	0x43e
 3161 00fd 81000000 		.4byte	0x81
 3162 0101 0A       		.uleb128 0xa
 3163 0102 A9060000 		.4byte	.LASF21
 3164 0106 01       		.byte	0x1
 3165 0107 3E04     		.2byte	0x43e
 3166 0109 81000000 		.4byte	0x81
 3167 010d 0B       		.uleb128 0xb
 3168 010e 17080000 		.4byte	.LASF22
 3169 0112 01       		.byte	0x1
 3170 0113 4004     		.2byte	0x440
 3171 0115 81000000 		.4byte	0x81
 3172 0119 00       		.byte	0
 3173 011a 0C       		.uleb128 0xc
 3174 011b 72060000 		.4byte	.LASF56
 3175 011f 01       		.byte	0x1
 3176 0120 BB0B     		.2byte	0xbbb
 3177 0122 01       		.byte	0x1
 3178 0123 32010000 		.4byte	0x132
 3179 0127 0D       		.uleb128 0xd
 3180 0128 6900     		.ascii	"i\000"
ARM GAS  C:\Users\Pablo\AppData\Local\Temp\ccDGsedh.s 			page 114


 3181 012a 01       		.byte	0x1
 3182 012b BD0B     		.2byte	0xbbd
 3183 012d 81000000 		.4byte	0x81
 3184 0131 00       		.byte	0
 3185 0132 09       		.uleb128 0x9
 3186 0133 D9080000 		.4byte	.LASF24
 3187 0137 01       		.byte	0x1
 3188 0138 FB0A     		.2byte	0xafb
 3189 013a 01       		.byte	0x1
 3190 013b 4C010000 		.4byte	0x14c
 3191 013f 0A       		.uleb128 0xa
 3192 0140 B5020000 		.4byte	.LASF25
 3193 0144 01       		.byte	0x1
 3194 0145 FB0A     		.2byte	0xafb
 3195 0147 81000000 		.4byte	0x81
 3196 014b 00       		.byte	0
 3197 014c 0E       		.uleb128 0xe
 3198 014d F5020000 		.4byte	.LASF136
 3199 0151 01       		.byte	0x1
 3200 0152 770B     		.2byte	0xb77
 3201 0154 01       		.byte	0x1
 3202 0155 0F       		.uleb128 0xf
 3203 0156 90080000 		.4byte	.LASF26
 3204 015a 01       		.byte	0x1
 3205 015b 57       		.byte	0x57
 3206 015c 00000000 		.4byte	.LFB0
 3207 0160 14000000 		.4byte	.LFE0-.LFB0
 3208 0164 01       		.uleb128 0x1
 3209 0165 9C       		.byte	0x9c
 3210 0166 0F       		.uleb128 0xf
 3211 0167 31030000 		.4byte	.LASF27
 3212 016b 01       		.byte	0x1
 3213 016c 6B       		.byte	0x6b
 3214 016d 00000000 		.4byte	.LFB1
 3215 0171 10000000 		.4byte	.LFE1-.LFB1
 3216 0175 01       		.uleb128 0x1
 3217 0176 9C       		.byte	0x9c
 3218 0177 0F       		.uleb128 0xf
 3219 0178 F8030000 		.4byte	.LASF28
 3220 017c 01       		.byte	0x1
 3221 017d 7F       		.byte	0x7f
 3222 017e 00000000 		.4byte	.LFB2
 3223 0182 14000000 		.4byte	.LFE2-.LFB2
 3224 0186 01       		.uleb128 0x1
 3225 0187 9C       		.byte	0x9c
 3226 0188 10       		.uleb128 0x10
 3227 0189 2A000000 		.4byte	.LASF29
 3228 018d 01       		.byte	0x1
 3229 018e 5501     		.2byte	0x155
 3230 0190 00000000 		.4byte	.LFB5
 3231 0194 24000000 		.4byte	.LFE5-.LFB5
 3232 0198 01       		.uleb128 0x1
 3233 0199 9C       		.byte	0x9c
 3234 019a D1010000 		.4byte	0x1d1
 3235 019e 11       		.uleb128 0x11
 3236 019f 3A060000 		.4byte	.LASF31
 3237 01a3 01       		.byte	0x1
ARM GAS  C:\Users\Pablo\AppData\Local\Temp\ccDGsedh.s 			page 115


 3238 01a4 5501     		.2byte	0x155
 3239 01a6 81000000 		.4byte	0x81
 3240 01aa 00000000 		.4byte	.LLST0
 3241 01ae 12       		.uleb128 0x12
 3242 01af 67010000 		.4byte	.LASF33
 3243 01b3 01       		.byte	0x1
 3244 01b4 5701     		.2byte	0x157
 3245 01b6 6B000000 		.4byte	0x6b
 3246 01ba 2C000000 		.4byte	.LLST1
 3247 01be 13       		.uleb128 0x13
 3248 01bf 08000000 		.4byte	.LVL1
 3249 01c3 7E110000 		.4byte	0x117e
 3250 01c7 13       		.uleb128 0x13
 3251 01c8 1C000000 		.4byte	.LVL3
 3252 01cc 89110000 		.4byte	0x1189
 3253 01d0 00       		.byte	0
 3254 01d1 10       		.uleb128 0x10
 3255 01d2 54070000 		.4byte	.LASF30
 3256 01d6 01       		.byte	0x1
 3257 01d7 8601     		.2byte	0x186
 3258 01d9 00000000 		.4byte	.LFB6
 3259 01dd 2C000000 		.4byte	.LFE6-.LFB6
 3260 01e1 01       		.uleb128 0x1
 3261 01e2 9C       		.byte	0x9c
 3262 01e3 1A020000 		.4byte	0x21a
 3263 01e7 11       		.uleb128 0x11
 3264 01e8 7F080000 		.4byte	.LASF32
 3265 01ec 01       		.byte	0x1
 3266 01ed 8601     		.2byte	0x186
 3267 01ef 81000000 		.4byte	0x81
 3268 01f3 3F000000 		.4byte	.LLST2
 3269 01f7 12       		.uleb128 0x12
 3270 01f8 67010000 		.4byte	.LASF33
 3271 01fc 01       		.byte	0x1
 3272 01fd 8801     		.2byte	0x188
 3273 01ff 6B000000 		.4byte	0x6b
 3274 0203 6B000000 		.4byte	.LLST3
 3275 0207 13       		.uleb128 0x13
 3276 0208 08000000 		.4byte	.LVL5
 3277 020c 7E110000 		.4byte	0x117e
 3278 0210 13       		.uleb128 0x13
 3279 0211 20000000 		.4byte	.LVL7
 3280 0215 89110000 		.4byte	0x1189
 3281 0219 00       		.byte	0
 3282 021a 10       		.uleb128 0x10
 3283 021b CB060000 		.4byte	.LASF34
 3284 021f 01       		.byte	0x1
 3285 0220 C603     		.2byte	0x3c6
 3286 0222 00000000 		.4byte	.LFB8
 3287 0226 1C000000 		.4byte	.LFE8-.LFB8
 3288 022a 01       		.uleb128 0x1
 3289 022b 9C       		.byte	0x9c
 3290 022c 53020000 		.4byte	0x253
 3291 0230 12       		.uleb128 0x12
 3292 0231 67010000 		.4byte	.LASF33
 3293 0235 01       		.byte	0x1
 3294 0236 C803     		.2byte	0x3c8
ARM GAS  C:\Users\Pablo\AppData\Local\Temp\ccDGsedh.s 			page 116


 3295 0238 6B000000 		.4byte	0x6b
 3296 023c 7E000000 		.4byte	.LLST4
 3297 0240 13       		.uleb128 0x13
 3298 0241 06000000 		.4byte	.LVL8
 3299 0245 7E110000 		.4byte	0x117e
 3300 0249 13       		.uleb128 0x13
 3301 024a 16000000 		.4byte	.LVL9
 3302 024e 89110000 		.4byte	0x1189
 3303 0252 00       		.byte	0
 3304 0253 10       		.uleb128 0x10
 3305 0254 43000000 		.4byte	.LASF35
 3306 0258 01       		.byte	0x1
 3307 0259 F503     		.2byte	0x3f5
 3308 025b 00000000 		.4byte	.LFB10
 3309 025f 30000000 		.4byte	.LFE10-.LFB10
 3310 0263 01       		.uleb128 0x1
 3311 0264 9C       		.byte	0x9c
 3312 0265 8C020000 		.4byte	0x28c
 3313 0269 12       		.uleb128 0x12
 3314 026a 67010000 		.4byte	.LASF33
 3315 026e 01       		.byte	0x1
 3316 026f F703     		.2byte	0x3f7
 3317 0271 6B000000 		.4byte	0x6b
 3318 0275 91000000 		.4byte	.LLST5
 3319 0279 13       		.uleb128 0x13
 3320 027a 06000000 		.4byte	.LVL10
 3321 027e 7E110000 		.4byte	0x117e
 3322 0282 13       		.uleb128 0x13
 3323 0283 26000000 		.4byte	.LVL11
 3324 0287 89110000 		.4byte	0x1189
 3325 028b 00       		.byte	0
 3326 028c 14       		.uleb128 0x14
 3327 028d A1080000 		.4byte	.LASF36
 3328 0291 01       		.byte	0x1
 3329 0292 1A04     		.2byte	0x41a
 3330 0294 81000000 		.4byte	0x81
 3331 0298 01       		.byte	0x1
 3332 0299 AA020000 		.4byte	0x2aa
 3333 029d 0A       		.uleb128 0xa
 3334 029e 59000000 		.4byte	.LASF20
 3335 02a2 01       		.byte	0x1
 3336 02a3 1A04     		.2byte	0x41a
 3337 02a5 81000000 		.4byte	0x81
 3338 02a9 00       		.byte	0
 3339 02aa 15       		.uleb128 0x15
 3340 02ab 8C020000 		.4byte	0x28c
 3341 02af 00000000 		.4byte	.LFB11
 3342 02b3 18000000 		.4byte	.LFE11-.LFB11
 3343 02b7 01       		.uleb128 0x1
 3344 02b8 9C       		.byte	0x9c
 3345 02b9 C7020000 		.4byte	0x2c7
 3346 02bd 16       		.uleb128 0x16
 3347 02be 9D020000 		.4byte	0x29d
 3348 02c2 A4000000 		.4byte	.LLST6
 3349 02c6 00       		.byte	0
 3350 02c7 15       		.uleb128 0x15
 3351 02c8 E8000000 		.4byte	0xe8
ARM GAS  C:\Users\Pablo\AppData\Local\Temp\ccDGsedh.s 			page 117


 3352 02cc 00000000 		.4byte	.LFB12
 3353 02d0 2C000000 		.4byte	.LFE12-.LFB12
 3354 02d4 01       		.uleb128 0x1
 3355 02d5 9C       		.byte	0x9c
 3356 02d6 35030000 		.4byte	0x335
 3357 02da 16       		.uleb128 0x16
 3358 02db F5000000 		.4byte	0xf5
 3359 02df C5000000 		.4byte	.LLST7
 3360 02e3 16       		.uleb128 0x16
 3361 02e4 01010000 		.4byte	0x101
 3362 02e8 F1000000 		.4byte	.LLST8
 3363 02ec 17       		.uleb128 0x17
 3364 02ed 0D010000 		.4byte	0x10d
 3365 02f1 18       		.uleb128 0x18
 3366 02f2 0E000000 		.4byte	.LBB8
 3367 02f6 18000000 		.4byte	.LBE8-.LBB8
 3368 02fa 24030000 		.4byte	0x324
 3369 02fe 16       		.uleb128 0x16
 3370 02ff 01010000 		.4byte	0x101
 3371 0303 1D010000 		.4byte	.LLST9
 3372 0307 16       		.uleb128 0x16
 3373 0308 F5000000 		.4byte	0xf5
 3374 030c 3E010000 		.4byte	.LLST10
 3375 0310 19       		.uleb128 0x19
 3376 0311 0E000000 		.4byte	.LBB9
 3377 0315 18000000 		.4byte	.LBE9-.LBB9
 3378 0319 1A       		.uleb128 0x1a
 3379 031a 0D010000 		.4byte	0x10d
 3380 031e 5F010000 		.4byte	.LLST11
 3381 0322 00       		.byte	0
 3382 0323 00       		.byte	0
 3383 0324 1B       		.uleb128 0x1b
 3384 0325 0A000000 		.4byte	.LVL15
 3385 0329 8C020000 		.4byte	0x28c
 3386 032d 1C       		.uleb128 0x1c
 3387 032e 01       		.uleb128 0x1
 3388 032f 50       		.byte	0x50
 3389 0330 02       		.uleb128 0x2
 3390 0331 74       		.byte	0x74
 3391 0332 00       		.sleb128 0
 3392 0333 00       		.byte	0
 3393 0334 00       		.byte	0
 3394 0335 14       		.uleb128 0x14
 3395 0336 38010000 		.4byte	.LASF37
 3396 033a 01       		.byte	0x1
 3397 033b 5D04     		.2byte	0x45d
 3398 033d 81000000 		.4byte	0x81
 3399 0341 01       		.byte	0x1
 3400 0342 53030000 		.4byte	0x353
 3401 0346 0A       		.uleb128 0xa
 3402 0347 59000000 		.4byte	.LASF20
 3403 034b 01       		.byte	0x1
 3404 034c 5D04     		.2byte	0x45d
 3405 034e 81000000 		.4byte	0x81
 3406 0352 00       		.byte	0
 3407 0353 15       		.uleb128 0x15
 3408 0354 35030000 		.4byte	0x335
ARM GAS  C:\Users\Pablo\AppData\Local\Temp\ccDGsedh.s 			page 118


 3409 0358 00000000 		.4byte	.LFB13
 3410 035c 14000000 		.4byte	.LFE13-.LFB13
 3411 0360 01       		.uleb128 0x1
 3412 0361 9C       		.byte	0x9c
 3413 0362 70030000 		.4byte	0x370
 3414 0366 16       		.uleb128 0x16
 3415 0367 46030000 		.4byte	0x346
 3416 036b 7D010000 		.4byte	.LLST12
 3417 036f 00       		.byte	0
 3418 0370 10       		.uleb128 0x10
 3419 0371 36040000 		.4byte	.LASF38
 3420 0375 01       		.byte	0x1
 3421 0376 7E04     		.2byte	0x47e
 3422 0378 00000000 		.4byte	.LFB14
 3423 037c 2C000000 		.4byte	.LFE14-.LFB14
 3424 0380 01       		.uleb128 0x1
 3425 0381 9C       		.byte	0x9c
 3426 0382 C7030000 		.4byte	0x3c7
 3427 0386 11       		.uleb128 0x11
 3428 0387 59000000 		.4byte	.LASF20
 3429 038b 01       		.byte	0x1
 3430 038c 7E04     		.2byte	0x47e
 3431 038e 81000000 		.4byte	0x81
 3432 0392 9E010000 		.4byte	.LLST13
 3433 0396 11       		.uleb128 0x11
 3434 0397 EB010000 		.4byte	.LASF39
 3435 039b 01       		.byte	0x1
 3436 039c 7E04     		.2byte	0x47e
 3437 039e 81000000 		.4byte	0x81
 3438 03a2 CA010000 		.4byte	.LLST14
 3439 03a6 12       		.uleb128 0x12
 3440 03a7 17080000 		.4byte	.LASF22
 3441 03ab 01       		.byte	0x1
 3442 03ac 8004     		.2byte	0x480
 3443 03ae 81000000 		.4byte	0x81
 3444 03b2 F6010000 		.4byte	.LLST15
 3445 03b6 1B       		.uleb128 0x1b
 3446 03b7 0A000000 		.4byte	.LVL25
 3447 03bb 8C020000 		.4byte	0x28c
 3448 03bf 1C       		.uleb128 0x1c
 3449 03c0 01       		.uleb128 0x1
 3450 03c1 50       		.byte	0x50
 3451 03c2 02       		.uleb128 0x2
 3452 03c3 74       		.byte	0x74
 3453 03c4 00       		.sleb128 0
 3454 03c5 00       		.byte	0
 3455 03c6 00       		.byte	0
 3456 03c7 1D       		.uleb128 0x1d
 3457 03c8 5F040000 		.4byte	.LASF50
 3458 03cc 01       		.byte	0x1
 3459 03cd A104     		.2byte	0x4a1
 3460 03cf 81000000 		.4byte	0x81
 3461 03d3 00000000 		.4byte	.LFB15
 3462 03d7 18000000 		.4byte	.LFE15-.LFB15
 3463 03db 01       		.uleb128 0x1
 3464 03dc 9C       		.byte	0x9c
 3465 03dd F2030000 		.4byte	0x3f2
ARM GAS  C:\Users\Pablo\AppData\Local\Temp\ccDGsedh.s 			page 119


 3466 03e1 11       		.uleb128 0x11
 3467 03e2 59000000 		.4byte	.LASF20
 3468 03e6 01       		.byte	0x1
 3469 03e7 A104     		.2byte	0x4a1
 3470 03e9 81000000 		.4byte	0x81
 3471 03ed 14020000 		.4byte	.LLST16
 3472 03f1 00       		.byte	0
 3473 03f2 10       		.uleb128 0x10
 3474 03f3 41030000 		.4byte	.LASF40
 3475 03f7 01       		.byte	0x1
 3476 03f8 CF04     		.2byte	0x4cf
 3477 03fa 00000000 		.4byte	.LFB16
 3478 03fe 34000000 		.4byte	.LFE16-.LFB16
 3479 0402 01       		.uleb128 0x1
 3480 0403 9C       		.byte	0x9c
 3481 0404 7C040000 		.4byte	0x47c
 3482 0408 11       		.uleb128 0x11
 3483 0409 BB020000 		.4byte	.LASF41
 3484 040d 01       		.byte	0x1
 3485 040e CF04     		.2byte	0x4cf
 3486 0410 81000000 		.4byte	0x81
 3487 0414 35020000 		.4byte	.LLST17
 3488 0418 1E       		.uleb128 0x1e
 3489 0419 8C020000 		.4byte	0x28c
 3490 041d 14000000 		.4byte	.LBB16
 3491 0421 02000000 		.4byte	.LBE16-.LBB16
 3492 0425 01       		.byte	0x1
 3493 0426 D904     		.2byte	0x4d9
 3494 0428 36040000 		.4byte	0x436
 3495 042c 16       		.uleb128 0x16
 3496 042d 9D020000 		.4byte	0x29d
 3497 0431 61020000 		.4byte	.LLST18
 3498 0435 00       		.byte	0
 3499 0436 1E       		.uleb128 0x1e
 3500 0437 8C020000 		.4byte	0x28c
 3501 043b 1E000000 		.4byte	.LBB18
 3502 043f 02000000 		.4byte	.LBE18-.LBB18
 3503 0443 01       		.byte	0x1
 3504 0444 E104     		.2byte	0x4e1
 3505 0446 54040000 		.4byte	0x454
 3506 044a 16       		.uleb128 0x16
 3507 044b 9D020000 		.4byte	0x29d
 3508 044f 75020000 		.4byte	.LLST19
 3509 0453 00       		.byte	0
 3510 0454 1E       		.uleb128 0x1e
 3511 0455 8C020000 		.4byte	0x28c
 3512 0459 28000000 		.4byte	.LBB20
 3513 045d 02000000 		.4byte	.LBE20-.LBB20
 3514 0461 01       		.byte	0x1
 3515 0462 E904     		.2byte	0x4e9
 3516 0464 72040000 		.4byte	0x472
 3517 0468 16       		.uleb128 0x16
 3518 0469 9D020000 		.4byte	0x29d
 3519 046d 89020000 		.4byte	.LLST20
 3520 0471 00       		.byte	0
 3521 0472 13       		.uleb128 0x13
 3522 0473 08000000 		.4byte	.LVL34
ARM GAS  C:\Users\Pablo\AppData\Local\Temp\ccDGsedh.s 			page 120


 3523 0477 77010000 		.4byte	0x177
 3524 047b 00       		.byte	0
 3525 047c 10       		.uleb128 0x10
 3526 047d FA050000 		.4byte	.LASF42
 3527 0481 01       		.byte	0x1
 3528 0482 0405     		.2byte	0x504
 3529 0484 00000000 		.4byte	.LFB17
 3530 0488 2C000000 		.4byte	.LFE17-.LFB17
 3531 048c 01       		.uleb128 0x1
 3532 048d 9C       		.byte	0x9c
 3533 048e F7040000 		.4byte	0x4f7
 3534 0492 1F       		.uleb128 0x1f
 3535 0493 BB020000 		.4byte	.LASF41
 3536 0497 01       		.byte	0x1
 3537 0498 0405     		.2byte	0x504
 3538 049a 81000000 		.4byte	0x81
 3539 049e 01       		.uleb128 0x1
 3540 049f 50       		.byte	0x50
 3541 04a0 1E       		.uleb128 0x1e
 3542 04a1 8C020000 		.4byte	0x28c
 3543 04a5 0C000000 		.4byte	.LBB28
 3544 04a9 02000000 		.4byte	.LBE28-.LBB28
 3545 04ad 01       		.byte	0x1
 3546 04ae 0A05     		.2byte	0x50a
 3547 04b0 BE040000 		.4byte	0x4be
 3548 04b4 16       		.uleb128 0x16
 3549 04b5 9D020000 		.4byte	0x29d
 3550 04b9 9D020000 		.4byte	.LLST21
 3551 04bd 00       		.byte	0
 3552 04be 1E       		.uleb128 0x1e
 3553 04bf 8C020000 		.4byte	0x28c
 3554 04c3 16000000 		.4byte	.LBB30
 3555 04c7 02000000 		.4byte	.LBE30-.LBB30
 3556 04cb 01       		.byte	0x1
 3557 04cc 1205     		.2byte	0x512
 3558 04ce DC040000 		.4byte	0x4dc
 3559 04d2 16       		.uleb128 0x16
 3560 04d3 9D020000 		.4byte	0x29d
 3561 04d7 B1020000 		.4byte	.LLST22
 3562 04db 00       		.byte	0
 3563 04dc 20       		.uleb128 0x20
 3564 04dd 8C020000 		.4byte	0x28c
 3565 04e1 20000000 		.4byte	.LBB32
 3566 04e5 02000000 		.4byte	.LBE32-.LBB32
 3567 04e9 01       		.byte	0x1
 3568 04ea 1A05     		.2byte	0x51a
 3569 04ec 16       		.uleb128 0x16
 3570 04ed 9D020000 		.4byte	0x29d
 3571 04f1 C5020000 		.4byte	.LLST23
 3572 04f5 00       		.byte	0
 3573 04f6 00       		.byte	0
 3574 04f7 10       		.uleb128 0x10
 3575 04f8 09020000 		.4byte	.LASF43
 3576 04fc 01       		.byte	0x1
 3577 04fd 4305     		.2byte	0x543
 3578 04ff 00000000 		.4byte	.LFB18
 3579 0503 34000000 		.4byte	.LFE18-.LFB18
ARM GAS  C:\Users\Pablo\AppData\Local\Temp\ccDGsedh.s 			page 121


 3580 0507 01       		.uleb128 0x1
 3581 0508 9C       		.byte	0x9c
 3582 0509 8B050000 		.4byte	0x58b
 3583 050d 11       		.uleb128 0x11
 3584 050e 73080000 		.4byte	.LASF44
 3585 0512 01       		.byte	0x1
 3586 0513 4305     		.2byte	0x543
 3587 0515 81000000 		.4byte	0x81
 3588 0519 D9020000 		.4byte	.LLST24
 3589 051d 12       		.uleb128 0x12
 3590 051e 17080000 		.4byte	.LASF22
 3591 0522 01       		.byte	0x1
 3592 0523 4505     		.2byte	0x545
 3593 0525 81000000 		.4byte	0x81
 3594 0529 FA020000 		.4byte	.LLST25
 3595 052d 12       		.uleb128 0x12
 3596 052e 92020000 		.4byte	.LASF45
 3597 0532 01       		.byte	0x1
 3598 0533 4605     		.2byte	0x546
 3599 0535 81000000 		.4byte	0x81
 3600 0539 23030000 		.4byte	.LLST26
 3601 053d 21       		.uleb128 0x21
 3602 053e 8C020000 		.4byte	0x28c
 3603 0542 00000000 		.4byte	.LBB40
 3604 0546 00000000 		.4byte	.Ldebug_ranges0+0
 3605 054a 01       		.byte	0x1
 3606 054b 4805     		.2byte	0x548
 3607 054d 58050000 		.4byte	0x558
 3608 0551 22       		.uleb128 0x22
 3609 0552 9D020000 		.4byte	0x29d
 3610 0556 00       		.byte	0
 3611 0557 00       		.byte	0
 3612 0558 21       		.uleb128 0x21
 3613 0559 8C020000 		.4byte	0x28c
 3614 055d 06000000 		.4byte	.LBB45
 3615 0561 20000000 		.4byte	.Ldebug_ranges0+0x20
 3616 0565 01       		.byte	0x1
 3617 0566 4905     		.2byte	0x549
 3618 0568 73050000 		.4byte	0x573
 3619 056c 22       		.uleb128 0x22
 3620 056d 9D020000 		.4byte	0x29d
 3621 0571 01       		.byte	0x1
 3622 0572 00       		.byte	0
 3623 0573 23       		.uleb128 0x23
 3624 0574 8C020000 		.4byte	0x28c
 3625 0578 08000000 		.4byte	.LBB48
 3626 057c 38000000 		.4byte	.Ldebug_ranges0+0x38
 3627 0580 01       		.byte	0x1
 3628 0581 4A05     		.2byte	0x54a
 3629 0583 22       		.uleb128 0x22
 3630 0584 9D020000 		.4byte	0x29d
 3631 0588 02       		.byte	0x2
 3632 0589 00       		.byte	0
 3633 058a 00       		.byte	0
 3634 058b 24       		.uleb128 0x24
 3635 058c E6050000 		.4byte	.LASF48
 3636 0590 01       		.byte	0x1
ARM GAS  C:\Users\Pablo\AppData\Local\Temp\ccDGsedh.s 			page 122


 3637 0591 6805     		.2byte	0x568
 3638 0593 81000000 		.4byte	0x81
 3639 0597 00000000 		.4byte	.LFB19
 3640 059b 14000000 		.4byte	.LFE19-.LFB19
 3641 059f 01       		.uleb128 0x1
 3642 05a0 9C       		.byte	0x9c
 3643 05a1 10       		.uleb128 0x10
 3644 05a2 EC080000 		.4byte	.LASF46
 3645 05a6 01       		.byte	0x1
 3646 05a7 AD05     		.2byte	0x5ad
 3647 05a9 00000000 		.4byte	.LFB21
 3648 05ad 28000000 		.4byte	.LFE21-.LFB21
 3649 05b1 01       		.uleb128 0x1
 3650 05b2 9C       		.byte	0x9c
 3651 05b3 EF050000 		.4byte	0x5ef
 3652 05b7 11       		.uleb128 0x11
 3653 05b8 A6010000 		.4byte	.LASF47
 3654 05bc 01       		.byte	0x1
 3655 05bd AD05     		.2byte	0x5ad
 3656 05bf 81000000 		.4byte	0x81
 3657 05c3 46030000 		.4byte	.LLST27
 3658 05c7 12       		.uleb128 0x12
 3659 05c8 17080000 		.4byte	.LASF22
 3660 05cc 01       		.byte	0x1
 3661 05cd AF05     		.2byte	0x5af
 3662 05cf 81000000 		.4byte	0x81
 3663 05d3 67030000 		.4byte	.LLST28
 3664 05d7 20       		.uleb128 0x20
 3665 05d8 8C020000 		.4byte	0x28c
 3666 05dc 00000000 		.4byte	.LBB56
 3667 05e0 04000000 		.4byte	.LBE56-.LBB56
 3668 05e4 01       		.byte	0x1
 3669 05e5 B105     		.2byte	0x5b1
 3670 05e7 22       		.uleb128 0x22
 3671 05e8 9D020000 		.4byte	0x29d
 3672 05ec 02       		.byte	0x2
 3673 05ed 00       		.byte	0
 3674 05ee 00       		.byte	0
 3675 05ef 24       		.uleb128 0x24
 3676 05f0 6E050000 		.4byte	.LASF49
 3677 05f4 01       		.byte	0x1
 3678 05f5 C905     		.2byte	0x5c9
 3679 05f7 81000000 		.4byte	0x81
 3680 05fb 00000000 		.4byte	.LFB22
 3681 05ff 10000000 		.4byte	.LFE22-.LFB22
 3682 0603 01       		.uleb128 0x1
 3683 0604 9C       		.byte	0x9c
 3684 0605 1D       		.uleb128 0x1d
 3685 0606 28060000 		.4byte	.LASF51
 3686 060a 01       		.byte	0x1
 3687 060b DE05     		.2byte	0x5de
 3688 060d 81000000 		.4byte	0x81
 3689 0611 00000000 		.4byte	.LFB23
 3690 0615 10000000 		.4byte	.LFE23-.LFB23
 3691 0619 01       		.uleb128 0x1
 3692 061a 9C       		.byte	0x9c
 3693 061b 30060000 		.4byte	0x630
ARM GAS  C:\Users\Pablo\AppData\Local\Temp\ccDGsedh.s 			page 123


 3694 061f 11       		.uleb128 0x11
 3695 0620 59000000 		.4byte	.LASF20
 3696 0624 01       		.byte	0x1
 3697 0625 DE05     		.2byte	0x5de
 3698 0627 81000000 		.4byte	0x81
 3699 062b 90030000 		.4byte	.LLST29
 3700 062f 00       		.byte	0
 3701 0630 1D       		.uleb128 0x1d
 3702 0631 49010000 		.4byte	.LASF52
 3703 0635 01       		.byte	0x1
 3704 0636 F605     		.2byte	0x5f6
 3705 0638 81000000 		.4byte	0x81
 3706 063c 00000000 		.4byte	.LFB24
 3707 0640 30000000 		.4byte	.LFE24-.LFB24
 3708 0644 01       		.uleb128 0x1
 3709 0645 9C       		.byte	0x9c
 3710 0646 6B060000 		.4byte	0x66b
 3711 064a 11       		.uleb128 0x11
 3712 064b 59000000 		.4byte	.LASF20
 3713 064f 01       		.byte	0x1
 3714 0650 F605     		.2byte	0x5f6
 3715 0652 81000000 		.4byte	0x81
 3716 0656 B1030000 		.4byte	.LLST30
 3717 065a 12       		.uleb128 0x12
 3718 065b 69020000 		.4byte	.LASF53
 3719 065f 01       		.byte	0x1
 3720 0660 F805     		.2byte	0x5f8
 3721 0662 81000000 		.4byte	0x81
 3722 0666 1D040000 		.4byte	.LLST31
 3723 066a 00       		.byte	0
 3724 066b 25       		.uleb128 0x25
 3725 066c 84050000 		.4byte	.LASF54
 3726 0670 01       		.byte	0x1
 3727 0671 E003     		.2byte	0x3e0
 3728 0673 81000000 		.4byte	0x81
 3729 0677 01       		.byte	0x1
 3730 0678 26       		.uleb128 0x26
 3731 0679 44060000 		.4byte	.LASF55
 3732 067d 01       		.byte	0x1
 3733 067e D2       		.byte	0xd2
 3734 067f 81000000 		.4byte	0x81
 3735 0683 01       		.byte	0x1
 3736 0684 0C       		.uleb128 0xc
 3737 0685 64000000 		.4byte	.LASF57
 3738 0689 01       		.byte	0x1
 3739 068a A806     		.2byte	0x6a8
 3740 068c 01       		.byte	0x1
 3741 068d 9E060000 		.4byte	0x69e
 3742 0691 0B       		.uleb128 0xb
 3743 0692 EA020000 		.4byte	.LASF58
 3744 0696 01       		.byte	0x1
 3745 0697 AA06     		.2byte	0x6aa
 3746 0699 81000000 		.4byte	0x81
 3747 069d 00       		.byte	0
 3748 069e 27       		.uleb128 0x27
 3749 069f 50030000 		.4byte	.LASF137
 3750 06a3 01       		.byte	0x1
ARM GAS  C:\Users\Pablo\AppData\Local\Temp\ccDGsedh.s 			page 124


 3751 06a4 E206     		.2byte	0x6e2
 3752 06a6 01       		.byte	0x1
 3753 06a7 28       		.uleb128 0x28
 3754 06a8 F9010000 		.4byte	.LASF59
 3755 06ac 01       		.byte	0x1
 3756 06ad 9E       		.byte	0x9e
 3757 06ae 00000000 		.4byte	.LFB3
 3758 06b2 B4000000 		.4byte	.LFE3-.LFB3
 3759 06b6 01       		.uleb128 0x1
 3760 06b7 9C       		.byte	0x9c
 3761 06b8 F2070000 		.4byte	0x7f2
 3762 06bc 29       		.uleb128 0x29
 3763 06bd 67010000 		.4byte	.LASF33
 3764 06c1 01       		.byte	0x1
 3765 06c2 A1       		.byte	0xa1
 3766 06c3 6B000000 		.4byte	0x6b
 3767 06c7 81040000 		.4byte	.LLST32
 3768 06cb 2A       		.uleb128 0x2a
 3769 06cc 6B060000 		.4byte	0x66b
 3770 06d0 02000000 		.4byte	.LBB74
 3771 06d4 0E000000 		.4byte	.LBE74-.LBB74
 3772 06d8 01       		.byte	0x1
 3773 06d9 A4       		.byte	0xa4
 3774 06da 2A       		.uleb128 0x2a
 3775 06db 78060000 		.4byte	0x678
 3776 06df 10000000 		.4byte	.LBB76
 3777 06e3 08000000 		.4byte	.LBE76-.LBB76
 3778 06e7 01       		.byte	0x1
 3779 06e8 A6       		.byte	0xa6
 3780 06e9 2B       		.uleb128 0x2b
 3781 06ea 84060000 		.4byte	0x684
 3782 06ee 1C000000 		.4byte	.LBB78
 3783 06f2 50000000 		.4byte	.Ldebug_ranges0+0x50
 3784 06f6 01       		.byte	0x1
 3785 06f7 AF       		.byte	0xaf
 3786 06f8 B3070000 		.4byte	0x7b3
 3787 06fc 2C       		.uleb128 0x2c
 3788 06fd 50000000 		.4byte	.Ldebug_ranges0+0x50
 3789 0701 1A       		.uleb128 0x1a
 3790 0702 91060000 		.4byte	0x691
 3791 0706 95040000 		.4byte	.LLST33
 3792 070a 21       		.uleb128 0x21
 3793 070b 8C020000 		.4byte	0x28c
 3794 070f 1C000000 		.4byte	.LBB80
 3795 0713 68000000 		.4byte	.Ldebug_ranges0+0x68
 3796 0717 01       		.byte	0x1
 3797 0718 AC06     		.2byte	0x6ac
 3798 071a 28070000 		.4byte	0x728
 3799 071e 16       		.uleb128 0x16
 3800 071f 9D020000 		.4byte	0x29d
 3801 0723 A8040000 		.4byte	.LLST34
 3802 0727 00       		.byte	0
 3803 0728 1E       		.uleb128 0x1e
 3804 0729 8C020000 		.4byte	0x28c
 3805 072d 30000000 		.4byte	.LBB84
 3806 0731 04000000 		.4byte	.LBE84-.LBB84
 3807 0735 01       		.byte	0x1
ARM GAS  C:\Users\Pablo\AppData\Local\Temp\ccDGsedh.s 			page 125


 3808 0736 B006     		.2byte	0x6b0
 3809 0738 46070000 		.4byte	0x746
 3810 073c 16       		.uleb128 0x16
 3811 073d 9D020000 		.4byte	0x29d
 3812 0741 BC040000 		.4byte	.LLST35
 3813 0745 00       		.byte	0
 3814 0746 1E       		.uleb128 0x1e
 3815 0747 8C020000 		.4byte	0x28c
 3816 074b 3C000000 		.4byte	.LBB86
 3817 074f 06000000 		.4byte	.LBE86-.LBB86
 3818 0753 01       		.byte	0x1
 3819 0754 B406     		.2byte	0x6b4
 3820 0756 64070000 		.4byte	0x764
 3821 075a 16       		.uleb128 0x16
 3822 075b 9D020000 		.4byte	0x29d
 3823 075f D0040000 		.4byte	.LLST36
 3824 0763 00       		.byte	0
 3825 0764 21       		.uleb128 0x21
 3826 0765 35030000 		.4byte	0x335
 3827 0769 4A000000 		.4byte	.LBB88
 3828 076d 80000000 		.4byte	.Ldebug_ranges0+0x80
 3829 0771 01       		.byte	0x1
 3830 0772 BE06     		.2byte	0x6be
 3831 0774 82070000 		.4byte	0x782
 3832 0778 16       		.uleb128 0x16
 3833 0779 46030000 		.4byte	0x346
 3834 077d E4040000 		.4byte	.LLST37
 3835 0781 00       		.byte	0
 3836 0782 13       		.uleb128 0x13
 3837 0783 5E000000 		.4byte	.LVL81
 3838 0787 E8000000 		.4byte	0xe8
 3839 078b 2D       		.uleb128 0x2d
 3840 078c 64000000 		.4byte	.LVL82
 3841 0790 F2030000 		.4byte	0x3f2
 3842 0794 9F070000 		.4byte	0x79f
 3843 0798 1C       		.uleb128 0x1c
 3844 0799 01       		.uleb128 0x1
 3845 079a 50       		.byte	0x50
 3846 079b 02       		.uleb128 0x2
 3847 079c 75       		.byte	0x75
 3848 079d 00       		.sleb128 0
 3849 079e 00       		.byte	0
 3850 079f 13       		.uleb128 0x13
 3851 07a0 6A000000 		.4byte	.LVL83
 3852 07a4 30060000 		.4byte	0x630
 3853 07a8 13       		.uleb128 0x13
 3854 07a9 72000000 		.4byte	.LVL85
 3855 07ad 30060000 		.4byte	0x630
 3856 07b1 00       		.byte	0
 3857 07b2 00       		.byte	0
 3858 07b3 2E       		.uleb128 0x2e
 3859 07b4 9E060000 		.4byte	0x69e
 3860 07b8 7E000000 		.4byte	.LBB94
 3861 07bc 1A000000 		.4byte	.LBE94-.LBB94
 3862 07c0 01       		.byte	0x1
 3863 07c1 B1       		.byte	0xb1
 3864 07c2 D6070000 		.4byte	0x7d6
ARM GAS  C:\Users\Pablo\AppData\Local\Temp\ccDGsedh.s 			page 126


 3865 07c6 1B       		.uleb128 0x1b
 3866 07c7 94000000 		.4byte	.LVL86
 3867 07cb E8000000 		.4byte	0xe8
 3868 07cf 1C       		.uleb128 0x1c
 3869 07d0 01       		.uleb128 0x1
 3870 07d1 50       		.byte	0x50
 3871 07d2 01       		.uleb128 0x1
 3872 07d3 30       		.byte	0x30
 3873 07d4 00       		.byte	0
 3874 07d5 00       		.byte	0
 3875 07d6 13       		.uleb128 0x13
 3876 07d7 1C000000 		.4byte	.LVL76
 3877 07db 7E110000 		.4byte	0x117e
 3878 07df 1B       		.uleb128 0x1b
 3879 07e0 9E000000 		.4byte	.LVL87
 3880 07e4 89110000 		.4byte	0x1189
 3881 07e8 1C       		.uleb128 0x1c
 3882 07e9 01       		.uleb128 0x1
 3883 07ea 50       		.byte	0x50
 3884 07eb 04       		.uleb128 0x4
 3885 07ec 7D       		.byte	0x7d
 3886 07ed 04       		.sleb128 4
 3887 07ee 94       		.byte	0x94
 3888 07ef 01       		.byte	0x1
 3889 07f0 00       		.byte	0
 3890 07f1 00       		.byte	0
 3891 07f2 24       		.uleb128 0x24
 3892 07f3 57060000 		.4byte	.LASF60
 3893 07f7 01       		.byte	0x1
 3894 07f8 2706     		.2byte	0x627
 3895 07fa 81000000 		.4byte	0x81
 3896 07fe 00000000 		.4byte	.LFB25
 3897 0802 14000000 		.4byte	.LFE25-.LFB25
 3898 0806 01       		.uleb128 0x1
 3899 0807 9C       		.byte	0x9c
 3900 0808 10       		.uleb128 0x10
 3901 0809 08050000 		.4byte	.LASF61
 3902 080d 01       		.byte	0x1
 3903 080e 4906     		.2byte	0x649
 3904 0810 00000000 		.4byte	.LFB26
 3905 0814 50000000 		.4byte	.LFE26-.LFB26
 3906 0818 01       		.uleb128 0x1
 3907 0819 9C       		.byte	0x9c
 3908 081a 8E080000 		.4byte	0x88e
 3909 081e 11       		.uleb128 0x11
 3910 081f BB020000 		.4byte	.LASF41
 3911 0823 01       		.byte	0x1
 3912 0824 4906     		.2byte	0x649
 3913 0826 81000000 		.4byte	0x81
 3914 082a F8040000 		.4byte	.LLST38
 3915 082e 12       		.uleb128 0x12
 3916 082f 67010000 		.4byte	.LASF33
 3917 0833 01       		.byte	0x1
 3918 0834 4B06     		.2byte	0x64b
 3919 0836 6B000000 		.4byte	0x6b
 3920 083a 53050000 		.4byte	.LLST39
 3921 083e 12       		.uleb128 0x12
ARM GAS  C:\Users\Pablo\AppData\Local\Temp\ccDGsedh.s 			page 127


 3922 083f 35080000 		.4byte	.LASF62
 3923 0843 01       		.byte	0x1
 3924 0844 4C06     		.2byte	0x64c
 3925 0846 81000000 		.4byte	0x81
 3926 084a 87050000 		.4byte	.LLST40
 3927 084e 2F       		.uleb128 0x2f
 3928 084f 6B060000 		.4byte	0x66b
 3929 0853 08000000 		.4byte	.LBB98
 3930 0857 98000000 		.4byte	.Ldebug_ranges0+0x98
 3931 085b 01       		.byte	0x1
 3932 085c 5006     		.2byte	0x650
 3933 085e 13       		.uleb128 0x13
 3934 085f 08000000 		.4byte	.LVL89
 3935 0863 7E110000 		.4byte	0x117e
 3936 0867 13       		.uleb128 0x13
 3937 0868 2E000000 		.4byte	.LVL95
 3938 086c 1A020000 		.4byte	0x21a
 3939 0870 2D       		.uleb128 0x2d
 3940 0871 34000000 		.4byte	.LVL96
 3941 0875 89110000 		.4byte	0x1189
 3942 0879 84080000 		.4byte	0x884
 3943 087d 1C       		.uleb128 0x1c
 3944 087e 01       		.uleb128 0x1
 3945 087f 50       		.byte	0x50
 3946 0880 02       		.uleb128 0x2
 3947 0881 75       		.byte	0x75
 3948 0882 00       		.sleb128 0
 3949 0883 00       		.byte	0
 3950 0884 13       		.uleb128 0x13
 3951 0885 3A000000 		.4byte	.LVL99
 3952 0889 53020000 		.4byte	0x253
 3953 088d 00       		.byte	0
 3954 088e 10       		.uleb128 0x10
 3955 088f E1040000 		.4byte	.LASF63
 3956 0893 01       		.byte	0x1
 3957 0894 8106     		.2byte	0x681
 3958 0896 00000000 		.4byte	.LFB27
 3959 089a 18000000 		.4byte	.LFE27-.LFB27
 3960 089e 01       		.uleb128 0x1
 3961 089f 9C       		.byte	0x9c
 3962 08a0 B5080000 		.4byte	0x8b5
 3963 08a4 11       		.uleb128 0x11
 3964 08a5 24020000 		.4byte	.LASF64
 3965 08a9 01       		.byte	0x1
 3966 08aa 8106     		.2byte	0x681
 3967 08ac 81000000 		.4byte	0x81
 3968 08b0 B2050000 		.4byte	.LLST41
 3969 08b4 00       		.byte	0
 3970 08b5 10       		.uleb128 0x10
 3971 08b6 72020000 		.4byte	.LASF65
 3972 08ba 01       		.byte	0x1
 3973 08bb 0408     		.2byte	0x804
 3974 08bd 00000000 		.4byte	.LFB30
 3975 08c1 2C000000 		.4byte	.LFE30-.LFB30
 3976 08c5 01       		.uleb128 0x1
 3977 08c6 9C       		.byte	0x9c
 3978 08c7 DC080000 		.4byte	0x8dc
ARM GAS  C:\Users\Pablo\AppData\Local\Temp\ccDGsedh.s 			page 128


 3979 08cb 11       		.uleb128 0x11
 3980 08cc 98050000 		.4byte	.LASF66
 3981 08d0 01       		.byte	0x1
 3982 08d1 0408     		.2byte	0x804
 3983 08d3 81000000 		.4byte	0x81
 3984 08d7 D3050000 		.4byte	.LLST42
 3985 08db 00       		.byte	0
 3986 08dc 30       		.uleb128 0x30
 3987 08dd 07080000 		.4byte	.LASF67
 3988 08e1 01       		.byte	0x1
 3989 08e2 1D08     		.2byte	0x81d
 3990 08e4 00000000 		.4byte	.LFB31
 3991 08e8 20000000 		.4byte	.LFE31-.LFB31
 3992 08ec 01       		.uleb128 0x1
 3993 08ed 9C       		.byte	0x9c
 3994 08ee 24       		.uleb128 0x24
 3995 08ef 16030000 		.4byte	.LASF68
 3996 08f3 01       		.byte	0x1
 3997 08f4 3308     		.2byte	0x833
 3998 08f6 81000000 		.4byte	0x81
 3999 08fa 00000000 		.4byte	.LFB32
 4000 08fe 10000000 		.4byte	.LFE32-.LFB32
 4001 0902 01       		.uleb128 0x1
 4002 0903 9C       		.byte	0x9c
 4003 0904 30       		.uleb128 0x30
 4004 0905 31020000 		.4byte	.LASF69
 4005 0909 01       		.byte	0x1
 4006 090a 4708     		.2byte	0x847
 4007 090c 00000000 		.4byte	.LFB33
 4008 0910 0C000000 		.4byte	.LFE33-.LFB33
 4009 0914 01       		.uleb128 0x1
 4010 0915 9C       		.byte	0x9c
 4011 0916 1D       		.uleb128 0x1d
 4012 0917 8A030000 		.4byte	.LASF70
 4013 091b 01       		.byte	0x1
 4014 091c 6308     		.2byte	0x863
 4015 091e 81000000 		.4byte	0x81
 4016 0922 00000000 		.4byte	.LFB34
 4017 0926 14000000 		.4byte	.LFE34-.LFB34
 4018 092a 01       		.uleb128 0x1
 4019 092b 9C       		.byte	0x9c
 4020 092c 51090000 		.4byte	0x951
 4021 0930 11       		.uleb128 0x11
 4022 0931 B7050000 		.4byte	.LASF71
 4023 0935 01       		.byte	0x1
 4024 0936 6308     		.2byte	0x863
 4025 0938 81000000 		.4byte	0x81
 4026 093c F4050000 		.4byte	.LLST43
 4027 0940 12       		.uleb128 0x12
 4028 0941 42080000 		.4byte	.LASF72
 4029 0945 01       		.byte	0x1
 4030 0946 6508     		.2byte	0x865
 4031 0948 81000000 		.4byte	0x81
 4032 094c 12060000 		.4byte	.LLST44
 4033 0950 00       		.byte	0
 4034 0951 1D       		.uleb128 0x1d
 4035 0952 7C030000 		.4byte	.LASF73
ARM GAS  C:\Users\Pablo\AppData\Local\Temp\ccDGsedh.s 			page 129


 4036 0956 01       		.byte	0x1
 4037 0957 7E08     		.2byte	0x87e
 4038 0959 81000000 		.4byte	0x81
 4039 095d 00000000 		.4byte	.LFB35
 4040 0961 10000000 		.4byte	.LFE35-.LFB35
 4041 0965 01       		.uleb128 0x1
 4042 0966 9C       		.byte	0x9c
 4043 0967 7A090000 		.4byte	0x97a
 4044 096b 31       		.uleb128 0x31
 4045 096c 21000000 		.4byte	.LASF74
 4046 0970 01       		.byte	0x1
 4047 0971 8008     		.2byte	0x880
 4048 0973 81000000 		.4byte	0x81
 4049 0977 01       		.uleb128 0x1
 4050 0978 50       		.byte	0x50
 4051 0979 00       		.byte	0
 4052 097a 10       		.uleb128 0x10
 4053 097b DA000000 		.4byte	.LASF75
 4054 097f 01       		.byte	0x1
 4055 0980 9A08     		.2byte	0x89a
 4056 0982 00000000 		.4byte	.LFB36
 4057 0986 0C000000 		.4byte	.LFE36-.LFB36
 4058 098a 01       		.uleb128 0x1
 4059 098b 9C       		.byte	0x9c
 4060 098c 9F090000 		.4byte	0x99f
 4061 0990 1F       		.uleb128 0x1f
 4062 0991 64020000 		.4byte	.LASF76
 4063 0995 01       		.byte	0x1
 4064 0996 9A08     		.2byte	0x89a
 4065 0998 81000000 		.4byte	0x81
 4066 099c 01       		.uleb128 0x1
 4067 099d 50       		.byte	0x50
 4068 099e 00       		.byte	0
 4069 099f 14       		.uleb128 0x14
 4070 09a0 1E040000 		.4byte	.LASF77
 4071 09a4 01       		.byte	0x1
 4072 09a5 B608     		.2byte	0x8b6
 4073 09a7 C3000000 		.4byte	0xc3
 4074 09ab 01       		.byte	0x1
 4075 09ac E1090000 		.4byte	0x9e1
 4076 09b0 0A       		.uleb128 0xa
 4077 09b1 5D020000 		.4byte	.LASF78
 4078 09b5 01       		.byte	0x1
 4079 09b6 B608     		.2byte	0x8b6
 4080 09b8 6B000000 		.4byte	0x6b
 4081 09bc 0A       		.uleb128 0xa
 4082 09bd 93040000 		.4byte	.LASF79
 4083 09c1 01       		.byte	0x1
 4084 09c2 B608     		.2byte	0x8b6
 4085 09c4 C3000000 		.4byte	0xc3
 4086 09c8 0B       		.uleb128 0xb
 4087 09c9 52000000 		.4byte	.LASF80
 4088 09cd 01       		.byte	0x1
 4089 09ce B808     		.2byte	0x8b8
 4090 09d0 C3000000 		.4byte	0xc3
 4091 09d4 0B       		.uleb128 0xb
 4092 09d5 8C060000 		.4byte	.LASF81
ARM GAS  C:\Users\Pablo\AppData\Local\Temp\ccDGsedh.s 			page 130


 4093 09d9 01       		.byte	0x1
 4094 09da B908     		.2byte	0x8b9
 4095 09dc E1090000 		.4byte	0x9e1
 4096 09e0 00       		.byte	0
 4097 09e1 07       		.uleb128 0x7
 4098 09e2 04       		.byte	0x4
 4099 09e3 C3000000 		.4byte	0xc3
 4100 09e7 15       		.uleb128 0x15
 4101 09e8 9F090000 		.4byte	0x99f
 4102 09ec 00000000 		.4byte	.LFB37
 4103 09f0 0E000000 		.4byte	.LFE37-.LFB37
 4104 09f4 01       		.uleb128 0x1
 4105 09f5 9C       		.byte	0x9c
 4106 09f6 1B0A0000 		.4byte	0xa1b
 4107 09fa 16       		.uleb128 0x16
 4108 09fb B0090000 		.4byte	0x9b0
 4109 09ff 34060000 		.4byte	.LLST45
 4110 0a03 32       		.uleb128 0x32
 4111 0a04 BC090000 		.4byte	0x9bc
 4112 0a08 01       		.uleb128 0x1
 4113 0a09 51       		.byte	0x51
 4114 0a0a 33       		.uleb128 0x33
 4115 0a0b C8090000 		.4byte	0x9c8
 4116 0a0f 01       		.uleb128 0x1
 4117 0a10 50       		.byte	0x50
 4118 0a11 34       		.uleb128 0x34
 4119 0a12 D4090000 		.4byte	0x9d4
 4120 0a16 00000020 		.4byte	0x20000000
 4121 0a1a 00       		.byte	0
 4122 0a1b 1D       		.uleb128 0x1d
 4123 0a1c 16060000 		.4byte	.LASF82
 4124 0a20 01       		.byte	0x1
 4125 0a21 DB08     		.2byte	0x8db
 4126 0a23 C3000000 		.4byte	0xc3
 4127 0a27 00000000 		.4byte	.LFB38
 4128 0a2b 0C000000 		.4byte	.LFE38-.LFB38
 4129 0a2f 01       		.uleb128 0x1
 4130 0a30 9C       		.byte	0x9c
 4131 0a31 560A0000 		.4byte	0xa56
 4132 0a35 11       		.uleb128 0x11
 4133 0a36 5D020000 		.4byte	.LASF78
 4134 0a3a 01       		.byte	0x1
 4135 0a3b DB08     		.2byte	0x8db
 4136 0a3d 6B000000 		.4byte	0x6b
 4137 0a41 55060000 		.4byte	.LLST46
 4138 0a45 35       		.uleb128 0x35
 4139 0a46 8C060000 		.4byte	.LASF81
 4140 0a4a 01       		.byte	0x1
 4141 0a4b DD08     		.2byte	0x8dd
 4142 0a4d E1090000 		.4byte	0x9e1
 4143 0a51 00000020 		.4byte	0x20000000
 4144 0a55 00       		.byte	0
 4145 0a56 1D       		.uleb128 0x1d
 4146 0a57 B1030000 		.4byte	.LASF83
 4147 0a5b 01       		.byte	0x1
 4148 0a5c F408     		.2byte	0x8f4
 4149 0a5e C3000000 		.4byte	0xc3
ARM GAS  C:\Users\Pablo\AppData\Local\Temp\ccDGsedh.s 			page 131


 4150 0a62 00000000 		.4byte	.LFB39
 4151 0a66 10000000 		.4byte	.LFE39-.LFB39
 4152 0a6a 01       		.uleb128 0x1
 4153 0a6b 9C       		.byte	0x9c
 4154 0a6c AD0A0000 		.4byte	0xaad
 4155 0a70 11       		.uleb128 0x11
 4156 0a71 5D020000 		.4byte	.LASF78
 4157 0a75 01       		.byte	0x1
 4158 0a76 F408     		.2byte	0x8f4
 4159 0a78 6B000000 		.4byte	0x6b
 4160 0a7c 76060000 		.4byte	.LLST47
 4161 0a80 1F       		.uleb128 0x1f
 4162 0a81 93040000 		.4byte	.LASF79
 4163 0a85 01       		.byte	0x1
 4164 0a86 F408     		.2byte	0x8f4
 4165 0a88 C3000000 		.4byte	0xc3
 4166 0a8c 01       		.uleb128 0x1
 4167 0a8d 51       		.byte	0x51
 4168 0a8e 31       		.uleb128 0x31
 4169 0a8f 52000000 		.4byte	.LASF80
 4170 0a93 01       		.byte	0x1
 4171 0a94 F608     		.2byte	0x8f6
 4172 0a96 C3000000 		.4byte	0xc3
 4173 0a9a 01       		.uleb128 0x1
 4174 0a9b 50       		.byte	0x50
 4175 0a9c 35       		.uleb128 0x35
 4176 0a9d 8C060000 		.4byte	.LASF81
 4177 0aa1 01       		.byte	0x1
 4178 0aa2 F708     		.2byte	0x8f7
 4179 0aa4 E1090000 		.4byte	0x9e1
 4180 0aa8 00000020 		.4byte	0x20000000
 4181 0aac 00       		.byte	0
 4182 0aad 1D       		.uleb128 0x1d
 4183 0aae 52050000 		.4byte	.LASF84
 4184 0ab2 01       		.byte	0x1
 4185 0ab3 1309     		.2byte	0x913
 4186 0ab5 C3000000 		.4byte	0xc3
 4187 0ab9 00000000 		.4byte	.LFB40
 4188 0abd 10000000 		.4byte	.LFE40-.LFB40
 4189 0ac1 01       		.uleb128 0x1
 4190 0ac2 9C       		.byte	0x9c
 4191 0ac3 E80A0000 		.4byte	0xae8
 4192 0ac7 11       		.uleb128 0x11
 4193 0ac8 5D020000 		.4byte	.LASF78
 4194 0acc 01       		.byte	0x1
 4195 0acd 1309     		.2byte	0x913
 4196 0acf 6B000000 		.4byte	0x6b
 4197 0ad3 97060000 		.4byte	.LLST48
 4198 0ad7 35       		.uleb128 0x35
 4199 0ad8 8C060000 		.4byte	.LASF81
 4200 0adc 01       		.byte	0x1
 4201 0add 1509     		.2byte	0x915
 4202 0adf E1090000 		.4byte	0x9e1
 4203 0ae3 00000020 		.4byte	0x20000000
 4204 0ae7 00       		.byte	0
 4205 0ae8 10       		.uleb128 0x10
 4206 0ae9 F7040000 		.4byte	.LASF85
ARM GAS  C:\Users\Pablo\AppData\Local\Temp\ccDGsedh.s 			page 132


 4207 0aed 01       		.byte	0x1
 4208 0aee 2B09     		.2byte	0x92b
 4209 0af0 00000000 		.4byte	.LFB41
 4210 0af4 34000000 		.4byte	.LFE41-.LFB41
 4211 0af8 01       		.uleb128 0x1
 4212 0af9 9C       		.byte	0x9c
 4213 0afa 610B0000 		.4byte	0xb61
 4214 0afe 11       		.uleb128 0x11
 4215 0aff 5D020000 		.4byte	.LASF78
 4216 0b03 01       		.byte	0x1
 4217 0b04 2B09     		.2byte	0x92b
 4218 0b06 6B000000 		.4byte	0x6b
 4219 0b0a B8060000 		.4byte	.LLST49
 4220 0b0e 11       		.uleb128 0x11
 4221 0b0f A0060000 		.4byte	.LASF86
 4222 0b13 01       		.byte	0x1
 4223 0b14 2B09     		.2byte	0x92b
 4224 0b16 6B000000 		.4byte	0x6b
 4225 0b1a D9060000 		.4byte	.LLST50
 4226 0b1e 12       		.uleb128 0x12
 4227 0b1f 67010000 		.4byte	.LASF33
 4228 0b23 01       		.byte	0x1
 4229 0b24 2D09     		.2byte	0x92d
 4230 0b26 6B000000 		.4byte	0x6b
 4231 0b2a FA060000 		.4byte	.LLST51
 4232 0b2e 12       		.uleb128 0x12
 4233 0b2f 1E020000 		.4byte	.LASF87
 4234 0b33 01       		.byte	0x1
 4235 0b34 2E09     		.2byte	0x92e
 4236 0b36 81000000 		.4byte	0x81
 4237 0b3a 0D070000 		.4byte	.LLST52
 4238 0b3e 12       		.uleb128 0x12
 4239 0b3f B5020000 		.4byte	.LASF25
 4240 0b43 01       		.byte	0x1
 4241 0b44 2F09     		.2byte	0x92f
 4242 0b46 81000000 		.4byte	0x81
 4243 0b4a 41070000 		.4byte	.LLST53
 4244 0b4e 13       		.uleb128 0x13
 4245 0b4f 0A000000 		.4byte	.LVL120
 4246 0b53 7E110000 		.4byte	0x117e
 4247 0b57 13       		.uleb128 0x13
 4248 0b58 2C000000 		.4byte	.LVL125
 4249 0b5c 89110000 		.4byte	0x1189
 4250 0b60 00       		.byte	0
 4251 0b61 1D       		.uleb128 0x1d
 4252 0b62 81020000 		.4byte	.LASF88
 4253 0b66 01       		.byte	0x1
 4254 0b67 4F09     		.2byte	0x94f
 4255 0b69 6B000000 		.4byte	0x6b
 4256 0b6d 00000000 		.4byte	.LFB42
 4257 0b71 20000000 		.4byte	.LFE42-.LFB42
 4258 0b75 01       		.uleb128 0x1
 4259 0b76 9C       		.byte	0x9c
 4260 0b77 9C0B0000 		.4byte	0xb9c
 4261 0b7b 11       		.uleb128 0x11
 4262 0b7c 5D020000 		.4byte	.LASF78
 4263 0b80 01       		.byte	0x1
ARM GAS  C:\Users\Pablo\AppData\Local\Temp\ccDGsedh.s 			page 133


 4264 0b81 4F09     		.2byte	0x94f
 4265 0b83 6B000000 		.4byte	0x6b
 4266 0b87 5F070000 		.4byte	.LLST54
 4267 0b8b 12       		.uleb128 0x12
 4268 0b8c A0060000 		.4byte	.LASF86
 4269 0b90 01       		.byte	0x1
 4270 0b91 5109     		.2byte	0x951
 4271 0b93 6B000000 		.4byte	0x6b
 4272 0b97 80070000 		.4byte	.LLST55
 4273 0b9b 00       		.byte	0
 4274 0b9c 09       		.uleb128 0x9
 4275 0b9d 0A060000 		.4byte	.LASF89
 4276 0ba1 01       		.byte	0x1
 4277 0ba2 6909     		.2byte	0x969
 4278 0ba4 01       		.byte	0x1
 4279 0ba5 B60B0000 		.4byte	0xbb6
 4280 0ba9 0A       		.uleb128 0xa
 4281 0baa 5D020000 		.4byte	.LASF78
 4282 0bae 01       		.byte	0x1
 4283 0baf 6909     		.2byte	0x969
 4284 0bb1 6B000000 		.4byte	0x6b
 4285 0bb5 00       		.byte	0
 4286 0bb6 15       		.uleb128 0x15
 4287 0bb7 9C0B0000 		.4byte	0xb9c
 4288 0bbb 00000000 		.4byte	.LFB43
 4289 0bbf 14000000 		.4byte	.LFE43-.LFB43
 4290 0bc3 01       		.uleb128 0x1
 4291 0bc4 9C       		.byte	0x9c
 4292 0bc5 D30B0000 		.4byte	0xbd3
 4293 0bc9 16       		.uleb128 0x16
 4294 0bca A90B0000 		.4byte	0xba9
 4295 0bce A1070000 		.4byte	.LLST56
 4296 0bd2 00       		.byte	0
 4297 0bd3 1D       		.uleb128 0x1d
 4298 0bd4 10010000 		.4byte	.LASF90
 4299 0bd8 01       		.byte	0x1
 4300 0bd9 7D09     		.2byte	0x97d
 4301 0bdb 6B000000 		.4byte	0x6b
 4302 0bdf 00000000 		.4byte	.LFB44
 4303 0be3 18000000 		.4byte	.LFE44-.LFB44
 4304 0be7 01       		.uleb128 0x1
 4305 0be8 9C       		.byte	0x9c
 4306 0be9 FE0B0000 		.4byte	0xbfe
 4307 0bed 11       		.uleb128 0x11
 4308 0bee 5D020000 		.4byte	.LASF78
 4309 0bf2 01       		.byte	0x1
 4310 0bf3 7D09     		.2byte	0x97d
 4311 0bf5 6B000000 		.4byte	0x6b
 4312 0bf9 C2070000 		.4byte	.LLST57
 4313 0bfd 00       		.byte	0
 4314 0bfe 10       		.uleb128 0x10
 4315 0bff B4010000 		.4byte	.LASF91
 4316 0c03 01       		.byte	0x1
 4317 0c04 9209     		.2byte	0x992
 4318 0c06 00000000 		.4byte	.LFB45
 4319 0c0a 14000000 		.4byte	.LFE45-.LFB45
 4320 0c0e 01       		.uleb128 0x1
ARM GAS  C:\Users\Pablo\AppData\Local\Temp\ccDGsedh.s 			page 134


 4321 0c0f 9C       		.byte	0x9c
 4322 0c10 250C0000 		.4byte	0xc25
 4323 0c14 11       		.uleb128 0x11
 4324 0c15 5D020000 		.4byte	.LASF78
 4325 0c19 01       		.byte	0x1
 4326 0c1a 9209     		.2byte	0x992
 4327 0c1c 6B000000 		.4byte	0x6b
 4328 0c20 E3070000 		.4byte	.LLST58
 4329 0c24 00       		.byte	0
 4330 0c25 10       		.uleb128 0x10
 4331 0c26 6C030000 		.4byte	.LASF92
 4332 0c2a 01       		.byte	0x1
 4333 0c2b A509     		.2byte	0x9a5
 4334 0c2d 00000000 		.4byte	.LFB46
 4335 0c31 14000000 		.4byte	.LFE46-.LFB46
 4336 0c35 01       		.uleb128 0x1
 4337 0c36 9C       		.byte	0x9c
 4338 0c37 4C0C0000 		.4byte	0xc4c
 4339 0c3b 11       		.uleb128 0x11
 4340 0c3c 5D020000 		.4byte	.LASF78
 4341 0c40 01       		.byte	0x1
 4342 0c41 A509     		.2byte	0x9a5
 4343 0c43 6B000000 		.4byte	0x6b
 4344 0c47 04080000 		.4byte	.LLST59
 4345 0c4b 00       		.byte	0
 4346 0c4c 10       		.uleb128 0x10
 4347 0c4d 81040000 		.4byte	.LASF93
 4348 0c51 01       		.byte	0x1
 4349 0c52 B909     		.2byte	0x9b9
 4350 0c54 00000000 		.4byte	.LFB47
 4351 0c58 14000000 		.4byte	.LFE47-.LFB47
 4352 0c5c 01       		.uleb128 0x1
 4353 0c5d 9C       		.byte	0x9c
 4354 0c5e 730C0000 		.4byte	0xc73
 4355 0c62 11       		.uleb128 0x11
 4356 0c63 5D020000 		.4byte	.LASF78
 4357 0c67 01       		.byte	0x1
 4358 0c68 B909     		.2byte	0x9b9
 4359 0c6a 6B000000 		.4byte	0x6b
 4360 0c6e 25080000 		.4byte	.LLST60
 4361 0c72 00       		.byte	0
 4362 0c73 10       		.uleb128 0x10
 4363 0c74 A2050000 		.4byte	.LASF94
 4364 0c78 01       		.byte	0x1
 4365 0c79 CD09     		.2byte	0x9cd
 4366 0c7b 00000000 		.4byte	.LFB48
 4367 0c7f 04000000 		.4byte	.LFE48-.LFB48
 4368 0c83 01       		.uleb128 0x1
 4369 0c84 9C       		.byte	0x9c
 4370 0c85 980C0000 		.4byte	0xc98
 4371 0c89 1F       		.uleb128 0x1f
 4372 0c8a B7050000 		.4byte	.LASF71
 4373 0c8e 01       		.byte	0x1
 4374 0c8f CD09     		.2byte	0x9cd
 4375 0c91 6B000000 		.4byte	0x6b
 4376 0c95 01       		.uleb128 0x1
 4377 0c96 50       		.byte	0x50
ARM GAS  C:\Users\Pablo\AppData\Local\Temp\ccDGsedh.s 			page 135


 4378 0c97 00       		.byte	0
 4379 0c98 30       		.uleb128 0x30
 4380 0c99 E7000000 		.4byte	.LASF95
 4381 0c9d 01       		.byte	0x1
 4382 0c9e EC09     		.2byte	0x9ec
 4383 0ca0 00000000 		.4byte	.LFB49
 4384 0ca4 18000000 		.4byte	.LFE49-.LFB49
 4385 0ca8 01       		.uleb128 0x1
 4386 0ca9 9C       		.byte	0x9c
 4387 0caa 10       		.uleb128 0x10
 4388 0cab 93070000 		.4byte	.LASF96
 4389 0caf 01       		.byte	0x1
 4390 0cb0 050A     		.2byte	0xa05
 4391 0cb2 00000000 		.4byte	.LFB50
 4392 0cb6 2C000000 		.4byte	.LFE50-.LFB50
 4393 0cba 01       		.uleb128 0x1
 4394 0cbb 9C       		.byte	0x9c
 4395 0cbc E30C0000 		.4byte	0xce3
 4396 0cc0 11       		.uleb128 0x11
 4397 0cc1 61050000 		.4byte	.LASF97
 4398 0cc5 01       		.byte	0x1
 4399 0cc6 050A     		.2byte	0xa05
 4400 0cc8 81000000 		.4byte	0x81
 4401 0ccc 46080000 		.4byte	.LLST61
 4402 0cd0 13       		.uleb128 0x13
 4403 0cd1 14000000 		.4byte	.LVL143
 4404 0cd5 9A110000 		.4byte	0x119a
 4405 0cd9 13       		.uleb128 0x13
 4406 0cda 22000000 		.4byte	.LVL145
 4407 0cde 9A110000 		.4byte	0x119a
 4408 0ce2 00       		.byte	0
 4409 0ce3 10       		.uleb128 0x10
 4410 0ce4 76010000 		.4byte	.LASF98
 4411 0ce8 01       		.byte	0x1
 4412 0ce9 210A     		.2byte	0xa21
 4413 0ceb 00000000 		.4byte	.LFB51
 4414 0cef 14000000 		.4byte	.LFE51-.LFB51
 4415 0cf3 01       		.uleb128 0x1
 4416 0cf4 9C       		.byte	0x9c
 4417 0cf5 130D0000 		.4byte	0xd13
 4418 0cf9 11       		.uleb128 0x11
 4419 0cfa CC080000 		.4byte	.LASF99
 4420 0cfe 01       		.byte	0x1
 4421 0cff 210A     		.2byte	0xa21
 4422 0d01 76000000 		.4byte	0x76
 4423 0d05 64080000 		.4byte	.LLST62
 4424 0d09 13       		.uleb128 0x13
 4425 0d0a 0C000000 		.4byte	.LVL149
 4426 0d0e 9A110000 		.4byte	0x119a
 4427 0d12 00       		.byte	0
 4428 0d13 10       		.uleb128 0x10
 4429 0d14 09040000 		.4byte	.LASF100
 4430 0d18 01       		.byte	0x1
 4431 0d19 AE01     		.2byte	0x1ae
 4432 0d1b 00000000 		.4byte	.LFB7
 4433 0d1f 20010000 		.4byte	.LFE7-.LFB7
 4434 0d23 01       		.uleb128 0x1
ARM GAS  C:\Users\Pablo\AppData\Local\Temp\ccDGsedh.s 			page 136


 4435 0d24 9C       		.byte	0x9c
 4436 0d25 DE0D0000 		.4byte	0xdde
 4437 0d29 11       		.uleb128 0x11
 4438 0d2a 3B050000 		.4byte	.LASF101
 4439 0d2e 01       		.byte	0x1
 4440 0d2f AE01     		.2byte	0x1ae
 4441 0d31 81000000 		.4byte	0x81
 4442 0d35 85080000 		.4byte	.LLST63
 4443 0d39 12       		.uleb128 0x12
 4444 0d3a 12000000 		.4byte	.LASF102
 4445 0d3e 01       		.byte	0x1
 4446 0d3f B001     		.2byte	0x1b0
 4447 0d41 6B000000 		.4byte	0x6b
 4448 0d45 C4080000 		.4byte	.LLST64
 4449 0d49 12       		.uleb128 0x12
 4450 0d4a 9B040000 		.4byte	.LASF103
 4451 0d4e 01       		.byte	0x1
 4452 0d4f B101     		.2byte	0x1b1
 4453 0d51 6B000000 		.4byte	0x6b
 4454 0d55 03090000 		.4byte	.LLST65
 4455 0d59 12       		.uleb128 0x12
 4456 0d5a 67010000 		.4byte	.LASF33
 4457 0d5e 01       		.byte	0x1
 4458 0d5f B201     		.2byte	0x1b2
 4459 0d61 6B000000 		.4byte	0x6b
 4460 0d65 17090000 		.4byte	.LLST66
 4461 0d69 12       		.uleb128 0x12
 4462 0d6a BB080000 		.4byte	.LASF104
 4463 0d6e 01       		.byte	0x1
 4464 0d6f B301     		.2byte	0x1b3
 4465 0d71 6B000000 		.4byte	0x6b
 4466 0d75 2B090000 		.4byte	.LLST67
 4467 0d79 12       		.uleb128 0x12
 4468 0d7a 7E000000 		.4byte	.LASF105
 4469 0d7e 01       		.byte	0x1
 4470 0d7f B401     		.2byte	0x1b4
 4471 0d81 6B000000 		.4byte	0x6b
 4472 0d85 3F090000 		.4byte	.LLST68
 4473 0d89 13       		.uleb128 0x13
 4474 0d8a 70000000 		.4byte	.LVL162
 4475 0d8e 7E110000 		.4byte	0x117e
 4476 0d92 2D       		.uleb128 0x2d
 4477 0d93 9A000000 		.4byte	.LVL166
 4478 0d97 9A110000 		.4byte	0x119a
 4479 0d9b A50D0000 		.4byte	0xda5
 4480 0d9f 1C       		.uleb128 0x1c
 4481 0da0 01       		.uleb128 0x1
 4482 0da1 50       		.byte	0x50
 4483 0da2 01       		.uleb128 0x1
 4484 0da3 35       		.byte	0x35
 4485 0da4 00       		.byte	0
 4486 0da5 2D       		.uleb128 0x2d
 4487 0da6 B6000000 		.4byte	.LVL168
 4488 0daa E30C0000 		.4byte	0xce3
 4489 0dae B80D0000 		.4byte	0xdb8
 4490 0db2 1C       		.uleb128 0x1c
 4491 0db3 01       		.uleb128 0x1
ARM GAS  C:\Users\Pablo\AppData\Local\Temp\ccDGsedh.s 			page 137


 4492 0db4 50       		.byte	0x50
 4493 0db5 01       		.uleb128 0x1
 4494 0db6 35       		.byte	0x35
 4495 0db7 00       		.byte	0
 4496 0db8 2D       		.uleb128 0x2d
 4497 0db9 CA000000 		.4byte	.LVL169
 4498 0dbd 9A110000 		.4byte	0x119a
 4499 0dc1 CB0D0000 		.4byte	0xdcb
 4500 0dc5 1C       		.uleb128 0x1c
 4501 0dc6 01       		.uleb128 0x1
 4502 0dc7 50       		.byte	0x50
 4503 0dc8 01       		.uleb128 0x1
 4504 0dc9 35       		.byte	0x35
 4505 0dca 00       		.byte	0
 4506 0dcb 1B       		.uleb128 0x1b
 4507 0dcc D0000000 		.4byte	.LVL170
 4508 0dd0 89110000 		.4byte	0x1189
 4509 0dd4 1C       		.uleb128 0x1c
 4510 0dd5 01       		.uleb128 0x1
 4511 0dd6 50       		.byte	0x50
 4512 0dd7 04       		.uleb128 0x4
 4513 0dd8 91       		.byte	0x91
 4514 0dd9 64       		.sleb128 -28
 4515 0dda 94       		.byte	0x94
 4516 0ddb 01       		.byte	0x1
 4517 0ddc 00       		.byte	0
 4518 0ddd 00       		.byte	0
 4519 0dde 10       		.uleb128 0x10
 4520 0ddf 93010000 		.4byte	.LASF106
 4521 0de3 01       		.byte	0x1
 4522 0de4 8105     		.2byte	0x581
 4523 0de6 00000000 		.4byte	.LFB20
 4524 0dea 30000000 		.4byte	.LFE20-.LFB20
 4525 0dee 01       		.uleb128 0x1
 4526 0def 9C       		.byte	0x9c
 4527 0df0 490E0000 		.4byte	0xe49
 4528 0df4 11       		.uleb128 0x11
 4529 0df5 59000000 		.4byte	.LASF20
 4530 0df9 01       		.byte	0x1
 4531 0dfa 8105     		.2byte	0x581
 4532 0dfc 81000000 		.4byte	0x81
 4533 0e00 52090000 		.4byte	.LLST69
 4534 0e04 11       		.uleb128 0x11
 4535 0e05 AA040000 		.4byte	.LASF107
 4536 0e09 01       		.byte	0x1
 4537 0e0a 8105     		.2byte	0x581
 4538 0e0c 81000000 		.4byte	0x81
 4539 0e10 7E090000 		.4byte	.LLST70
 4540 0e14 12       		.uleb128 0x12
 4541 0e15 69020000 		.4byte	.LASF53
 4542 0e19 01       		.byte	0x1
 4543 0e1a 8305     		.2byte	0x583
 4544 0e1c 81000000 		.4byte	0x81
 4545 0e20 AA090000 		.4byte	.LLST71
 4546 0e24 2D       		.uleb128 0x2d
 4547 0e25 0C000000 		.4byte	.LVL173
 4548 0e29 E30C0000 		.4byte	0xce3
ARM GAS  C:\Users\Pablo\AppData\Local\Temp\ccDGsedh.s 			page 138


 4549 0e2d 380E0000 		.4byte	0xe38
 4550 0e31 1C       		.uleb128 0x1c
 4551 0e32 01       		.uleb128 0x1
 4552 0e33 50       		.byte	0x50
 4553 0e34 02       		.uleb128 0x2
 4554 0e35 08       		.byte	0x8
 4555 0e36 C9       		.byte	0xc9
 4556 0e37 00       		.byte	0
 4557 0e38 1B       		.uleb128 0x1b
 4558 0e39 26000000 		.4byte	.LVL177
 4559 0e3d E30C0000 		.4byte	0xce3
 4560 0e41 1C       		.uleb128 0x1c
 4561 0e42 01       		.uleb128 0x1
 4562 0e43 50       		.byte	0x50
 4563 0e44 02       		.uleb128 0x2
 4564 0e45 08       		.byte	0x8
 4565 0e46 43       		.byte	0x43
 4566 0e47 00       		.byte	0
 4567 0e48 00       		.byte	0
 4568 0e49 36       		.uleb128 0x36
 4569 0e4a 5B010000 		.4byte	.LASF108
 4570 0e4e 01       		.byte	0x1
 4571 0e4f 340A     		.2byte	0xa34
 4572 0e51 00000000 		.4byte	.LFB52
 4573 0e55 48000000 		.4byte	.LFE52-.LFB52
 4574 0e59 01       		.uleb128 0x1
 4575 0e5a 9C       		.byte	0x9c
 4576 0e5b 700E0000 		.4byte	0xe70
 4577 0e5f 11       		.uleb128 0x11
 4578 0e60 3B050000 		.4byte	.LASF101
 4579 0e64 01       		.byte	0x1
 4580 0e65 340A     		.2byte	0xa34
 4581 0e67 81000000 		.4byte	0x81
 4582 0e6b D2090000 		.4byte	.LLST72
 4583 0e6f 00       		.byte	0
 4584 0e70 36       		.uleb128 0x36
 4585 0e71 A7020000 		.4byte	.LASF109
 4586 0e75 01       		.byte	0x1
 4587 0e76 790A     		.2byte	0xa79
 4588 0e78 00000000 		.4byte	.LFB54
 4589 0e7c 50000000 		.4byte	.LFE54-.LFB54
 4590 0e80 01       		.uleb128 0x1
 4591 0e81 9C       		.byte	0x9c
 4592 0e82 1B0F0000 		.4byte	0xf1b
 4593 0e86 37       		.uleb128 0x37
 4594 0e87 6900     		.ascii	"i\000"
 4595 0e89 01       		.byte	0x1
 4596 0e8a 7B0A     		.2byte	0xa7b
 4597 0e8c 81000000 		.4byte	0x81
 4598 0e90 F3090000 		.4byte	.LLST73
 4599 0e94 21       		.uleb128 0x21
 4600 0e95 9F090000 		.4byte	0x99f
 4601 0e99 08000000 		.4byte	.LBB110
 4602 0e9d B0000000 		.4byte	.Ldebug_ranges0+0xb0
 4603 0ea1 01       		.byte	0x1
 4604 0ea2 820A     		.2byte	0xa82
 4605 0ea4 D30E0000 		.4byte	0xed3
ARM GAS  C:\Users\Pablo\AppData\Local\Temp\ccDGsedh.s 			page 139


 4606 0ea8 32       		.uleb128 0x32
 4607 0ea9 BC090000 		.4byte	0x9bc
 4608 0ead 06       		.uleb128 0x6
 4609 0eae 03       		.byte	0x3
 4610 0eaf 00000000 		.4byte	CySysTickServiceCallbacks
 4611 0eb3 9F       		.byte	0x9f
 4612 0eb4 22       		.uleb128 0x22
 4613 0eb5 B0090000 		.4byte	0x9b0
 4614 0eb9 0F       		.byte	0xf
 4615 0eba 2C       		.uleb128 0x2c
 4616 0ebb B0000000 		.4byte	.Ldebug_ranges0+0xb0
 4617 0ebf 1A       		.uleb128 0x1a
 4618 0ec0 C8090000 		.4byte	0x9c8
 4619 0ec4 430A0000 		.4byte	.LLST74
 4620 0ec8 34       		.uleb128 0x34
 4621 0ec9 D4090000 		.4byte	0x9d4
 4622 0ecd 00000020 		.4byte	0x20000000
 4623 0ed1 00       		.byte	0
 4624 0ed2 00       		.byte	0
 4625 0ed3 21       		.uleb128 0x21
 4626 0ed4 32010000 		.4byte	0x132
 4627 0ed8 22000000 		.4byte	.LBB116
 4628 0edc D0000000 		.4byte	.Ldebug_ranges0+0xd0
 4629 0ee0 01       		.byte	0x1
 4630 0ee1 880A     		.2byte	0xa88
 4631 0ee3 EF0E0000 		.4byte	0xeef
 4632 0ee7 32       		.uleb128 0x32
 4633 0ee8 3F010000 		.4byte	0x13f
 4634 0eec 01       		.uleb128 0x1
 4635 0eed 50       		.byte	0x50
 4636 0eee 00       		.byte	0
 4637 0eef 21       		.uleb128 0x21
 4638 0ef0 9C0B0000 		.4byte	0xb9c
 4639 0ef4 24000000 		.4byte	.LBB119
 4640 0ef8 E8000000 		.4byte	.Ldebug_ranges0+0xe8
 4641 0efc 01       		.byte	0x1
 4642 0efd 8A0A     		.2byte	0xa8a
 4643 0eff 0A0F0000 		.4byte	0xf0a
 4644 0f03 22       		.uleb128 0x22
 4645 0f04 A90B0000 		.4byte	0xba9
 4646 0f08 0F       		.byte	0xf
 4647 0f09 00       		.byte	0
 4648 0f0a 2F       		.uleb128 0x2f
 4649 0f0b 4C010000 		.4byte	0x14c
 4650 0f0f 28000000 		.4byte	.LBB125
 4651 0f13 10010000 		.4byte	.Ldebug_ranges0+0x110
 4652 0f17 01       		.byte	0x1
 4653 0f18 890A     		.2byte	0xa89
 4654 0f1a 00       		.byte	0
 4655 0f1b 30       		.uleb128 0x30
 4656 0f1c 65080000 		.4byte	.LASF110
 4657 0f20 01       		.byte	0x1
 4658 0f21 B70A     		.2byte	0xab7
 4659 0f23 00000000 		.4byte	.LFB56
 4660 0f27 10000000 		.4byte	.LFE56-.LFB56
 4661 0f2b 01       		.uleb128 0x1
 4662 0f2c 9C       		.byte	0x9c
ARM GAS  C:\Users\Pablo\AppData\Local\Temp\ccDGsedh.s 			page 140


 4663 0f2d 30       		.uleb128 0x30
 4664 0f2e F7000000 		.4byte	.LASF111
 4665 0f32 01       		.byte	0x1
 4666 0f33 CE0A     		.2byte	0xace
 4667 0f35 00000000 		.4byte	.LFB57
 4668 0f39 10000000 		.4byte	.LFE57-.LFB57
 4669 0f3d 01       		.uleb128 0x1
 4670 0f3e 9C       		.byte	0x9c
 4671 0f3f 10       		.uleb128 0x10
 4672 0f40 BB060000 		.4byte	.LASF112
 4673 0f44 01       		.byte	0x1
 4674 0f45 9F0A     		.2byte	0xa9f
 4675 0f47 00000000 		.4byte	.LFB55
 4676 0f4b 18000000 		.4byte	.LFE55-.LFB55
 4677 0f4f 01       		.uleb128 0x1
 4678 0f50 9C       		.byte	0x9c
 4679 0f51 5F0F0000 		.4byte	0xf5f
 4680 0f55 13       		.uleb128 0x13
 4681 0f56 06000000 		.4byte	.LVL193
 4682 0f5a 2D0F0000 		.4byte	0xf2d
 4683 0f5e 00       		.byte	0
 4684 0f5f 10       		.uleb128 0x10
 4685 0f60 50040000 		.4byte	.LASF113
 4686 0f64 01       		.byte	0x1
 4687 0f65 570A     		.2byte	0xa57
 4688 0f67 00000000 		.4byte	.LFB53
 4689 0f6b 1C000000 		.4byte	.LFE53-.LFB53
 4690 0f6f 01       		.uleb128 0x1
 4691 0f70 9C       		.byte	0x9c
 4692 0f71 880F0000 		.4byte	0xf88
 4693 0f75 13       		.uleb128 0x13
 4694 0f76 0E000000 		.4byte	.LVL194
 4695 0f7a 700E0000 		.4byte	0xe70
 4696 0f7e 13       		.uleb128 0x13
 4697 0f7f 16000000 		.4byte	.LVL195
 4698 0f83 3F0F0000 		.4byte	0xf3f
 4699 0f87 00       		.byte	0
 4700 0f88 30       		.uleb128 0x30
 4701 0f89 9B070000 		.4byte	.LASF114
 4702 0f8d 01       		.byte	0x1
 4703 0f8e E50A     		.2byte	0xae5
 4704 0f90 00000000 		.4byte	.LFB58
 4705 0f94 10000000 		.4byte	.LFE58-.LFB58
 4706 0f98 01       		.uleb128 0x1
 4707 0f99 9C       		.byte	0x9c
 4708 0f9a 15       		.uleb128 0x15
 4709 0f9b 32010000 		.4byte	0x132
 4710 0f9f 00000000 		.4byte	.LFB59
 4711 0fa3 10000000 		.4byte	.LFE59-.LFB59
 4712 0fa7 01       		.uleb128 0x1
 4713 0fa8 9C       		.byte	0x9c
 4714 0fa9 B70F0000 		.4byte	0xfb7
 4715 0fad 16       		.uleb128 0x16
 4716 0fae 3F010000 		.4byte	0x13f
 4717 0fb2 660A0000 		.4byte	.LLST75
 4718 0fb6 00       		.byte	0
 4719 0fb7 24       		.uleb128 0x24
ARM GAS  C:\Users\Pablo\AppData\Local\Temp\ccDGsedh.s 			page 141


 4720 0fb8 80010000 		.4byte	.LASF115
 4721 0fbc 01       		.byte	0x1
 4722 0fbd 0F0B     		.2byte	0xb0f
 4723 0fbf 81000000 		.4byte	0x81
 4724 0fc3 00000000 		.4byte	.LFB60
 4725 0fc7 10000000 		.4byte	.LFE60-.LFB60
 4726 0fcb 01       		.uleb128 0x1
 4727 0fcc 9C       		.byte	0x9c
 4728 0fcd 24       		.uleb128 0x24
 4729 0fce C1040000 		.4byte	.LASF116
 4730 0fd2 01       		.byte	0x1
 4731 0fd3 230B     		.2byte	0xb23
 4732 0fd5 81000000 		.4byte	0x81
 4733 0fd9 00000000 		.4byte	.LFB61
 4734 0fdd 14000000 		.4byte	.LFE61-.LFB61
 4735 0fe1 01       		.uleb128 0x1
 4736 0fe2 9C       		.byte	0x9c
 4737 0fe3 24       		.uleb128 0x24
 4738 0fe4 C7020000 		.4byte	.LASF117
 4739 0fe8 01       		.byte	0x1
 4740 0fe9 630B     		.2byte	0xb63
 4741 0feb 81000000 		.4byte	0x81
 4742 0fef 00000000 		.4byte	.LFB62
 4743 0ff3 10000000 		.4byte	.LFE62-.LFB62
 4744 0ff7 01       		.uleb128 0x1
 4745 0ff8 9C       		.byte	0x9c
 4746 0ff9 38       		.uleb128 0x38
 4747 0ffa 1A010000 		.4byte	0x11a
 4748 0ffe 00000000 		.4byte	.LFB66
 4749 1002 24000000 		.4byte	.LFE66-.LFB66
 4750 1006 01       		.uleb128 0x1
 4751 1007 9C       		.byte	0x9c
 4752 1008 2E100000 		.4byte	0x102e
 4753 100c 17       		.uleb128 0x17
 4754 100d 27010000 		.4byte	0x127
 4755 1011 18       		.uleb128 0x18
 4756 1012 0C000000 		.4byte	.LBB134
 4757 1016 12000000 		.4byte	.LBE134-.LBB134
 4758 101a 24100000 		.4byte	0x1024
 4759 101e 17       		.uleb128 0x17
 4760 101f 27010000 		.4byte	0x127
 4761 1023 00       		.byte	0
 4762 1024 13       		.uleb128 0x13
 4763 1025 06000000 		.4byte	.LVL198
 4764 1029 E30F0000 		.4byte	0xfe3
 4765 102d 00       		.byte	0
 4766 102e 39       		.uleb128 0x39
 4767 102f 4C010000 		.4byte	0x14c
 4768 1033 00000000 		.4byte	.LFB63
 4769 1037 0C000000 		.4byte	.LFE63-.LFB63
 4770 103b 01       		.uleb128 0x1
 4771 103c 9C       		.byte	0x9c
 4772 103d 1D       		.uleb128 0x1d
 4773 103e 6B070000 		.4byte	.LASF118
 4774 1042 01       		.byte	0x1
 4775 1043 8F0B     		.2byte	0xb8f
 4776 1045 DD000000 		.4byte	0xdd
ARM GAS  C:\Users\Pablo\AppData\Local\Temp\ccDGsedh.s 			page 142


 4777 1049 00000000 		.4byte	.LFB64
 4778 104d 10000000 		.4byte	.LFE64-.LFB64
 4779 1051 01       		.uleb128 0x1
 4780 1052 9C       		.byte	0x9c
 4781 1053 84100000 		.4byte	0x1084
 4782 1057 11       		.uleb128 0x11
 4783 1058 5D020000 		.4byte	.LASF78
 4784 105c 01       		.byte	0x1
 4785 105d 8F0B     		.2byte	0xb8f
 4786 105f 81000000 		.4byte	0x81
 4787 1063 870A0000 		.4byte	.LLST76
 4788 1067 1F       		.uleb128 0x1f
 4789 1068 87080000 		.4byte	.LASF119
 4790 106c 01       		.byte	0x1
 4791 106d 8F0B     		.2byte	0xb8f
 4792 106f DD000000 		.4byte	0xdd
 4793 1073 01       		.uleb128 0x1
 4794 1074 51       		.byte	0x51
 4795 1075 31       		.uleb128 0x31
 4796 1076 A3040000 		.4byte	.LASF120
 4797 107a 01       		.byte	0x1
 4798 107b 910B     		.2byte	0xb91
 4799 107d DD000000 		.4byte	0xdd
 4800 1081 01       		.uleb128 0x1
 4801 1082 50       		.byte	0x50
 4802 1083 00       		.byte	0
 4803 1084 1D       		.uleb128 0x1d
 4804 1085 C1010000 		.4byte	.LASF121
 4805 1089 01       		.byte	0x1
 4806 108a A70B     		.2byte	0xba7
 4807 108c DD000000 		.4byte	0xdd
 4808 1090 00000000 		.4byte	.LFB65
 4809 1094 10000000 		.4byte	.LFE65-.LFB65
 4810 1098 01       		.uleb128 0x1
 4811 1099 9C       		.byte	0x9c
 4812 109a AF100000 		.4byte	0x10af
 4813 109e 11       		.uleb128 0x11
 4814 109f 5D020000 		.4byte	.LASF78
 4815 10a3 01       		.byte	0x1
 4816 10a4 A70B     		.2byte	0xba7
 4817 10a6 81000000 		.4byte	0x81
 4818 10aa A80A0000 		.4byte	.LLST77
 4819 10ae 00       		.byte	0
 4820 10af 3A       		.uleb128 0x3a
 4821 10b0 DD000000 		.4byte	0xdd
 4822 10b4 BF100000 		.4byte	0x10bf
 4823 10b8 3B       		.uleb128 0x3b
 4824 10b9 D6000000 		.4byte	0xd6
 4825 10bd 04       		.byte	0x4
 4826 10be 00       		.byte	0
 4827 10bf 3C       		.uleb128 0x3c
 4828 10c0 80070000 		.4byte	.LASF122
 4829 10c4 01       		.byte	0x1
 4830 10c5 32       		.byte	0x32
 4831 10c6 AF100000 		.4byte	0x10af
 4832 10ca 05       		.uleb128 0x5
 4833 10cb 03       		.byte	0x3
ARM GAS  C:\Users\Pablo\AppData\Local\Temp\ccDGsedh.s 			page 143


 4834 10cc 0C000000 		.4byte	CySysTickCallbacks
 4835 10d0 3D       		.uleb128 0x3d
 4836 10d1 C9000000 		.4byte	.LASF123
 4837 10d5 01       		.byte	0x1
 4838 10d6 34       		.byte	0x34
 4839 10d7 81000000 		.4byte	0x81
 4840 10db 05       		.uleb128 0x5
 4841 10dc 03       		.byte	0x3
 4842 10dd 00000000 		.4byte	CySysTickInitVar
 4843 10e1 3D       		.uleb128 0x3d
 4844 10e2 D3040000 		.4byte	.LASF124
 4845 10e6 01       		.byte	0x1
 4846 10e7 17       		.byte	0x17
 4847 10e8 81000000 		.4byte	0x81
 4848 10ec 05       		.uleb128 0x5
 4849 10ed 03       		.byte	0x3
 4850 10ee 00000000 		.4byte	cydelayFreqHz
 4851 10f2 3D       		.uleb128 0x3d
 4852 10f3 DC010000 		.4byte	.LASF125
 4853 10f7 01       		.byte	0x1
 4854 10f8 18       		.byte	0x18
 4855 10f9 81000000 		.4byte	0x81
 4856 10fd 05       		.uleb128 0x5
 4857 10fe 03       		.byte	0x3
 4858 10ff 00000000 		.4byte	cydelayFreqKhz
 4859 1103 3D       		.uleb128 0x3d
 4860 1104 26080000 		.4byte	.LASF126
 4861 1108 01       		.byte	0x1
 4862 1109 19       		.byte	0x19
 4863 110a 6B000000 		.4byte	0x6b
 4864 110e 05       		.uleb128 0x5
 4865 110f 03       		.byte	0x3
 4866 1110 00000000 		.4byte	cydelayFreqMhz
 4867 1114 3D       		.uleb128 0x3d
 4868 1115 FA070000 		.4byte	.LASF127
 4869 1119 01       		.byte	0x1
 4870 111a 1A       		.byte	0x1a
 4871 111b 81000000 		.4byte	0x81
 4872 111f 05       		.uleb128 0x5
 4873 1120 03       		.byte	0x3
 4874 1121 00000000 		.4byte	cydelay32kMs
 4875 1125 3D       		.uleb128 0x3d
 4876 1126 93000000 		.4byte	.LASF128
 4877 112a 01       		.byte	0x1
 4878 112b 23       		.byte	0x23
 4879 112c 81000000 		.4byte	0x81
 4880 1130 05       		.uleb128 0x5
 4881 1131 03       		.byte	0x3
 4882 1132 00000000 		.4byte	lfclkPosedgeWdtCounter0Enabled
 4883 1136 3D       		.uleb128 0x3d
 4884 1137 BE050000 		.4byte	.LASF129
 4885 113b 01       		.byte	0x1
 4886 113c 24       		.byte	0x24
 4887 113d 81000000 		.4byte	0x81
 4888 1141 05       		.uleb128 0x5
 4889 1142 03       		.byte	0x3
 4890 1143 00000000 		.4byte	lfclkPosedgeEnabledWdtCounter
ARM GAS  C:\Users\Pablo\AppData\Local\Temp\ccDGsedh.s 			page 144


 4891 1147 3D       		.uleb128 0x3d
 4892 1148 49080000 		.4byte	.LASF130
 4893 114c 01       		.byte	0x1
 4894 114d 25       		.byte	0x25
 4895 114e 81000000 		.4byte	0x81
 4896 1152 05       		.uleb128 0x5
 4897 1153 03       		.byte	0x3
 4898 1154 00000000 		.4byte	lfclkPosedgeWdtCounter0Mode
 4899 1158 3A       		.uleb128 0x3a
 4900 1159 6B000000 		.4byte	0x6b
 4901 115d 68110000 		.4byte	0x1168
 4902 1161 3B       		.uleb128 0x3b
 4903 1162 D6000000 		.4byte	0xd6
 4904 1166 2D       		.byte	0x2d
 4905 1167 00       		.byte	0
 4906 1168 3D       		.uleb128 0x3d
 4907 1169 B0040000 		.4byte	.LASF131
 4908 116d 01       		.byte	0x1
 4909 116e 39       		.byte	0x39
 4910 116f 79110000 		.4byte	0x1179
 4911 1173 05       		.uleb128 0x5
 4912 1174 03       		.byte	0x3
 4913 1175 00000000 		.4byte	cyImoFreqMhz2Reg
 4914 1179 3E       		.uleb128 0x3e
 4915 117a 58110000 		.4byte	0x1158
 4916 117e 3F       		.uleb128 0x3f
 4917 117f E1030000 		.4byte	.LASF138
 4918 1183 03       		.byte	0x3
 4919 1184 82       		.byte	0x82
 4920 1185 6B000000 		.4byte	0x6b
 4921 1189 40       		.uleb128 0x40
 4922 118a 25050000 		.4byte	.LASF132
 4923 118e 03       		.byte	0x3
 4924 118f 83       		.byte	0x83
 4925 1190 9A110000 		.4byte	0x119a
 4926 1194 41       		.uleb128 0x41
 4927 1195 6B000000 		.4byte	0x6b
 4928 1199 00       		.byte	0
 4929 119a 42       		.uleb128 0x42
 4930 119b 4F020000 		.4byte	.LASF139
 4931 119f 03       		.byte	0x3
 4932 11a0 7E       		.byte	0x7e
 4933 11a1 41       		.uleb128 0x41
 4934 11a2 81000000 		.4byte	0x81
 4935 11a6 00       		.byte	0
 4936 11a7 00       		.byte	0
 4937              		.section	.debug_abbrev,"",%progbits
 4938              	.Ldebug_abbrev0:
 4939 0000 01       		.uleb128 0x1
 4940 0001 11       		.uleb128 0x11
 4941 0002 01       		.byte	0x1
 4942 0003 25       		.uleb128 0x25
 4943 0004 0E       		.uleb128 0xe
 4944 0005 13       		.uleb128 0x13
 4945 0006 0B       		.uleb128 0xb
 4946 0007 03       		.uleb128 0x3
 4947 0008 0E       		.uleb128 0xe
ARM GAS  C:\Users\Pablo\AppData\Local\Temp\ccDGsedh.s 			page 145


 4948 0009 1B       		.uleb128 0x1b
 4949 000a 0E       		.uleb128 0xe
 4950 000b 55       		.uleb128 0x55
 4951 000c 17       		.uleb128 0x17
 4952 000d 11       		.uleb128 0x11
 4953 000e 01       		.uleb128 0x1
 4954 000f 10       		.uleb128 0x10
 4955 0010 17       		.uleb128 0x17
 4956 0011 00       		.byte	0
 4957 0012 00       		.byte	0
 4958 0013 02       		.uleb128 0x2
 4959 0014 24       		.uleb128 0x24
 4960 0015 00       		.byte	0
 4961 0016 0B       		.uleb128 0xb
 4962 0017 0B       		.uleb128 0xb
 4963 0018 3E       		.uleb128 0x3e
 4964 0019 0B       		.uleb128 0xb
 4965 001a 03       		.uleb128 0x3
 4966 001b 0E       		.uleb128 0xe
 4967 001c 00       		.byte	0
 4968 001d 00       		.byte	0
 4969 001e 03       		.uleb128 0x3
 4970 001f 24       		.uleb128 0x24
 4971 0020 00       		.byte	0
 4972 0021 0B       		.uleb128 0xb
 4973 0022 0B       		.uleb128 0xb
 4974 0023 3E       		.uleb128 0x3e
 4975 0024 0B       		.uleb128 0xb
 4976 0025 03       		.uleb128 0x3
 4977 0026 08       		.uleb128 0x8
 4978 0027 00       		.byte	0
 4979 0028 00       		.byte	0
 4980 0029 04       		.uleb128 0x4
 4981 002a 16       		.uleb128 0x16
 4982 002b 00       		.byte	0
 4983 002c 03       		.uleb128 0x3
 4984 002d 0E       		.uleb128 0xe
 4985 002e 3A       		.uleb128 0x3a
 4986 002f 0B       		.uleb128 0xb
 4987 0030 3B       		.uleb128 0x3b
 4988 0031 0B       		.uleb128 0xb
 4989 0032 49       		.uleb128 0x49
 4990 0033 13       		.uleb128 0x13
 4991 0034 00       		.byte	0
 4992 0035 00       		.byte	0
 4993 0036 05       		.uleb128 0x5
 4994 0037 16       		.uleb128 0x16
 4995 0038 00       		.byte	0
 4996 0039 03       		.uleb128 0x3
 4997 003a 0E       		.uleb128 0xe
 4998 003b 3A       		.uleb128 0x3a
 4999 003c 0B       		.uleb128 0xb
 5000 003d 3B       		.uleb128 0x3b
 5001 003e 05       		.uleb128 0x5
 5002 003f 49       		.uleb128 0x49
 5003 0040 13       		.uleb128 0x13
 5004 0041 00       		.byte	0
ARM GAS  C:\Users\Pablo\AppData\Local\Temp\ccDGsedh.s 			page 146


 5005 0042 00       		.byte	0
 5006 0043 06       		.uleb128 0x6
 5007 0044 35       		.uleb128 0x35
 5008 0045 00       		.byte	0
 5009 0046 49       		.uleb128 0x49
 5010 0047 13       		.uleb128 0x13
 5011 0048 00       		.byte	0
 5012 0049 00       		.byte	0
 5013 004a 07       		.uleb128 0x7
 5014 004b 0F       		.uleb128 0xf
 5015 004c 00       		.byte	0
 5016 004d 0B       		.uleb128 0xb
 5017 004e 0B       		.uleb128 0xb
 5018 004f 49       		.uleb128 0x49
 5019 0050 13       		.uleb128 0x13
 5020 0051 00       		.byte	0
 5021 0052 00       		.byte	0
 5022 0053 08       		.uleb128 0x8
 5023 0054 15       		.uleb128 0x15
 5024 0055 00       		.byte	0
 5025 0056 27       		.uleb128 0x27
 5026 0057 19       		.uleb128 0x19
 5027 0058 00       		.byte	0
 5028 0059 00       		.byte	0
 5029 005a 09       		.uleb128 0x9
 5030 005b 2E       		.uleb128 0x2e
 5031 005c 01       		.byte	0x1
 5032 005d 3F       		.uleb128 0x3f
 5033 005e 19       		.uleb128 0x19
 5034 005f 03       		.uleb128 0x3
 5035 0060 0E       		.uleb128 0xe
 5036 0061 3A       		.uleb128 0x3a
 5037 0062 0B       		.uleb128 0xb
 5038 0063 3B       		.uleb128 0x3b
 5039 0064 05       		.uleb128 0x5
 5040 0065 27       		.uleb128 0x27
 5041 0066 19       		.uleb128 0x19
 5042 0067 20       		.uleb128 0x20
 5043 0068 0B       		.uleb128 0xb
 5044 0069 01       		.uleb128 0x1
 5045 006a 13       		.uleb128 0x13
 5046 006b 00       		.byte	0
 5047 006c 00       		.byte	0
 5048 006d 0A       		.uleb128 0xa
 5049 006e 05       		.uleb128 0x5
 5050 006f 00       		.byte	0
 5051 0070 03       		.uleb128 0x3
 5052 0071 0E       		.uleb128 0xe
 5053 0072 3A       		.uleb128 0x3a
 5054 0073 0B       		.uleb128 0xb
 5055 0074 3B       		.uleb128 0x3b
 5056 0075 05       		.uleb128 0x5
 5057 0076 49       		.uleb128 0x49
 5058 0077 13       		.uleb128 0x13
 5059 0078 00       		.byte	0
 5060 0079 00       		.byte	0
 5061 007a 0B       		.uleb128 0xb
ARM GAS  C:\Users\Pablo\AppData\Local\Temp\ccDGsedh.s 			page 147


 5062 007b 34       		.uleb128 0x34
 5063 007c 00       		.byte	0
 5064 007d 03       		.uleb128 0x3
 5065 007e 0E       		.uleb128 0xe
 5066 007f 3A       		.uleb128 0x3a
 5067 0080 0B       		.uleb128 0xb
 5068 0081 3B       		.uleb128 0x3b
 5069 0082 05       		.uleb128 0x5
 5070 0083 49       		.uleb128 0x49
 5071 0084 13       		.uleb128 0x13
 5072 0085 00       		.byte	0
 5073 0086 00       		.byte	0
 5074 0087 0C       		.uleb128 0xc
 5075 0088 2E       		.uleb128 0x2e
 5076 0089 01       		.byte	0x1
 5077 008a 03       		.uleb128 0x3
 5078 008b 0E       		.uleb128 0xe
 5079 008c 3A       		.uleb128 0x3a
 5080 008d 0B       		.uleb128 0xb
 5081 008e 3B       		.uleb128 0x3b
 5082 008f 05       		.uleb128 0x5
 5083 0090 27       		.uleb128 0x27
 5084 0091 19       		.uleb128 0x19
 5085 0092 20       		.uleb128 0x20
 5086 0093 0B       		.uleb128 0xb
 5087 0094 01       		.uleb128 0x1
 5088 0095 13       		.uleb128 0x13
 5089 0096 00       		.byte	0
 5090 0097 00       		.byte	0
 5091 0098 0D       		.uleb128 0xd
 5092 0099 34       		.uleb128 0x34
 5093 009a 00       		.byte	0
 5094 009b 03       		.uleb128 0x3
 5095 009c 08       		.uleb128 0x8
 5096 009d 3A       		.uleb128 0x3a
 5097 009e 0B       		.uleb128 0xb
 5098 009f 3B       		.uleb128 0x3b
 5099 00a0 05       		.uleb128 0x5
 5100 00a1 49       		.uleb128 0x49
 5101 00a2 13       		.uleb128 0x13
 5102 00a3 00       		.byte	0
 5103 00a4 00       		.byte	0
 5104 00a5 0E       		.uleb128 0xe
 5105 00a6 2E       		.uleb128 0x2e
 5106 00a7 00       		.byte	0
 5107 00a8 3F       		.uleb128 0x3f
 5108 00a9 19       		.uleb128 0x19
 5109 00aa 03       		.uleb128 0x3
 5110 00ab 0E       		.uleb128 0xe
 5111 00ac 3A       		.uleb128 0x3a
 5112 00ad 0B       		.uleb128 0xb
 5113 00ae 3B       		.uleb128 0x3b
 5114 00af 05       		.uleb128 0x5
 5115 00b0 27       		.uleb128 0x27
 5116 00b1 19       		.uleb128 0x19
 5117 00b2 20       		.uleb128 0x20
 5118 00b3 0B       		.uleb128 0xb
ARM GAS  C:\Users\Pablo\AppData\Local\Temp\ccDGsedh.s 			page 148


 5119 00b4 00       		.byte	0
 5120 00b5 00       		.byte	0
 5121 00b6 0F       		.uleb128 0xf
 5122 00b7 2E       		.uleb128 0x2e
 5123 00b8 00       		.byte	0
 5124 00b9 3F       		.uleb128 0x3f
 5125 00ba 19       		.uleb128 0x19
 5126 00bb 03       		.uleb128 0x3
 5127 00bc 0E       		.uleb128 0xe
 5128 00bd 3A       		.uleb128 0x3a
 5129 00be 0B       		.uleb128 0xb
 5130 00bf 3B       		.uleb128 0x3b
 5131 00c0 0B       		.uleb128 0xb
 5132 00c1 27       		.uleb128 0x27
 5133 00c2 19       		.uleb128 0x19
 5134 00c3 11       		.uleb128 0x11
 5135 00c4 01       		.uleb128 0x1
 5136 00c5 12       		.uleb128 0x12
 5137 00c6 06       		.uleb128 0x6
 5138 00c7 40       		.uleb128 0x40
 5139 00c8 18       		.uleb128 0x18
 5140 00c9 9742     		.uleb128 0x2117
 5141 00cb 19       		.uleb128 0x19
 5142 00cc 00       		.byte	0
 5143 00cd 00       		.byte	0
 5144 00ce 10       		.uleb128 0x10
 5145 00cf 2E       		.uleb128 0x2e
 5146 00d0 01       		.byte	0x1
 5147 00d1 3F       		.uleb128 0x3f
 5148 00d2 19       		.uleb128 0x19
 5149 00d3 03       		.uleb128 0x3
 5150 00d4 0E       		.uleb128 0xe
 5151 00d5 3A       		.uleb128 0x3a
 5152 00d6 0B       		.uleb128 0xb
 5153 00d7 3B       		.uleb128 0x3b
 5154 00d8 05       		.uleb128 0x5
 5155 00d9 27       		.uleb128 0x27
 5156 00da 19       		.uleb128 0x19
 5157 00db 11       		.uleb128 0x11
 5158 00dc 01       		.uleb128 0x1
 5159 00dd 12       		.uleb128 0x12
 5160 00de 06       		.uleb128 0x6
 5161 00df 40       		.uleb128 0x40
 5162 00e0 18       		.uleb128 0x18
 5163 00e1 9742     		.uleb128 0x2117
 5164 00e3 19       		.uleb128 0x19
 5165 00e4 01       		.uleb128 0x1
 5166 00e5 13       		.uleb128 0x13
 5167 00e6 00       		.byte	0
 5168 00e7 00       		.byte	0
 5169 00e8 11       		.uleb128 0x11
 5170 00e9 05       		.uleb128 0x5
 5171 00ea 00       		.byte	0
 5172 00eb 03       		.uleb128 0x3
 5173 00ec 0E       		.uleb128 0xe
 5174 00ed 3A       		.uleb128 0x3a
 5175 00ee 0B       		.uleb128 0xb
ARM GAS  C:\Users\Pablo\AppData\Local\Temp\ccDGsedh.s 			page 149


 5176 00ef 3B       		.uleb128 0x3b
 5177 00f0 05       		.uleb128 0x5
 5178 00f1 49       		.uleb128 0x49
 5179 00f2 13       		.uleb128 0x13
 5180 00f3 02       		.uleb128 0x2
 5181 00f4 17       		.uleb128 0x17
 5182 00f5 00       		.byte	0
 5183 00f6 00       		.byte	0
 5184 00f7 12       		.uleb128 0x12
 5185 00f8 34       		.uleb128 0x34
 5186 00f9 00       		.byte	0
 5187 00fa 03       		.uleb128 0x3
 5188 00fb 0E       		.uleb128 0xe
 5189 00fc 3A       		.uleb128 0x3a
 5190 00fd 0B       		.uleb128 0xb
 5191 00fe 3B       		.uleb128 0x3b
 5192 00ff 05       		.uleb128 0x5
 5193 0100 49       		.uleb128 0x49
 5194 0101 13       		.uleb128 0x13
 5195 0102 02       		.uleb128 0x2
 5196 0103 17       		.uleb128 0x17
 5197 0104 00       		.byte	0
 5198 0105 00       		.byte	0
 5199 0106 13       		.uleb128 0x13
 5200 0107 898201   		.uleb128 0x4109
 5201 010a 00       		.byte	0
 5202 010b 11       		.uleb128 0x11
 5203 010c 01       		.uleb128 0x1
 5204 010d 31       		.uleb128 0x31
 5205 010e 13       		.uleb128 0x13
 5206 010f 00       		.byte	0
 5207 0110 00       		.byte	0
 5208 0111 14       		.uleb128 0x14
 5209 0112 2E       		.uleb128 0x2e
 5210 0113 01       		.byte	0x1
 5211 0114 3F       		.uleb128 0x3f
 5212 0115 19       		.uleb128 0x19
 5213 0116 03       		.uleb128 0x3
 5214 0117 0E       		.uleb128 0xe
 5215 0118 3A       		.uleb128 0x3a
 5216 0119 0B       		.uleb128 0xb
 5217 011a 3B       		.uleb128 0x3b
 5218 011b 05       		.uleb128 0x5
 5219 011c 27       		.uleb128 0x27
 5220 011d 19       		.uleb128 0x19
 5221 011e 49       		.uleb128 0x49
 5222 011f 13       		.uleb128 0x13
 5223 0120 20       		.uleb128 0x20
 5224 0121 0B       		.uleb128 0xb
 5225 0122 01       		.uleb128 0x1
 5226 0123 13       		.uleb128 0x13
 5227 0124 00       		.byte	0
 5228 0125 00       		.byte	0
 5229 0126 15       		.uleb128 0x15
 5230 0127 2E       		.uleb128 0x2e
 5231 0128 01       		.byte	0x1
 5232 0129 31       		.uleb128 0x31
ARM GAS  C:\Users\Pablo\AppData\Local\Temp\ccDGsedh.s 			page 150


 5233 012a 13       		.uleb128 0x13
 5234 012b 11       		.uleb128 0x11
 5235 012c 01       		.uleb128 0x1
 5236 012d 12       		.uleb128 0x12
 5237 012e 06       		.uleb128 0x6
 5238 012f 40       		.uleb128 0x40
 5239 0130 18       		.uleb128 0x18
 5240 0131 9742     		.uleb128 0x2117
 5241 0133 19       		.uleb128 0x19
 5242 0134 01       		.uleb128 0x1
 5243 0135 13       		.uleb128 0x13
 5244 0136 00       		.byte	0
 5245 0137 00       		.byte	0
 5246 0138 16       		.uleb128 0x16
 5247 0139 05       		.uleb128 0x5
 5248 013a 00       		.byte	0
 5249 013b 31       		.uleb128 0x31
 5250 013c 13       		.uleb128 0x13
 5251 013d 02       		.uleb128 0x2
 5252 013e 17       		.uleb128 0x17
 5253 013f 00       		.byte	0
 5254 0140 00       		.byte	0
 5255 0141 17       		.uleb128 0x17
 5256 0142 34       		.uleb128 0x34
 5257 0143 00       		.byte	0
 5258 0144 31       		.uleb128 0x31
 5259 0145 13       		.uleb128 0x13
 5260 0146 00       		.byte	0
 5261 0147 00       		.byte	0
 5262 0148 18       		.uleb128 0x18
 5263 0149 0B       		.uleb128 0xb
 5264 014a 01       		.byte	0x1
 5265 014b 11       		.uleb128 0x11
 5266 014c 01       		.uleb128 0x1
 5267 014d 12       		.uleb128 0x12
 5268 014e 06       		.uleb128 0x6
 5269 014f 01       		.uleb128 0x1
 5270 0150 13       		.uleb128 0x13
 5271 0151 00       		.byte	0
 5272 0152 00       		.byte	0
 5273 0153 19       		.uleb128 0x19
 5274 0154 0B       		.uleb128 0xb
 5275 0155 01       		.byte	0x1
 5276 0156 11       		.uleb128 0x11
 5277 0157 01       		.uleb128 0x1
 5278 0158 12       		.uleb128 0x12
 5279 0159 06       		.uleb128 0x6
 5280 015a 00       		.byte	0
 5281 015b 00       		.byte	0
 5282 015c 1A       		.uleb128 0x1a
 5283 015d 34       		.uleb128 0x34
 5284 015e 00       		.byte	0
 5285 015f 31       		.uleb128 0x31
 5286 0160 13       		.uleb128 0x13
 5287 0161 02       		.uleb128 0x2
 5288 0162 17       		.uleb128 0x17
 5289 0163 00       		.byte	0
ARM GAS  C:\Users\Pablo\AppData\Local\Temp\ccDGsedh.s 			page 151


 5290 0164 00       		.byte	0
 5291 0165 1B       		.uleb128 0x1b
 5292 0166 898201   		.uleb128 0x4109
 5293 0169 01       		.byte	0x1
 5294 016a 11       		.uleb128 0x11
 5295 016b 01       		.uleb128 0x1
 5296 016c 31       		.uleb128 0x31
 5297 016d 13       		.uleb128 0x13
 5298 016e 00       		.byte	0
 5299 016f 00       		.byte	0
 5300 0170 1C       		.uleb128 0x1c
 5301 0171 8A8201   		.uleb128 0x410a
 5302 0174 00       		.byte	0
 5303 0175 02       		.uleb128 0x2
 5304 0176 18       		.uleb128 0x18
 5305 0177 9142     		.uleb128 0x2111
 5306 0179 18       		.uleb128 0x18
 5307 017a 00       		.byte	0
 5308 017b 00       		.byte	0
 5309 017c 1D       		.uleb128 0x1d
 5310 017d 2E       		.uleb128 0x2e
 5311 017e 01       		.byte	0x1
 5312 017f 3F       		.uleb128 0x3f
 5313 0180 19       		.uleb128 0x19
 5314 0181 03       		.uleb128 0x3
 5315 0182 0E       		.uleb128 0xe
 5316 0183 3A       		.uleb128 0x3a
 5317 0184 0B       		.uleb128 0xb
 5318 0185 3B       		.uleb128 0x3b
 5319 0186 05       		.uleb128 0x5
 5320 0187 27       		.uleb128 0x27
 5321 0188 19       		.uleb128 0x19
 5322 0189 49       		.uleb128 0x49
 5323 018a 13       		.uleb128 0x13
 5324 018b 11       		.uleb128 0x11
 5325 018c 01       		.uleb128 0x1
 5326 018d 12       		.uleb128 0x12
 5327 018e 06       		.uleb128 0x6
 5328 018f 40       		.uleb128 0x40
 5329 0190 18       		.uleb128 0x18
 5330 0191 9742     		.uleb128 0x2117
 5331 0193 19       		.uleb128 0x19
 5332 0194 01       		.uleb128 0x1
 5333 0195 13       		.uleb128 0x13
 5334 0196 00       		.byte	0
 5335 0197 00       		.byte	0
 5336 0198 1E       		.uleb128 0x1e
 5337 0199 1D       		.uleb128 0x1d
 5338 019a 01       		.byte	0x1
 5339 019b 31       		.uleb128 0x31
 5340 019c 13       		.uleb128 0x13
 5341 019d 11       		.uleb128 0x11
 5342 019e 01       		.uleb128 0x1
 5343 019f 12       		.uleb128 0x12
 5344 01a0 06       		.uleb128 0x6
 5345 01a1 58       		.uleb128 0x58
 5346 01a2 0B       		.uleb128 0xb
ARM GAS  C:\Users\Pablo\AppData\Local\Temp\ccDGsedh.s 			page 152


 5347 01a3 59       		.uleb128 0x59
 5348 01a4 05       		.uleb128 0x5
 5349 01a5 01       		.uleb128 0x1
 5350 01a6 13       		.uleb128 0x13
 5351 01a7 00       		.byte	0
 5352 01a8 00       		.byte	0
 5353 01a9 1F       		.uleb128 0x1f
 5354 01aa 05       		.uleb128 0x5
 5355 01ab 00       		.byte	0
 5356 01ac 03       		.uleb128 0x3
 5357 01ad 0E       		.uleb128 0xe
 5358 01ae 3A       		.uleb128 0x3a
 5359 01af 0B       		.uleb128 0xb
 5360 01b0 3B       		.uleb128 0x3b
 5361 01b1 05       		.uleb128 0x5
 5362 01b2 49       		.uleb128 0x49
 5363 01b3 13       		.uleb128 0x13
 5364 01b4 02       		.uleb128 0x2
 5365 01b5 18       		.uleb128 0x18
 5366 01b6 00       		.byte	0
 5367 01b7 00       		.byte	0
 5368 01b8 20       		.uleb128 0x20
 5369 01b9 1D       		.uleb128 0x1d
 5370 01ba 01       		.byte	0x1
 5371 01bb 31       		.uleb128 0x31
 5372 01bc 13       		.uleb128 0x13
 5373 01bd 11       		.uleb128 0x11
 5374 01be 01       		.uleb128 0x1
 5375 01bf 12       		.uleb128 0x12
 5376 01c0 06       		.uleb128 0x6
 5377 01c1 58       		.uleb128 0x58
 5378 01c2 0B       		.uleb128 0xb
 5379 01c3 59       		.uleb128 0x59
 5380 01c4 05       		.uleb128 0x5
 5381 01c5 00       		.byte	0
 5382 01c6 00       		.byte	0
 5383 01c7 21       		.uleb128 0x21
 5384 01c8 1D       		.uleb128 0x1d
 5385 01c9 01       		.byte	0x1
 5386 01ca 31       		.uleb128 0x31
 5387 01cb 13       		.uleb128 0x13
 5388 01cc 52       		.uleb128 0x52
 5389 01cd 01       		.uleb128 0x1
 5390 01ce 55       		.uleb128 0x55
 5391 01cf 17       		.uleb128 0x17
 5392 01d0 58       		.uleb128 0x58
 5393 01d1 0B       		.uleb128 0xb
 5394 01d2 59       		.uleb128 0x59
 5395 01d3 05       		.uleb128 0x5
 5396 01d4 01       		.uleb128 0x1
 5397 01d5 13       		.uleb128 0x13
 5398 01d6 00       		.byte	0
 5399 01d7 00       		.byte	0
 5400 01d8 22       		.uleb128 0x22
 5401 01d9 05       		.uleb128 0x5
 5402 01da 00       		.byte	0
 5403 01db 31       		.uleb128 0x31
ARM GAS  C:\Users\Pablo\AppData\Local\Temp\ccDGsedh.s 			page 153


 5404 01dc 13       		.uleb128 0x13
 5405 01dd 1C       		.uleb128 0x1c
 5406 01de 0B       		.uleb128 0xb
 5407 01df 00       		.byte	0
 5408 01e0 00       		.byte	0
 5409 01e1 23       		.uleb128 0x23
 5410 01e2 1D       		.uleb128 0x1d
 5411 01e3 01       		.byte	0x1
 5412 01e4 31       		.uleb128 0x31
 5413 01e5 13       		.uleb128 0x13
 5414 01e6 52       		.uleb128 0x52
 5415 01e7 01       		.uleb128 0x1
 5416 01e8 55       		.uleb128 0x55
 5417 01e9 17       		.uleb128 0x17
 5418 01ea 58       		.uleb128 0x58
 5419 01eb 0B       		.uleb128 0xb
 5420 01ec 59       		.uleb128 0x59
 5421 01ed 05       		.uleb128 0x5
 5422 01ee 00       		.byte	0
 5423 01ef 00       		.byte	0
 5424 01f0 24       		.uleb128 0x24
 5425 01f1 2E       		.uleb128 0x2e
 5426 01f2 00       		.byte	0
 5427 01f3 3F       		.uleb128 0x3f
 5428 01f4 19       		.uleb128 0x19
 5429 01f5 03       		.uleb128 0x3
 5430 01f6 0E       		.uleb128 0xe
 5431 01f7 3A       		.uleb128 0x3a
 5432 01f8 0B       		.uleb128 0xb
 5433 01f9 3B       		.uleb128 0x3b
 5434 01fa 05       		.uleb128 0x5
 5435 01fb 27       		.uleb128 0x27
 5436 01fc 19       		.uleb128 0x19
 5437 01fd 49       		.uleb128 0x49
 5438 01fe 13       		.uleb128 0x13
 5439 01ff 11       		.uleb128 0x11
 5440 0200 01       		.uleb128 0x1
 5441 0201 12       		.uleb128 0x12
 5442 0202 06       		.uleb128 0x6
 5443 0203 40       		.uleb128 0x40
 5444 0204 18       		.uleb128 0x18
 5445 0205 9742     		.uleb128 0x2117
 5446 0207 19       		.uleb128 0x19
 5447 0208 00       		.byte	0
 5448 0209 00       		.byte	0
 5449 020a 25       		.uleb128 0x25
 5450 020b 2E       		.uleb128 0x2e
 5451 020c 00       		.byte	0
 5452 020d 03       		.uleb128 0x3
 5453 020e 0E       		.uleb128 0xe
 5454 020f 3A       		.uleb128 0x3a
 5455 0210 0B       		.uleb128 0xb
 5456 0211 3B       		.uleb128 0x3b
 5457 0212 05       		.uleb128 0x5
 5458 0213 27       		.uleb128 0x27
 5459 0214 19       		.uleb128 0x19
 5460 0215 49       		.uleb128 0x49
ARM GAS  C:\Users\Pablo\AppData\Local\Temp\ccDGsedh.s 			page 154


 5461 0216 13       		.uleb128 0x13
 5462 0217 20       		.uleb128 0x20
 5463 0218 0B       		.uleb128 0xb
 5464 0219 00       		.byte	0
 5465 021a 00       		.byte	0
 5466 021b 26       		.uleb128 0x26
 5467 021c 2E       		.uleb128 0x2e
 5468 021d 00       		.byte	0
 5469 021e 03       		.uleb128 0x3
 5470 021f 0E       		.uleb128 0xe
 5471 0220 3A       		.uleb128 0x3a
 5472 0221 0B       		.uleb128 0xb
 5473 0222 3B       		.uleb128 0x3b
 5474 0223 0B       		.uleb128 0xb
 5475 0224 27       		.uleb128 0x27
 5476 0225 19       		.uleb128 0x19
 5477 0226 49       		.uleb128 0x49
 5478 0227 13       		.uleb128 0x13
 5479 0228 20       		.uleb128 0x20
 5480 0229 0B       		.uleb128 0xb
 5481 022a 00       		.byte	0
 5482 022b 00       		.byte	0
 5483 022c 27       		.uleb128 0x27
 5484 022d 2E       		.uleb128 0x2e
 5485 022e 00       		.byte	0
 5486 022f 03       		.uleb128 0x3
 5487 0230 0E       		.uleb128 0xe
 5488 0231 3A       		.uleb128 0x3a
 5489 0232 0B       		.uleb128 0xb
 5490 0233 3B       		.uleb128 0x3b
 5491 0234 05       		.uleb128 0x5
 5492 0235 27       		.uleb128 0x27
 5493 0236 19       		.uleb128 0x19
 5494 0237 20       		.uleb128 0x20
 5495 0238 0B       		.uleb128 0xb
 5496 0239 00       		.byte	0
 5497 023a 00       		.byte	0
 5498 023b 28       		.uleb128 0x28
 5499 023c 2E       		.uleb128 0x2e
 5500 023d 01       		.byte	0x1
 5501 023e 3F       		.uleb128 0x3f
 5502 023f 19       		.uleb128 0x19
 5503 0240 03       		.uleb128 0x3
 5504 0241 0E       		.uleb128 0xe
 5505 0242 3A       		.uleb128 0x3a
 5506 0243 0B       		.uleb128 0xb
 5507 0244 3B       		.uleb128 0x3b
 5508 0245 0B       		.uleb128 0xb
 5509 0246 27       		.uleb128 0x27
 5510 0247 19       		.uleb128 0x19
 5511 0248 11       		.uleb128 0x11
 5512 0249 01       		.uleb128 0x1
 5513 024a 12       		.uleb128 0x12
 5514 024b 06       		.uleb128 0x6
 5515 024c 40       		.uleb128 0x40
 5516 024d 18       		.uleb128 0x18
 5517 024e 9742     		.uleb128 0x2117
ARM GAS  C:\Users\Pablo\AppData\Local\Temp\ccDGsedh.s 			page 155


 5518 0250 19       		.uleb128 0x19
 5519 0251 01       		.uleb128 0x1
 5520 0252 13       		.uleb128 0x13
 5521 0253 00       		.byte	0
 5522 0254 00       		.byte	0
 5523 0255 29       		.uleb128 0x29
 5524 0256 34       		.uleb128 0x34
 5525 0257 00       		.byte	0
 5526 0258 03       		.uleb128 0x3
 5527 0259 0E       		.uleb128 0xe
 5528 025a 3A       		.uleb128 0x3a
 5529 025b 0B       		.uleb128 0xb
 5530 025c 3B       		.uleb128 0x3b
 5531 025d 0B       		.uleb128 0xb
 5532 025e 49       		.uleb128 0x49
 5533 025f 13       		.uleb128 0x13
 5534 0260 02       		.uleb128 0x2
 5535 0261 17       		.uleb128 0x17
 5536 0262 00       		.byte	0
 5537 0263 00       		.byte	0
 5538 0264 2A       		.uleb128 0x2a
 5539 0265 1D       		.uleb128 0x1d
 5540 0266 00       		.byte	0
 5541 0267 31       		.uleb128 0x31
 5542 0268 13       		.uleb128 0x13
 5543 0269 11       		.uleb128 0x11
 5544 026a 01       		.uleb128 0x1
 5545 026b 12       		.uleb128 0x12
 5546 026c 06       		.uleb128 0x6
 5547 026d 58       		.uleb128 0x58
 5548 026e 0B       		.uleb128 0xb
 5549 026f 59       		.uleb128 0x59
 5550 0270 0B       		.uleb128 0xb
 5551 0271 00       		.byte	0
 5552 0272 00       		.byte	0
 5553 0273 2B       		.uleb128 0x2b
 5554 0274 1D       		.uleb128 0x1d
 5555 0275 01       		.byte	0x1
 5556 0276 31       		.uleb128 0x31
 5557 0277 13       		.uleb128 0x13
 5558 0278 52       		.uleb128 0x52
 5559 0279 01       		.uleb128 0x1
 5560 027a 55       		.uleb128 0x55
 5561 027b 17       		.uleb128 0x17
 5562 027c 58       		.uleb128 0x58
 5563 027d 0B       		.uleb128 0xb
 5564 027e 59       		.uleb128 0x59
 5565 027f 0B       		.uleb128 0xb
 5566 0280 01       		.uleb128 0x1
 5567 0281 13       		.uleb128 0x13
 5568 0282 00       		.byte	0
 5569 0283 00       		.byte	0
 5570 0284 2C       		.uleb128 0x2c
 5571 0285 0B       		.uleb128 0xb
 5572 0286 01       		.byte	0x1
 5573 0287 55       		.uleb128 0x55
 5574 0288 17       		.uleb128 0x17
ARM GAS  C:\Users\Pablo\AppData\Local\Temp\ccDGsedh.s 			page 156


 5575 0289 00       		.byte	0
 5576 028a 00       		.byte	0
 5577 028b 2D       		.uleb128 0x2d
 5578 028c 898201   		.uleb128 0x4109
 5579 028f 01       		.byte	0x1
 5580 0290 11       		.uleb128 0x11
 5581 0291 01       		.uleb128 0x1
 5582 0292 31       		.uleb128 0x31
 5583 0293 13       		.uleb128 0x13
 5584 0294 01       		.uleb128 0x1
 5585 0295 13       		.uleb128 0x13
 5586 0296 00       		.byte	0
 5587 0297 00       		.byte	0
 5588 0298 2E       		.uleb128 0x2e
 5589 0299 1D       		.uleb128 0x1d
 5590 029a 01       		.byte	0x1
 5591 029b 31       		.uleb128 0x31
 5592 029c 13       		.uleb128 0x13
 5593 029d 11       		.uleb128 0x11
 5594 029e 01       		.uleb128 0x1
 5595 029f 12       		.uleb128 0x12
 5596 02a0 06       		.uleb128 0x6
 5597 02a1 58       		.uleb128 0x58
 5598 02a2 0B       		.uleb128 0xb
 5599 02a3 59       		.uleb128 0x59
 5600 02a4 0B       		.uleb128 0xb
 5601 02a5 01       		.uleb128 0x1
 5602 02a6 13       		.uleb128 0x13
 5603 02a7 00       		.byte	0
 5604 02a8 00       		.byte	0
 5605 02a9 2F       		.uleb128 0x2f
 5606 02aa 1D       		.uleb128 0x1d
 5607 02ab 00       		.byte	0
 5608 02ac 31       		.uleb128 0x31
 5609 02ad 13       		.uleb128 0x13
 5610 02ae 52       		.uleb128 0x52
 5611 02af 01       		.uleb128 0x1
 5612 02b0 55       		.uleb128 0x55
 5613 02b1 17       		.uleb128 0x17
 5614 02b2 58       		.uleb128 0x58
 5615 02b3 0B       		.uleb128 0xb
 5616 02b4 59       		.uleb128 0x59
 5617 02b5 05       		.uleb128 0x5
 5618 02b6 00       		.byte	0
 5619 02b7 00       		.byte	0
 5620 02b8 30       		.uleb128 0x30
 5621 02b9 2E       		.uleb128 0x2e
 5622 02ba 00       		.byte	0
 5623 02bb 3F       		.uleb128 0x3f
 5624 02bc 19       		.uleb128 0x19
 5625 02bd 03       		.uleb128 0x3
 5626 02be 0E       		.uleb128 0xe
 5627 02bf 3A       		.uleb128 0x3a
 5628 02c0 0B       		.uleb128 0xb
 5629 02c1 3B       		.uleb128 0x3b
 5630 02c2 05       		.uleb128 0x5
 5631 02c3 27       		.uleb128 0x27
ARM GAS  C:\Users\Pablo\AppData\Local\Temp\ccDGsedh.s 			page 157


 5632 02c4 19       		.uleb128 0x19
 5633 02c5 11       		.uleb128 0x11
 5634 02c6 01       		.uleb128 0x1
 5635 02c7 12       		.uleb128 0x12
 5636 02c8 06       		.uleb128 0x6
 5637 02c9 40       		.uleb128 0x40
 5638 02ca 18       		.uleb128 0x18
 5639 02cb 9742     		.uleb128 0x2117
 5640 02cd 19       		.uleb128 0x19
 5641 02ce 00       		.byte	0
 5642 02cf 00       		.byte	0
 5643 02d0 31       		.uleb128 0x31
 5644 02d1 34       		.uleb128 0x34
 5645 02d2 00       		.byte	0
 5646 02d3 03       		.uleb128 0x3
 5647 02d4 0E       		.uleb128 0xe
 5648 02d5 3A       		.uleb128 0x3a
 5649 02d6 0B       		.uleb128 0xb
 5650 02d7 3B       		.uleb128 0x3b
 5651 02d8 05       		.uleb128 0x5
 5652 02d9 49       		.uleb128 0x49
 5653 02da 13       		.uleb128 0x13
 5654 02db 02       		.uleb128 0x2
 5655 02dc 18       		.uleb128 0x18
 5656 02dd 00       		.byte	0
 5657 02de 00       		.byte	0
 5658 02df 32       		.uleb128 0x32
 5659 02e0 05       		.uleb128 0x5
 5660 02e1 00       		.byte	0
 5661 02e2 31       		.uleb128 0x31
 5662 02e3 13       		.uleb128 0x13
 5663 02e4 02       		.uleb128 0x2
 5664 02e5 18       		.uleb128 0x18
 5665 02e6 00       		.byte	0
 5666 02e7 00       		.byte	0
 5667 02e8 33       		.uleb128 0x33
 5668 02e9 34       		.uleb128 0x34
 5669 02ea 00       		.byte	0
 5670 02eb 31       		.uleb128 0x31
 5671 02ec 13       		.uleb128 0x13
 5672 02ed 02       		.uleb128 0x2
 5673 02ee 18       		.uleb128 0x18
 5674 02ef 00       		.byte	0
 5675 02f0 00       		.byte	0
 5676 02f1 34       		.uleb128 0x34
 5677 02f2 34       		.uleb128 0x34
 5678 02f3 00       		.byte	0
 5679 02f4 31       		.uleb128 0x31
 5680 02f5 13       		.uleb128 0x13
 5681 02f6 1C       		.uleb128 0x1c
 5682 02f7 06       		.uleb128 0x6
 5683 02f8 00       		.byte	0
 5684 02f9 00       		.byte	0
 5685 02fa 35       		.uleb128 0x35
 5686 02fb 34       		.uleb128 0x34
 5687 02fc 00       		.byte	0
 5688 02fd 03       		.uleb128 0x3
ARM GAS  C:\Users\Pablo\AppData\Local\Temp\ccDGsedh.s 			page 158


 5689 02fe 0E       		.uleb128 0xe
 5690 02ff 3A       		.uleb128 0x3a
 5691 0300 0B       		.uleb128 0xb
 5692 0301 3B       		.uleb128 0x3b
 5693 0302 05       		.uleb128 0x5
 5694 0303 49       		.uleb128 0x49
 5695 0304 13       		.uleb128 0x13
 5696 0305 1C       		.uleb128 0x1c
 5697 0306 06       		.uleb128 0x6
 5698 0307 00       		.byte	0
 5699 0308 00       		.byte	0
 5700 0309 36       		.uleb128 0x36
 5701 030a 2E       		.uleb128 0x2e
 5702 030b 01       		.byte	0x1
 5703 030c 3F       		.uleb128 0x3f
 5704 030d 19       		.uleb128 0x19
 5705 030e 03       		.uleb128 0x3
 5706 030f 0E       		.uleb128 0xe
 5707 0310 3A       		.uleb128 0x3a
 5708 0311 0B       		.uleb128 0xb
 5709 0312 3B       		.uleb128 0x3b
 5710 0313 05       		.uleb128 0x5
 5711 0314 27       		.uleb128 0x27
 5712 0315 19       		.uleb128 0x19
 5713 0316 11       		.uleb128 0x11
 5714 0317 01       		.uleb128 0x1
 5715 0318 12       		.uleb128 0x12
 5716 0319 06       		.uleb128 0x6
 5717 031a 40       		.uleb128 0x40
 5718 031b 18       		.uleb128 0x18
 5719 031c 9642     		.uleb128 0x2116
 5720 031e 19       		.uleb128 0x19
 5721 031f 01       		.uleb128 0x1
 5722 0320 13       		.uleb128 0x13
 5723 0321 00       		.byte	0
 5724 0322 00       		.byte	0
 5725 0323 37       		.uleb128 0x37
 5726 0324 34       		.uleb128 0x34
 5727 0325 00       		.byte	0
 5728 0326 03       		.uleb128 0x3
 5729 0327 08       		.uleb128 0x8
 5730 0328 3A       		.uleb128 0x3a
 5731 0329 0B       		.uleb128 0xb
 5732 032a 3B       		.uleb128 0x3b
 5733 032b 05       		.uleb128 0x5
 5734 032c 49       		.uleb128 0x49
 5735 032d 13       		.uleb128 0x13
 5736 032e 02       		.uleb128 0x2
 5737 032f 17       		.uleb128 0x17
 5738 0330 00       		.byte	0
 5739 0331 00       		.byte	0
 5740 0332 38       		.uleb128 0x38
 5741 0333 2E       		.uleb128 0x2e
 5742 0334 01       		.byte	0x1
 5743 0335 31       		.uleb128 0x31
 5744 0336 13       		.uleb128 0x13
 5745 0337 11       		.uleb128 0x11
ARM GAS  C:\Users\Pablo\AppData\Local\Temp\ccDGsedh.s 			page 159


 5746 0338 01       		.uleb128 0x1
 5747 0339 12       		.uleb128 0x12
 5748 033a 06       		.uleb128 0x6
 5749 033b 40       		.uleb128 0x40
 5750 033c 18       		.uleb128 0x18
 5751 033d 9642     		.uleb128 0x2116
 5752 033f 19       		.uleb128 0x19
 5753 0340 01       		.uleb128 0x1
 5754 0341 13       		.uleb128 0x13
 5755 0342 00       		.byte	0
 5756 0343 00       		.byte	0
 5757 0344 39       		.uleb128 0x39
 5758 0345 2E       		.uleb128 0x2e
 5759 0346 00       		.byte	0
 5760 0347 31       		.uleb128 0x31
 5761 0348 13       		.uleb128 0x13
 5762 0349 11       		.uleb128 0x11
 5763 034a 01       		.uleb128 0x1
 5764 034b 12       		.uleb128 0x12
 5765 034c 06       		.uleb128 0x6
 5766 034d 40       		.uleb128 0x40
 5767 034e 18       		.uleb128 0x18
 5768 034f 9742     		.uleb128 0x2117
 5769 0351 19       		.uleb128 0x19
 5770 0352 00       		.byte	0
 5771 0353 00       		.byte	0
 5772 0354 3A       		.uleb128 0x3a
 5773 0355 01       		.uleb128 0x1
 5774 0356 01       		.byte	0x1
 5775 0357 49       		.uleb128 0x49
 5776 0358 13       		.uleb128 0x13
 5777 0359 01       		.uleb128 0x1
 5778 035a 13       		.uleb128 0x13
 5779 035b 00       		.byte	0
 5780 035c 00       		.byte	0
 5781 035d 3B       		.uleb128 0x3b
 5782 035e 21       		.uleb128 0x21
 5783 035f 00       		.byte	0
 5784 0360 49       		.uleb128 0x49
 5785 0361 13       		.uleb128 0x13
 5786 0362 2F       		.uleb128 0x2f
 5787 0363 0B       		.uleb128 0xb
 5788 0364 00       		.byte	0
 5789 0365 00       		.byte	0
 5790 0366 3C       		.uleb128 0x3c
 5791 0367 34       		.uleb128 0x34
 5792 0368 00       		.byte	0
 5793 0369 03       		.uleb128 0x3
 5794 036a 0E       		.uleb128 0xe
 5795 036b 3A       		.uleb128 0x3a
 5796 036c 0B       		.uleb128 0xb
 5797 036d 3B       		.uleb128 0x3b
 5798 036e 0B       		.uleb128 0xb
 5799 036f 49       		.uleb128 0x49
 5800 0370 13       		.uleb128 0x13
 5801 0371 02       		.uleb128 0x2
 5802 0372 18       		.uleb128 0x18
ARM GAS  C:\Users\Pablo\AppData\Local\Temp\ccDGsedh.s 			page 160


 5803 0373 00       		.byte	0
 5804 0374 00       		.byte	0
 5805 0375 3D       		.uleb128 0x3d
 5806 0376 34       		.uleb128 0x34
 5807 0377 00       		.byte	0
 5808 0378 03       		.uleb128 0x3
 5809 0379 0E       		.uleb128 0xe
 5810 037a 3A       		.uleb128 0x3a
 5811 037b 0B       		.uleb128 0xb
 5812 037c 3B       		.uleb128 0x3b
 5813 037d 0B       		.uleb128 0xb
 5814 037e 49       		.uleb128 0x49
 5815 037f 13       		.uleb128 0x13
 5816 0380 3F       		.uleb128 0x3f
 5817 0381 19       		.uleb128 0x19
 5818 0382 02       		.uleb128 0x2
 5819 0383 18       		.uleb128 0x18
 5820 0384 00       		.byte	0
 5821 0385 00       		.byte	0
 5822 0386 3E       		.uleb128 0x3e
 5823 0387 26       		.uleb128 0x26
 5824 0388 00       		.byte	0
 5825 0389 49       		.uleb128 0x49
 5826 038a 13       		.uleb128 0x13
 5827 038b 00       		.byte	0
 5828 038c 00       		.byte	0
 5829 038d 3F       		.uleb128 0x3f
 5830 038e 2E       		.uleb128 0x2e
 5831 038f 00       		.byte	0
 5832 0390 3F       		.uleb128 0x3f
 5833 0391 19       		.uleb128 0x19
 5834 0392 03       		.uleb128 0x3
 5835 0393 0E       		.uleb128 0xe
 5836 0394 3A       		.uleb128 0x3a
 5837 0395 0B       		.uleb128 0xb
 5838 0396 3B       		.uleb128 0x3b
 5839 0397 0B       		.uleb128 0xb
 5840 0398 27       		.uleb128 0x27
 5841 0399 19       		.uleb128 0x19
 5842 039a 49       		.uleb128 0x49
 5843 039b 13       		.uleb128 0x13
 5844 039c 3C       		.uleb128 0x3c
 5845 039d 19       		.uleb128 0x19
 5846 039e 00       		.byte	0
 5847 039f 00       		.byte	0
 5848 03a0 40       		.uleb128 0x40
 5849 03a1 2E       		.uleb128 0x2e
 5850 03a2 01       		.byte	0x1
 5851 03a3 3F       		.uleb128 0x3f
 5852 03a4 19       		.uleb128 0x19
 5853 03a5 03       		.uleb128 0x3
 5854 03a6 0E       		.uleb128 0xe
 5855 03a7 3A       		.uleb128 0x3a
 5856 03a8 0B       		.uleb128 0xb
 5857 03a9 3B       		.uleb128 0x3b
 5858 03aa 0B       		.uleb128 0xb
 5859 03ab 27       		.uleb128 0x27
ARM GAS  C:\Users\Pablo\AppData\Local\Temp\ccDGsedh.s 			page 161


 5860 03ac 19       		.uleb128 0x19
 5861 03ad 3C       		.uleb128 0x3c
 5862 03ae 19       		.uleb128 0x19
 5863 03af 01       		.uleb128 0x1
 5864 03b0 13       		.uleb128 0x13
 5865 03b1 00       		.byte	0
 5866 03b2 00       		.byte	0
 5867 03b3 41       		.uleb128 0x41
 5868 03b4 05       		.uleb128 0x5
 5869 03b5 00       		.byte	0
 5870 03b6 49       		.uleb128 0x49
 5871 03b7 13       		.uleb128 0x13
 5872 03b8 00       		.byte	0
 5873 03b9 00       		.byte	0
 5874 03ba 42       		.uleb128 0x42
 5875 03bb 2E       		.uleb128 0x2e
 5876 03bc 01       		.byte	0x1
 5877 03bd 3F       		.uleb128 0x3f
 5878 03be 19       		.uleb128 0x19
 5879 03bf 03       		.uleb128 0x3
 5880 03c0 0E       		.uleb128 0xe
 5881 03c1 3A       		.uleb128 0x3a
 5882 03c2 0B       		.uleb128 0xb
 5883 03c3 3B       		.uleb128 0x3b
 5884 03c4 0B       		.uleb128 0xb
 5885 03c5 27       		.uleb128 0x27
 5886 03c6 19       		.uleb128 0x19
 5887 03c7 3C       		.uleb128 0x3c
 5888 03c8 19       		.uleb128 0x19
 5889 03c9 00       		.byte	0
 5890 03ca 00       		.byte	0
 5891 03cb 00       		.byte	0
 5892              		.section	.debug_loc,"",%progbits
 5893              	.Ldebug_loc0:
 5894              	.LLST0:
 5895 0000 00000000 		.4byte	.LVL0
 5896 0004 07000000 		.4byte	.LVL1-1
 5897 0008 0100     		.2byte	0x1
 5898 000a 50       		.byte	0x50
 5899 000b 07000000 		.4byte	.LVL1-1
 5900 000f 10000000 		.4byte	.LVL2
 5901 0013 0100     		.2byte	0x1
 5902 0015 54       		.byte	0x54
 5903 0016 10000000 		.4byte	.LVL2
 5904 001a 24000000 		.4byte	.LFE5
 5905 001e 0400     		.2byte	0x4
 5906 0020 F3       		.byte	0xf3
 5907 0021 01       		.uleb128 0x1
 5908 0022 50       		.byte	0x50
 5909 0023 9F       		.byte	0x9f
 5910 0024 00000000 		.4byte	0
 5911 0028 00000000 		.4byte	0
 5912              	.LLST1:
 5913 002c 08000000 		.4byte	.LVL1
 5914 0030 1B000000 		.4byte	.LVL3-1
 5915 0034 0100     		.2byte	0x1
 5916 0036 50       		.byte	0x50
ARM GAS  C:\Users\Pablo\AppData\Local\Temp\ccDGsedh.s 			page 162


 5917 0037 00000000 		.4byte	0
 5918 003b 00000000 		.4byte	0
 5919              	.LLST2:
 5920 003f 00000000 		.4byte	.LVL4
 5921 0043 07000000 		.4byte	.LVL5-1
 5922 0047 0100     		.2byte	0x1
 5923 0049 50       		.byte	0x50
 5924 004a 07000000 		.4byte	.LVL5-1
 5925 004e 12000000 		.4byte	.LVL6
 5926 0052 0100     		.2byte	0x1
 5927 0054 54       		.byte	0x54
 5928 0055 12000000 		.4byte	.LVL6
 5929 0059 2C000000 		.4byte	.LFE6
 5930 005d 0400     		.2byte	0x4
 5931 005f F3       		.byte	0xf3
 5932 0060 01       		.uleb128 0x1
 5933 0061 50       		.byte	0x50
 5934 0062 9F       		.byte	0x9f
 5935 0063 00000000 		.4byte	0
 5936 0067 00000000 		.4byte	0
 5937              	.LLST3:
 5938 006b 08000000 		.4byte	.LVL5
 5939 006f 1F000000 		.4byte	.LVL7-1
 5940 0073 0100     		.2byte	0x1
 5941 0075 50       		.byte	0x50
 5942 0076 00000000 		.4byte	0
 5943 007a 00000000 		.4byte	0
 5944              	.LLST4:
 5945 007e 06000000 		.4byte	.LVL8
 5946 0082 15000000 		.4byte	.LVL9-1
 5947 0086 0100     		.2byte	0x1
 5948 0088 50       		.byte	0x50
 5949 0089 00000000 		.4byte	0
 5950 008d 00000000 		.4byte	0
 5951              	.LLST5:
 5952 0091 06000000 		.4byte	.LVL10
 5953 0095 25000000 		.4byte	.LVL11-1
 5954 0099 0100     		.2byte	0x1
 5955 009b 50       		.byte	0x50
 5956 009c 00000000 		.4byte	0
 5957 00a0 00000000 		.4byte	0
 5958              	.LLST6:
 5959 00a4 00000000 		.4byte	.LVL12
 5960 00a8 04000000 		.4byte	.LVL13
 5961 00ac 0100     		.2byte	0x1
 5962 00ae 50       		.byte	0x50
 5963 00af 04000000 		.4byte	.LVL13
 5964 00b3 18000000 		.4byte	.LFE11
 5965 00b7 0400     		.2byte	0x4
 5966 00b9 F3       		.byte	0xf3
 5967 00ba 01       		.uleb128 0x1
 5968 00bb 50       		.byte	0x50
 5969 00bc 9F       		.byte	0x9f
 5970 00bd 00000000 		.4byte	0
 5971 00c1 00000000 		.4byte	0
 5972              	.LLST7:
 5973 00c5 00000000 		.4byte	.LVL14
ARM GAS  C:\Users\Pablo\AppData\Local\Temp\ccDGsedh.s 			page 163


 5974 00c9 09000000 		.4byte	.LVL15-1
 5975 00cd 0100     		.2byte	0x1
 5976 00cf 50       		.byte	0x50
 5977 00d0 09000000 		.4byte	.LVL15-1
 5978 00d4 14000000 		.4byte	.LVL17
 5979 00d8 0100     		.2byte	0x1
 5980 00da 54       		.byte	0x54
 5981 00db 14000000 		.4byte	.LVL17
 5982 00df 2C000000 		.4byte	.LFE12
 5983 00e3 0400     		.2byte	0x4
 5984 00e5 F3       		.byte	0xf3
 5985 00e6 01       		.uleb128 0x1
 5986 00e7 50       		.byte	0x50
 5987 00e8 9F       		.byte	0x9f
 5988 00e9 00000000 		.4byte	0
 5989 00ed 00000000 		.4byte	0
 5990              	.LLST8:
 5991 00f1 00000000 		.4byte	.LVL14
 5992 00f5 09000000 		.4byte	.LVL15-1
 5993 00f9 0100     		.2byte	0x1
 5994 00fb 51       		.byte	0x51
 5995 00fc 09000000 		.4byte	.LVL15-1
 5996 0100 1E000000 		.4byte	.LVL19
 5997 0104 0100     		.2byte	0x1
 5998 0106 55       		.byte	0x55
 5999 0107 1E000000 		.4byte	.LVL19
 6000 010b 2C000000 		.4byte	.LFE12
 6001 010f 0400     		.2byte	0x4
 6002 0111 F3       		.byte	0xf3
 6003 0112 01       		.uleb128 0x1
 6004 0113 51       		.byte	0x51
 6005 0114 9F       		.byte	0x9f
 6006 0115 00000000 		.4byte	0
 6007 0119 00000000 		.4byte	0
 6008              	.LLST9:
 6009 011d 0E000000 		.4byte	.LVL16
 6010 0121 1E000000 		.4byte	.LVL19
 6011 0125 0100     		.2byte	0x1
 6012 0127 55       		.byte	0x55
 6013 0128 1E000000 		.4byte	.LVL19
 6014 012c 26000000 		.4byte	.LVL21
 6015 0130 0400     		.2byte	0x4
 6016 0132 F3       		.byte	0xf3
 6017 0133 01       		.uleb128 0x1
 6018 0134 51       		.byte	0x51
 6019 0135 9F       		.byte	0x9f
 6020 0136 00000000 		.4byte	0
 6021 013a 00000000 		.4byte	0
 6022              	.LLST10:
 6023 013e 0E000000 		.4byte	.LVL16
 6024 0142 14000000 		.4byte	.LVL17
 6025 0146 0100     		.2byte	0x1
 6026 0148 54       		.byte	0x54
 6027 0149 14000000 		.4byte	.LVL17
 6028 014d 26000000 		.4byte	.LVL21
 6029 0151 0400     		.2byte	0x4
 6030 0153 F3       		.byte	0xf3
ARM GAS  C:\Users\Pablo\AppData\Local\Temp\ccDGsedh.s 			page 164


 6031 0154 01       		.uleb128 0x1
 6032 0155 50       		.byte	0x50
 6033 0156 9F       		.byte	0x9f
 6034 0157 00000000 		.4byte	0
 6035 015b 00000000 		.4byte	0
 6036              	.LLST11:
 6037 015f 1C000000 		.4byte	.LVL18
 6038 0163 24000000 		.4byte	.LVL20
 6039 0167 0100     		.2byte	0x1
 6040 0169 51       		.byte	0x51
 6041 016a 24000000 		.4byte	.LVL20
 6042 016e 26000000 		.4byte	.LVL21
 6043 0172 0100     		.2byte	0x1
 6044 0174 54       		.byte	0x54
 6045 0175 00000000 		.4byte	0
 6046 0179 00000000 		.4byte	0
 6047              	.LLST12:
 6048 017d 00000000 		.4byte	.LVL22
 6049 0181 04000000 		.4byte	.LVL23
 6050 0185 0100     		.2byte	0x1
 6051 0187 50       		.byte	0x50
 6052 0188 04000000 		.4byte	.LVL23
 6053 018c 14000000 		.4byte	.LFE13
 6054 0190 0400     		.2byte	0x4
 6055 0192 F3       		.byte	0xf3
 6056 0193 01       		.uleb128 0x1
 6057 0194 50       		.byte	0x50
 6058 0195 9F       		.byte	0x9f
 6059 0196 00000000 		.4byte	0
 6060 019a 00000000 		.4byte	0
 6061              	.LLST13:
 6062 019e 00000000 		.4byte	.LVL24
 6063 01a2 09000000 		.4byte	.LVL25-1
 6064 01a6 0100     		.2byte	0x1
 6065 01a8 50       		.byte	0x50
 6066 01a9 09000000 		.4byte	.LVL25-1
 6067 01ad 12000000 		.4byte	.LVL26
 6068 01b1 0100     		.2byte	0x1
 6069 01b3 54       		.byte	0x54
 6070 01b4 12000000 		.4byte	.LVL26
 6071 01b8 2C000000 		.4byte	.LFE14
 6072 01bc 0400     		.2byte	0x4
 6073 01be F3       		.byte	0xf3
 6074 01bf 01       		.uleb128 0x1
 6075 01c0 50       		.byte	0x50
 6076 01c1 9F       		.byte	0x9f
 6077 01c2 00000000 		.4byte	0
 6078 01c6 00000000 		.4byte	0
 6079              	.LLST14:
 6080 01ca 00000000 		.4byte	.LVL24
 6081 01ce 09000000 		.4byte	.LVL25-1
 6082 01d2 0100     		.2byte	0x1
 6083 01d4 51       		.byte	0x51
 6084 01d5 09000000 		.4byte	.LVL25-1
 6085 01d9 1E000000 		.4byte	.LVL28
 6086 01dd 0100     		.2byte	0x1
 6087 01df 55       		.byte	0x55
ARM GAS  C:\Users\Pablo\AppData\Local\Temp\ccDGsedh.s 			page 165


 6088 01e0 1E000000 		.4byte	.LVL28
 6089 01e4 2C000000 		.4byte	.LFE14
 6090 01e8 0400     		.2byte	0x4
 6091 01ea F3       		.byte	0xf3
 6092 01eb 01       		.uleb128 0x1
 6093 01ec 51       		.byte	0x51
 6094 01ed 9F       		.byte	0x9f
 6095 01ee 00000000 		.4byte	0
 6096 01f2 00000000 		.4byte	0
 6097              	.LLST15:
 6098 01f6 1C000000 		.4byte	.LVL27
 6099 01fa 22000000 		.4byte	.LVL29
 6100 01fe 0100     		.2byte	0x1
 6101 0200 52       		.byte	0x52
 6102 0201 22000000 		.4byte	.LVL29
 6103 0205 24000000 		.4byte	.LVL30
 6104 0209 0100     		.2byte	0x1
 6105 020b 54       		.byte	0x54
 6106 020c 00000000 		.4byte	0
 6107 0210 00000000 		.4byte	0
 6108              	.LLST16:
 6109 0214 00000000 		.4byte	.LVL31
 6110 0218 04000000 		.4byte	.LVL32
 6111 021c 0100     		.2byte	0x1
 6112 021e 50       		.byte	0x50
 6113 021f 04000000 		.4byte	.LVL32
 6114 0223 18000000 		.4byte	.LFE15
 6115 0227 0400     		.2byte	0x4
 6116 0229 F3       		.byte	0xf3
 6117 022a 01       		.uleb128 0x1
 6118 022b 50       		.byte	0x50
 6119 022c 9F       		.byte	0x9f
 6120 022d 00000000 		.4byte	0
 6121 0231 00000000 		.4byte	0
 6122              	.LLST17:
 6123 0235 00000000 		.4byte	.LVL33
 6124 0239 07000000 		.4byte	.LVL34-1
 6125 023d 0100     		.2byte	0x1
 6126 023f 50       		.byte	0x50
 6127 0240 07000000 		.4byte	.LVL34-1
 6128 0244 2E000000 		.4byte	.LVL41
 6129 0248 0100     		.2byte	0x1
 6130 024a 54       		.byte	0x54
 6131 024b 2E000000 		.4byte	.LVL41
 6132 024f 34000000 		.4byte	.LFE16
 6133 0253 0400     		.2byte	0x4
 6134 0255 F3       		.byte	0xf3
 6135 0256 01       		.uleb128 0x1
 6136 0257 50       		.byte	0x50
 6137 0258 9F       		.byte	0x9f
 6138 0259 00000000 		.4byte	0
 6139 025d 00000000 		.4byte	0
 6140              	.LLST18:
 6141 0261 14000000 		.4byte	.LVL35
 6142 0265 1A000000 		.4byte	.LVL36
 6143 0269 0200     		.2byte	0x2
 6144 026b 30       		.byte	0x30
ARM GAS  C:\Users\Pablo\AppData\Local\Temp\ccDGsedh.s 			page 166


 6145 026c 9F       		.byte	0x9f
 6146 026d 00000000 		.4byte	0
 6147 0271 00000000 		.4byte	0
 6148              	.LLST19:
 6149 0275 1E000000 		.4byte	.LVL37
 6150 0279 24000000 		.4byte	.LVL38
 6151 027d 0200     		.2byte	0x2
 6152 027f 31       		.byte	0x31
 6153 0280 9F       		.byte	0x9f
 6154 0281 00000000 		.4byte	0
 6155 0285 00000000 		.4byte	0
 6156              	.LLST20:
 6157 0289 28000000 		.4byte	.LVL39
 6158 028d 2E000000 		.4byte	.LVL40
 6159 0291 0200     		.2byte	0x2
 6160 0293 32       		.byte	0x32
 6161 0294 9F       		.byte	0x9f
 6162 0295 00000000 		.4byte	0
 6163 0299 00000000 		.4byte	0
 6164              	.LLST21:
 6165 029d 0C000000 		.4byte	.LVL43
 6166 02a1 12000000 		.4byte	.LVL44
 6167 02a5 0200     		.2byte	0x2
 6168 02a7 30       		.byte	0x30
 6169 02a8 9F       		.byte	0x9f
 6170 02a9 00000000 		.4byte	0
 6171 02ad 00000000 		.4byte	0
 6172              	.LLST22:
 6173 02b1 16000000 		.4byte	.LVL45
 6174 02b5 1C000000 		.4byte	.LVL46
 6175 02b9 0200     		.2byte	0x2
 6176 02bb 31       		.byte	0x31
 6177 02bc 9F       		.byte	0x9f
 6178 02bd 00000000 		.4byte	0
 6179 02c1 00000000 		.4byte	0
 6180              	.LLST23:
 6181 02c5 20000000 		.4byte	.LVL47
 6182 02c9 26000000 		.4byte	.LVL48
 6183 02cd 0200     		.2byte	0x2
 6184 02cf 32       		.byte	0x32
 6185 02d0 9F       		.byte	0x9f
 6186 02d1 00000000 		.4byte	0
 6187 02d5 00000000 		.4byte	0
 6188              	.LLST24:
 6189 02d9 00000000 		.4byte	.LVL49
 6190 02dd 22000000 		.4byte	.LVL56
 6191 02e1 0100     		.2byte	0x1
 6192 02e3 50       		.byte	0x50
 6193 02e4 22000000 		.4byte	.LVL56
 6194 02e8 34000000 		.4byte	.LFE18
 6195 02ec 0400     		.2byte	0x4
 6196 02ee F3       		.byte	0xf3
 6197 02ef 01       		.uleb128 0x1
 6198 02f0 50       		.byte	0x50
 6199 02f1 9F       		.byte	0x9f
 6200 02f2 00000000 		.4byte	0
 6201 02f6 00000000 		.4byte	0
ARM GAS  C:\Users\Pablo\AppData\Local\Temp\ccDGsedh.s 			page 167


 6202              	.LLST25:
 6203 02fa 1E000000 		.4byte	.LVL54
 6204 02fe 20000000 		.4byte	.LVL55
 6205 0302 0100     		.2byte	0x1
 6206 0304 51       		.byte	0x51
 6207 0305 20000000 		.4byte	.LVL55
 6208 0309 22000000 		.4byte	.LVL56
 6209 030d 0100     		.2byte	0x1
 6210 030f 52       		.byte	0x52
 6211 0310 22000000 		.4byte	.LVL56
 6212 0314 24000000 		.4byte	.LVL57
 6213 0318 0100     		.2byte	0x1
 6214 031a 50       		.byte	0x50
 6215 031b 00000000 		.4byte	0
 6216 031f 00000000 		.4byte	0
 6217              	.LLST26:
 6218 0323 0A000000 		.4byte	.LVL52
 6219 0327 0C000000 		.4byte	.LVL53
 6220 032b 1100     		.2byte	0x11
 6221 032d 71       		.byte	0x71
 6222 032e 00       		.sleb128 0
 6223 032f 39       		.byte	0x39
 6224 0330 25       		.byte	0x25
 6225 0331 74       		.byte	0x74
 6226 0332 00       		.sleb128 0
 6227 0333 31       		.byte	0x31
 6228 0334 25       		.byte	0x25
 6229 0335 21       		.byte	0x21
 6230 0336 72       		.byte	0x72
 6231 0337 00       		.sleb128 0
 6232 0338 41       		.byte	0x41
 6233 0339 25       		.byte	0x25
 6234 033a 21       		.byte	0x21
 6235 033b 31       		.byte	0x31
 6236 033c 1A       		.byte	0x1a
 6237 033d 9F       		.byte	0x9f
 6238 033e 00000000 		.4byte	0
 6239 0342 00000000 		.4byte	0
 6240              	.LLST27:
 6241 0346 00000000 		.4byte	.LVL58
 6242 034a 14000000 		.4byte	.LVL61
 6243 034e 0100     		.2byte	0x1
 6244 0350 50       		.byte	0x50
 6245 0351 14000000 		.4byte	.LVL61
 6246 0355 28000000 		.4byte	.LFE21
 6247 0359 0400     		.2byte	0x4
 6248 035b F3       		.byte	0xf3
 6249 035c 01       		.uleb128 0x1
 6250 035d 50       		.byte	0x50
 6251 035e 9F       		.byte	0x9f
 6252 035f 00000000 		.4byte	0
 6253 0363 00000000 		.4byte	0
 6254              	.LLST28:
 6255 0367 0E000000 		.4byte	.LVL59
 6256 036b 10000000 		.4byte	.LVL60
 6257 036f 0100     		.2byte	0x1
 6258 0371 51       		.byte	0x51
ARM GAS  C:\Users\Pablo\AppData\Local\Temp\ccDGsedh.s 			page 168


 6259 0372 10000000 		.4byte	.LVL60
 6260 0376 18000000 		.4byte	.LVL62
 6261 037a 0100     		.2byte	0x1
 6262 037c 52       		.byte	0x52
 6263 037d 18000000 		.4byte	.LVL62
 6264 0381 1A000000 		.4byte	.LVL63
 6265 0385 0100     		.2byte	0x1
 6266 0387 50       		.byte	0x50
 6267 0388 00000000 		.4byte	0
 6268 038c 00000000 		.4byte	0
 6269              	.LLST29:
 6270 0390 00000000 		.4byte	.LVL64
 6271 0394 04000000 		.4byte	.LVL65
 6272 0398 0100     		.2byte	0x1
 6273 039a 50       		.byte	0x50
 6274 039b 04000000 		.4byte	.LVL65
 6275 039f 10000000 		.4byte	.LFE23
 6276 03a3 0400     		.2byte	0x4
 6277 03a5 F3       		.byte	0xf3
 6278 03a6 01       		.uleb128 0x1
 6279 03a7 50       		.byte	0x50
 6280 03a8 9F       		.byte	0x9f
 6281 03a9 00000000 		.4byte	0
 6282 03ad 00000000 		.4byte	0
 6283              	.LLST30:
 6284 03b1 00000000 		.4byte	.LVL66
 6285 03b5 10000000 		.4byte	.LVL67
 6286 03b9 0100     		.2byte	0x1
 6287 03bb 50       		.byte	0x50
 6288 03bc 10000000 		.4byte	.LVL67
 6289 03c0 12000000 		.4byte	.LVL68
 6290 03c4 0400     		.2byte	0x4
 6291 03c6 F3       		.byte	0xf3
 6292 03c7 01       		.uleb128 0x1
 6293 03c8 50       		.byte	0x50
 6294 03c9 9F       		.byte	0x9f
 6295 03ca 12000000 		.4byte	.LVL68
 6296 03ce 16000000 		.4byte	.LVL69
 6297 03d2 0100     		.2byte	0x1
 6298 03d4 50       		.byte	0x50
 6299 03d5 16000000 		.4byte	.LVL69
 6300 03d9 1A000000 		.4byte	.LVL71
 6301 03dd 0400     		.2byte	0x4
 6302 03df F3       		.byte	0xf3
 6303 03e0 01       		.uleb128 0x1
 6304 03e1 50       		.byte	0x50
 6305 03e2 9F       		.byte	0x9f
 6306 03e3 1A000000 		.4byte	.LVL71
 6307 03e7 1E000000 		.4byte	.LVL72
 6308 03eb 0100     		.2byte	0x1
 6309 03ed 50       		.byte	0x50
 6310 03ee 1E000000 		.4byte	.LVL72
 6311 03f2 22000000 		.4byte	.LVL74
 6312 03f6 0400     		.2byte	0x4
 6313 03f8 F3       		.byte	0xf3
 6314 03f9 01       		.uleb128 0x1
 6315 03fa 50       		.byte	0x50
ARM GAS  C:\Users\Pablo\AppData\Local\Temp\ccDGsedh.s 			page 169


 6316 03fb 9F       		.byte	0x9f
 6317 03fc 22000000 		.4byte	.LVL74
 6318 0400 24000000 		.4byte	.LVL75
 6319 0404 0100     		.2byte	0x1
 6320 0406 50       		.byte	0x50
 6321 0407 24000000 		.4byte	.LVL75
 6322 040b 30000000 		.4byte	.LFE24
 6323 040f 0400     		.2byte	0x4
 6324 0411 F3       		.byte	0xf3
 6325 0412 01       		.uleb128 0x1
 6326 0413 50       		.byte	0x50
 6327 0414 9F       		.byte	0x9f
 6328 0415 00000000 		.4byte	0
 6329 0419 00000000 		.4byte	0
 6330              	.LLST31:
 6331 041d 00000000 		.4byte	.LVL66
 6332 0421 10000000 		.4byte	.LVL67
 6333 0425 0200     		.2byte	0x2
 6334 0427 30       		.byte	0x30
 6335 0428 9F       		.byte	0x9f
 6336 0429 10000000 		.4byte	.LVL67
 6337 042d 12000000 		.4byte	.LVL68
 6338 0431 0100     		.2byte	0x1
 6339 0433 50       		.byte	0x50
 6340 0434 12000000 		.4byte	.LVL68
 6341 0438 18000000 		.4byte	.LVL70
 6342 043c 0200     		.2byte	0x2
 6343 043e 30       		.byte	0x30
 6344 043f 9F       		.byte	0x9f
 6345 0440 18000000 		.4byte	.LVL70
 6346 0444 1A000000 		.4byte	.LVL71
 6347 0448 0100     		.2byte	0x1
 6348 044a 50       		.byte	0x50
 6349 044b 1A000000 		.4byte	.LVL71
 6350 044f 20000000 		.4byte	.LVL73
 6351 0453 0200     		.2byte	0x2
 6352 0455 30       		.byte	0x30
 6353 0456 9F       		.byte	0x9f
 6354 0457 20000000 		.4byte	.LVL73
 6355 045b 22000000 		.4byte	.LVL74
 6356 045f 0100     		.2byte	0x1
 6357 0461 50       		.byte	0x50
 6358 0462 22000000 		.4byte	.LVL74
 6359 0466 24000000 		.4byte	.LVL75
 6360 046a 0200     		.2byte	0x2
 6361 046c 30       		.byte	0x30
 6362 046d 9F       		.byte	0x9f
 6363 046e 24000000 		.4byte	.LVL75
 6364 0472 30000000 		.4byte	.LFE24
 6365 0476 0100     		.2byte	0x1
 6366 0478 50       		.byte	0x50
 6367 0479 00000000 		.4byte	0
 6368 047d 00000000 		.4byte	0
 6369              	.LLST32:
 6370 0481 20000000 		.4byte	.LVL77
 6371 0485 9E000000 		.4byte	.LVL87
 6372 0489 0200     		.2byte	0x2
ARM GAS  C:\Users\Pablo\AppData\Local\Temp\ccDGsedh.s 			page 170


 6373 048b 7D       		.byte	0x7d
 6374 048c 04       		.sleb128 4
 6375 048d 00000000 		.4byte	0
 6376 0491 00000000 		.4byte	0
 6377              	.LLST33:
 6378 0495 6C000000 		.4byte	.LVL84
 6379 0499 9E000000 		.4byte	.LVL87
 6380 049d 0100     		.2byte	0x1
 6381 049f 55       		.byte	0x55
 6382 04a0 00000000 		.4byte	0
 6383 04a4 00000000 		.4byte	0
 6384              	.LLST34:
 6385 04a8 20000000 		.4byte	.LVL77
 6386 04ac 9E000000 		.4byte	.LVL87
 6387 04b0 0200     		.2byte	0x2
 6388 04b2 30       		.byte	0x30
 6389 04b3 9F       		.byte	0x9f
 6390 04b4 00000000 		.4byte	0
 6391 04b8 00000000 		.4byte	0
 6392              	.LLST35:
 6393 04bc 30000000 		.4byte	.LVL78
 6394 04c0 64000000 		.4byte	.LVL82
 6395 04c4 0200     		.2byte	0x2
 6396 04c6 31       		.byte	0x31
 6397 04c7 9F       		.byte	0x9f
 6398 04c8 00000000 		.4byte	0
 6399 04cc 00000000 		.4byte	0
 6400              	.LLST36:
 6401 04d0 3C000000 		.4byte	.LVL79
 6402 04d4 64000000 		.4byte	.LVL82
 6403 04d8 0200     		.2byte	0x2
 6404 04da 32       		.byte	0x32
 6405 04db 9F       		.byte	0x9f
 6406 04dc 00000000 		.4byte	0
 6407 04e0 00000000 		.4byte	0
 6408              	.LLST37:
 6409 04e4 50000000 		.4byte	.LVL80
 6410 04e8 64000000 		.4byte	.LVL82
 6411 04ec 0200     		.2byte	0x2
 6412 04ee 30       		.byte	0x30
 6413 04ef 9F       		.byte	0x9f
 6414 04f0 00000000 		.4byte	0
 6415 04f4 00000000 		.4byte	0
 6416              	.LLST38:
 6417 04f8 00000000 		.4byte	.LVL88
 6418 04fc 07000000 		.4byte	.LVL89-1
 6419 0500 0100     		.2byte	0x1
 6420 0502 50       		.byte	0x50
 6421 0503 07000000 		.4byte	.LVL89-1
 6422 0507 16000000 		.4byte	.LVL91
 6423 050b 0100     		.2byte	0x1
 6424 050d 54       		.byte	0x54
 6425 050e 16000000 		.4byte	.LVL91
 6426 0512 1E000000 		.4byte	.LVL92
 6427 0516 0900     		.2byte	0x9
 6428 0518 74       		.byte	0x74
 6429 0519 00       		.sleb128 0
ARM GAS  C:\Users\Pablo\AppData\Local\Temp\ccDGsedh.s 			page 171


 6430 051a 0C       		.byte	0xc
 6431 051b 04040400 		.4byte	0x40404
 6432 051f 1A       		.byte	0x1a
 6433 0520 9F       		.byte	0x9f
 6434 0521 1E000000 		.4byte	.LVL92
 6435 0525 24000000 		.4byte	.LVL93
 6436 0529 0100     		.2byte	0x1
 6437 052b 54       		.byte	0x54
 6438 052c 24000000 		.4byte	.LVL93
 6439 0530 2E000000 		.4byte	.LVL95
 6440 0534 0A00     		.2byte	0xa
 6441 0536 F3       		.byte	0xf3
 6442 0537 01       		.uleb128 0x1
 6443 0538 50       		.byte	0x50
 6444 0539 0C       		.byte	0xc
 6445 053a 04040400 		.4byte	0x40404
 6446 053e 1A       		.byte	0x1a
 6447 053f 9F       		.byte	0x9f
 6448 0540 36000000 		.4byte	.LVL98
 6449 0544 50000000 		.4byte	.LFE26
 6450 0548 0100     		.2byte	0x1
 6451 054a 54       		.byte	0x54
 6452 054b 00000000 		.4byte	0
 6453 054f 00000000 		.4byte	0
 6454              	.LLST39:
 6455 0553 0C000000 		.4byte	.LVL90
 6456 0557 16000000 		.4byte	.LVL91
 6457 055b 0100     		.2byte	0x1
 6458 055d 50       		.byte	0x50
 6459 055e 16000000 		.4byte	.LVL91
 6460 0562 34000000 		.4byte	.LVL97
 6461 0566 0100     		.2byte	0x1
 6462 0568 55       		.byte	0x55
 6463 0569 36000000 		.4byte	.LVL98
 6464 056d 39000000 		.4byte	.LVL99-1
 6465 0571 0100     		.2byte	0x1
 6466 0573 50       		.byte	0x50
 6467 0574 39000000 		.4byte	.LVL99-1
 6468 0578 50000000 		.4byte	.LFE26
 6469 057c 0100     		.2byte	0x1
 6470 057e 55       		.byte	0x55
 6471 057f 00000000 		.4byte	0
 6472 0583 00000000 		.4byte	0
 6473              	.LLST40:
 6474 0587 16000000 		.4byte	.LVL91
 6475 058b 2A000000 		.4byte	.LVL94
 6476 058f 0100     		.2byte	0x1
 6477 0591 53       		.byte	0x53
 6478 0592 2A000000 		.4byte	.LVL94
 6479 0596 2E000000 		.4byte	.LVL95
 6480 059a 0200     		.2byte	0x2
 6481 059c 31       		.byte	0x31
 6482 059d 9F       		.byte	0x9f
 6483 059e 36000000 		.4byte	.LVL98
 6484 05a2 50000000 		.4byte	.LFE26
 6485 05a6 0200     		.2byte	0x2
 6486 05a8 31       		.byte	0x31
ARM GAS  C:\Users\Pablo\AppData\Local\Temp\ccDGsedh.s 			page 172


 6487 05a9 9F       		.byte	0x9f
 6488 05aa 00000000 		.4byte	0
 6489 05ae 00000000 		.4byte	0
 6490              	.LLST41:
 6491 05b2 00000000 		.4byte	.LVL100
 6492 05b6 08000000 		.4byte	.LVL101
 6493 05ba 0100     		.2byte	0x1
 6494 05bc 50       		.byte	0x50
 6495 05bd 08000000 		.4byte	.LVL101
 6496 05c1 18000000 		.4byte	.LFE27
 6497 05c5 0400     		.2byte	0x4
 6498 05c7 F3       		.byte	0xf3
 6499 05c8 01       		.uleb128 0x1
 6500 05c9 50       		.byte	0x50
 6501 05ca 9F       		.byte	0x9f
 6502 05cb 00000000 		.4byte	0
 6503 05cf 00000000 		.4byte	0
 6504              	.LLST42:
 6505 05d3 00000000 		.4byte	.LVL102
 6506 05d7 08000000 		.4byte	.LVL103
 6507 05db 0100     		.2byte	0x1
 6508 05dd 50       		.byte	0x50
 6509 05de 08000000 		.4byte	.LVL103
 6510 05e2 2C000000 		.4byte	.LFE30
 6511 05e6 0400     		.2byte	0x4
 6512 05e8 F3       		.byte	0xf3
 6513 05e9 01       		.uleb128 0x1
 6514 05ea 50       		.byte	0x50
 6515 05eb 9F       		.byte	0x9f
 6516 05ec 00000000 		.4byte	0
 6517 05f0 00000000 		.4byte	0
 6518              	.LLST43:
 6519 05f4 00000000 		.4byte	.LVL104
 6520 05f8 08000000 		.4byte	.LVL105
 6521 05fc 0100     		.2byte	0x1
 6522 05fe 50       		.byte	0x50
 6523 05ff 08000000 		.4byte	.LVL105
 6524 0603 14000000 		.4byte	.LFE34
 6525 0607 0100     		.2byte	0x1
 6526 0609 51       		.byte	0x51
 6527 060a 00000000 		.4byte	0
 6528 060e 00000000 		.4byte	0
 6529              	.LLST44:
 6530 0612 0A000000 		.4byte	.LVL106
 6531 0616 0C000000 		.4byte	.LVL107
 6532 061a 0500     		.2byte	0x5
 6533 061c 70       		.byte	0x70
 6534 061d 00       		.sleb128 0
 6535 061e 49       		.byte	0x49
 6536 061f 1A       		.byte	0x1a
 6537 0620 9F       		.byte	0x9f
 6538 0621 0C000000 		.4byte	.LVL107
 6539 0625 14000000 		.4byte	.LFE34
 6540 0629 0100     		.2byte	0x1
 6541 062b 50       		.byte	0x50
 6542 062c 00000000 		.4byte	0
 6543 0630 00000000 		.4byte	0
ARM GAS  C:\Users\Pablo\AppData\Local\Temp\ccDGsedh.s 			page 173


 6544              	.LLST45:
 6545 0634 00000000 		.4byte	.LVL110
 6546 0638 0A000000 		.4byte	.LVL111
 6547 063c 0100     		.2byte	0x1
 6548 063e 50       		.byte	0x50
 6549 063f 0A000000 		.4byte	.LVL111
 6550 0643 0E000000 		.4byte	.LFE37
 6551 0647 0400     		.2byte	0x4
 6552 0649 F3       		.byte	0xf3
 6553 064a 01       		.uleb128 0x1
 6554 064b 50       		.byte	0x50
 6555 064c 9F       		.byte	0x9f
 6556 064d 00000000 		.4byte	0
 6557 0651 00000000 		.4byte	0
 6558              	.LLST46:
 6559 0655 00000000 		.4byte	.LVL112
 6560 0659 06000000 		.4byte	.LVL113
 6561 065d 0100     		.2byte	0x1
 6562 065f 50       		.byte	0x50
 6563 0660 06000000 		.4byte	.LVL113
 6564 0664 0C000000 		.4byte	.LFE38
 6565 0668 0400     		.2byte	0x4
 6566 066a F3       		.byte	0xf3
 6567 066b 01       		.uleb128 0x1
 6568 066c 50       		.byte	0x50
 6569 066d 9F       		.byte	0x9f
 6570 066e 00000000 		.4byte	0
 6571 0672 00000000 		.4byte	0
 6572              	.LLST47:
 6573 0676 00000000 		.4byte	.LVL114
 6574 067a 08000000 		.4byte	.LVL115
 6575 067e 0100     		.2byte	0x1
 6576 0680 50       		.byte	0x50
 6577 0681 08000000 		.4byte	.LVL115
 6578 0685 10000000 		.4byte	.LFE39
 6579 0689 0400     		.2byte	0x4
 6580 068b F3       		.byte	0xf3
 6581 068c 01       		.uleb128 0x1
 6582 068d 50       		.byte	0x50
 6583 068e 9F       		.byte	0x9f
 6584 068f 00000000 		.4byte	0
 6585 0693 00000000 		.4byte	0
 6586              	.LLST48:
 6587 0697 00000000 		.4byte	.LVL116
 6588 069b 04000000 		.4byte	.LVL117
 6589 069f 0100     		.2byte	0x1
 6590 06a1 50       		.byte	0x50
 6591 06a2 04000000 		.4byte	.LVL117
 6592 06a6 10000000 		.4byte	.LFE40
 6593 06aa 0400     		.2byte	0x4
 6594 06ac F3       		.byte	0xf3
 6595 06ad 01       		.uleb128 0x1
 6596 06ae 50       		.byte	0x50
 6597 06af 9F       		.byte	0x9f
 6598 06b0 00000000 		.4byte	0
 6599 06b4 00000000 		.4byte	0
 6600              	.LLST49:
ARM GAS  C:\Users\Pablo\AppData\Local\Temp\ccDGsedh.s 			page 174


 6601 06b8 00000000 		.4byte	.LVL118
 6602 06bc 09000000 		.4byte	.LVL120-1
 6603 06c0 0100     		.2byte	0x1
 6604 06c2 50       		.byte	0x50
 6605 06c3 09000000 		.4byte	.LVL120-1
 6606 06c7 34000000 		.4byte	.LFE41
 6607 06cb 0400     		.2byte	0x4
 6608 06cd F3       		.byte	0xf3
 6609 06ce 01       		.uleb128 0x1
 6610 06cf 50       		.byte	0x50
 6611 06d0 9F       		.byte	0x9f
 6612 06d1 00000000 		.4byte	0
 6613 06d5 00000000 		.4byte	0
 6614              	.LLST50:
 6615 06d9 00000000 		.4byte	.LVL118
 6616 06dd 09000000 		.4byte	.LVL120-1
 6617 06e1 0100     		.2byte	0x1
 6618 06e3 51       		.byte	0x51
 6619 06e4 09000000 		.4byte	.LVL120-1
 6620 06e8 34000000 		.4byte	.LFE41
 6621 06ec 0400     		.2byte	0x4
 6622 06ee F3       		.byte	0xf3
 6623 06ef 01       		.uleb128 0x1
 6624 06f0 51       		.byte	0x51
 6625 06f1 9F       		.byte	0x9f
 6626 06f2 00000000 		.4byte	0
 6627 06f6 00000000 		.4byte	0
 6628              	.LLST51:
 6629 06fa 0A000000 		.4byte	.LVL120
 6630 06fe 2B000000 		.4byte	.LVL125-1
 6631 0702 0100     		.2byte	0x1
 6632 0704 50       		.byte	0x50
 6633 0705 00000000 		.4byte	0
 6634 0709 00000000 		.4byte	0
 6635              	.LLST52:
 6636 070d 04000000 		.4byte	.LVL119
 6637 0711 09000000 		.4byte	.LVL120-1
 6638 0715 0C00     		.2byte	0xc
 6639 0717 70       		.byte	0x70
 6640 0718 00       		.sleb128 0
 6641 0719 33       		.byte	0x33
 6642 071a 1A       		.byte	0x1a
 6643 071b 08       		.byte	0x8
 6644 071c FF       		.byte	0xff
 6645 071d 1A       		.byte	0x1a
 6646 071e 33       		.byte	0x33
 6647 071f 24       		.byte	0x24
 6648 0720 23       		.byte	0x23
 6649 0721 06       		.uleb128 0x6
 6650 0722 9F       		.byte	0x9f
 6651 0723 09000000 		.4byte	.LVL120-1
 6652 0727 16000000 		.4byte	.LVL121
 6653 072b 0C00     		.2byte	0xc
 6654 072d 74       		.byte	0x74
 6655 072e 00       		.sleb128 0
 6656 072f 33       		.byte	0x33
 6657 0730 1A       		.byte	0x1a
ARM GAS  C:\Users\Pablo\AppData\Local\Temp\ccDGsedh.s 			page 175


 6658 0731 08       		.byte	0x8
 6659 0732 FF       		.byte	0xff
 6660 0733 1A       		.byte	0x1a
 6661 0734 33       		.byte	0x33
 6662 0735 24       		.byte	0x24
 6663 0736 23       		.byte	0x23
 6664 0737 06       		.uleb128 0x6
 6665 0738 9F       		.byte	0x9f
 6666 0739 00000000 		.4byte	0
 6667 073d 00000000 		.4byte	0
 6668              	.LLST53:
 6669 0741 1A000000 		.4byte	.LVL122
 6670 0745 26000000 		.4byte	.LVL124
 6671 0749 0100     		.2byte	0x1
 6672 074b 51       		.byte	0x51
 6673 074c 26000000 		.4byte	.LVL124
 6674 0750 2C000000 		.4byte	.LVL126
 6675 0754 0100     		.2byte	0x1
 6676 0756 54       		.byte	0x54
 6677 0757 00000000 		.4byte	0
 6678 075b 00000000 		.4byte	0
 6679              	.LLST54:
 6680 075f 00000000 		.4byte	.LVL127
 6681 0763 0E000000 		.4byte	.LVL129
 6682 0767 0100     		.2byte	0x1
 6683 0769 50       		.byte	0x50
 6684 076a 0E000000 		.4byte	.LVL129
 6685 076e 20000000 		.4byte	.LFE42
 6686 0772 0400     		.2byte	0x4
 6687 0774 F3       		.byte	0xf3
 6688 0775 01       		.uleb128 0x1
 6689 0776 50       		.byte	0x50
 6690 0777 9F       		.byte	0x9f
 6691 0778 00000000 		.4byte	0
 6692 077c 00000000 		.4byte	0
 6693              	.LLST55:
 6694 0780 0A000000 		.4byte	.LVL128
 6695 0784 0E000000 		.4byte	.LVL129
 6696 0788 0F00     		.2byte	0xf
 6697 078a 72       		.byte	0x72
 6698 078b 00       		.sleb128 0
 6699 078c 70       		.byte	0x70
 6700 078d 00       		.sleb128 0
 6701 078e 33       		.byte	0x33
 6702 078f 1A       		.byte	0x1a
 6703 0790 08       		.byte	0x8
 6704 0791 FF       		.byte	0xff
 6705 0792 1A       		.byte	0x1a
 6706 0793 33       		.byte	0x33
 6707 0794 24       		.byte	0x24
 6708 0795 23       		.byte	0x23
 6709 0796 06       		.uleb128 0x6
 6710 0797 25       		.byte	0x25
 6711 0798 9F       		.byte	0x9f
 6712 0799 00000000 		.4byte	0
 6713 079d 00000000 		.4byte	0
 6714              	.LLST56:
ARM GAS  C:\Users\Pablo\AppData\Local\Temp\ccDGsedh.s 			page 176


 6715 07a1 00000000 		.4byte	.LVL130
 6716 07a5 04000000 		.4byte	.LVL131
 6717 07a9 0100     		.2byte	0x1
 6718 07ab 50       		.byte	0x50
 6719 07ac 04000000 		.4byte	.LVL131
 6720 07b0 14000000 		.4byte	.LFE43
 6721 07b4 0400     		.2byte	0x4
 6722 07b6 F3       		.byte	0xf3
 6723 07b7 01       		.uleb128 0x1
 6724 07b8 50       		.byte	0x50
 6725 07b9 9F       		.byte	0x9f
 6726 07ba 00000000 		.4byte	0
 6727 07be 00000000 		.4byte	0
 6728              	.LLST57:
 6729 07c2 00000000 		.4byte	.LVL132
 6730 07c6 08000000 		.4byte	.LVL133
 6731 07ca 0100     		.2byte	0x1
 6732 07cc 50       		.byte	0x50
 6733 07cd 08000000 		.4byte	.LVL133
 6734 07d1 18000000 		.4byte	.LFE44
 6735 07d5 0400     		.2byte	0x4
 6736 07d7 F3       		.byte	0xf3
 6737 07d8 01       		.uleb128 0x1
 6738 07d9 50       		.byte	0x50
 6739 07da 9F       		.byte	0x9f
 6740 07db 00000000 		.4byte	0
 6741 07df 00000000 		.4byte	0
 6742              	.LLST58:
 6743 07e3 00000000 		.4byte	.LVL134
 6744 07e7 04000000 		.4byte	.LVL135
 6745 07eb 0100     		.2byte	0x1
 6746 07ed 50       		.byte	0x50
 6747 07ee 04000000 		.4byte	.LVL135
 6748 07f2 14000000 		.4byte	.LFE45
 6749 07f6 0400     		.2byte	0x4
 6750 07f8 F3       		.byte	0xf3
 6751 07f9 01       		.uleb128 0x1
 6752 07fa 50       		.byte	0x50
 6753 07fb 9F       		.byte	0x9f
 6754 07fc 00000000 		.4byte	0
 6755 0800 00000000 		.4byte	0
 6756              	.LLST59:
 6757 0804 00000000 		.4byte	.LVL136
 6758 0808 04000000 		.4byte	.LVL137
 6759 080c 0100     		.2byte	0x1
 6760 080e 50       		.byte	0x50
 6761 080f 04000000 		.4byte	.LVL137
 6762 0813 14000000 		.4byte	.LFE46
 6763 0817 0400     		.2byte	0x4
 6764 0819 F3       		.byte	0xf3
 6765 081a 01       		.uleb128 0x1
 6766 081b 50       		.byte	0x50
 6767 081c 9F       		.byte	0x9f
 6768 081d 00000000 		.4byte	0
 6769 0821 00000000 		.4byte	0
 6770              	.LLST60:
 6771 0825 00000000 		.4byte	.LVL138
ARM GAS  C:\Users\Pablo\AppData\Local\Temp\ccDGsedh.s 			page 177


 6772 0829 04000000 		.4byte	.LVL139
 6773 082d 0100     		.2byte	0x1
 6774 082f 50       		.byte	0x50
 6775 0830 04000000 		.4byte	.LVL139
 6776 0834 14000000 		.4byte	.LFE47
 6777 0838 0400     		.2byte	0x4
 6778 083a F3       		.byte	0xf3
 6779 083b 01       		.uleb128 0x1
 6780 083c 50       		.byte	0x50
 6781 083d 9F       		.byte	0x9f
 6782 083e 00000000 		.4byte	0
 6783 0842 00000000 		.4byte	0
 6784              	.LLST61:
 6785 0846 00000000 		.4byte	.LVL141
 6786 084a 04000000 		.4byte	.LVL142
 6787 084e 0100     		.2byte	0x1
 6788 0850 50       		.byte	0x50
 6789 0851 04000000 		.4byte	.LVL142
 6790 0855 22000000 		.4byte	.LVL146
 6791 0859 0100     		.2byte	0x1
 6792 085b 54       		.byte	0x54
 6793 085c 00000000 		.4byte	0
 6794 0860 00000000 		.4byte	0
 6795              	.LLST62:
 6796 0864 00000000 		.4byte	.LVL147
 6797 0868 08000000 		.4byte	.LVL148
 6798 086c 0100     		.2byte	0x1
 6799 086e 50       		.byte	0x50
 6800 086f 08000000 		.4byte	.LVL148
 6801 0873 14000000 		.4byte	.LFE51
 6802 0877 0400     		.2byte	0x4
 6803 0879 F3       		.byte	0xf3
 6804 087a 01       		.uleb128 0x1
 6805 087b 50       		.byte	0x50
 6806 087c 9F       		.byte	0x9f
 6807 087d 00000000 		.4byte	0
 6808 0881 00000000 		.4byte	0
 6809              	.LLST63:
 6810 0885 00000000 		.4byte	.LVL150
 6811 0889 6F000000 		.4byte	.LVL162-1
 6812 088d 0100     		.2byte	0x1
 6813 088f 50       		.byte	0x50
 6814 0890 6F000000 		.4byte	.LVL162-1
 6815 0894 A0000000 		.4byte	.LVL167
 6816 0898 0100     		.2byte	0x1
 6817 089a 54       		.byte	0x54
 6818 089b A0000000 		.4byte	.LVL167
 6819 089f D0000000 		.4byte	.LVL170
 6820 08a3 0700     		.2byte	0x7
 6821 08a5 74       		.byte	0x74
 6822 08a6 B39C8080 		.sleb128 -268431821
 6822      7F
 6823 08ab 9F       		.byte	0x9f
 6824 08ac D0000000 		.4byte	.LVL170
 6825 08b0 20010000 		.4byte	.LFE7
 6826 08b4 0600     		.2byte	0x6
 6827 08b6 91       		.byte	0x91
ARM GAS  C:\Users\Pablo\AppData\Local\Temp\ccDGsedh.s 			page 178


 6828 08b7 60       		.sleb128 -32
 6829 08b8 06       		.byte	0x6
 6830 08b9 23       		.byte	0x23
 6831 08ba 03       		.uleb128 0x3
 6832 08bb 9F       		.byte	0x9f
 6833 08bc 00000000 		.4byte	0
 6834 08c0 00000000 		.4byte	0
 6835              	.LLST64:
 6836 08c4 1E000000 		.4byte	.LVL151
 6837 08c8 20000000 		.4byte	.LVL152
 6838 08cc 0100     		.2byte	0x1
 6839 08ce 55       		.byte	0x55
 6840 08cf 30000000 		.4byte	.LVL153
 6841 08d3 32000000 		.4byte	.LVL154
 6842 08d7 0100     		.2byte	0x1
 6843 08d9 55       		.byte	0x55
 6844 08da 42000000 		.4byte	.LVL155
 6845 08de 44000000 		.4byte	.LVL156
 6846 08e2 0100     		.2byte	0x1
 6847 08e4 55       		.byte	0x55
 6848 08e5 54000000 		.4byte	.LVL157
 6849 08e9 56000000 		.4byte	.LVL158
 6850 08ed 0100     		.2byte	0x1
 6851 08ef 55       		.byte	0x55
 6852 08f0 6A000000 		.4byte	.LVL160
 6853 08f4 D0000000 		.4byte	.LVL170
 6854 08f8 0100     		.2byte	0x1
 6855 08fa 55       		.byte	0x55
 6856 08fb 00000000 		.4byte	0
 6857 08ff 00000000 		.4byte	0
 6858              	.LLST65:
 6859 0903 6A000000 		.4byte	.LVL160
 6860 0907 D0000000 		.4byte	.LVL170
 6861 090b 0200     		.2byte	0x2
 6862 090d 7D       		.byte	0x7d
 6863 090e 00       		.sleb128 0
 6864 090f 00000000 		.4byte	0
 6865 0913 00000000 		.4byte	0
 6866              	.LLST66:
 6867 0917 74000000 		.4byte	.LVL163
 6868 091b D0000000 		.4byte	.LVL170
 6869 091f 0200     		.2byte	0x2
 6870 0921 91       		.byte	0x91
 6871 0922 64       		.sleb128 -28
 6872 0923 00000000 		.4byte	0
 6873 0927 00000000 		.4byte	0
 6874              	.LLST67:
 6875 092b 6C000000 		.4byte	.LVL161
 6876 092f D0000000 		.4byte	.LVL170
 6877 0933 0200     		.2byte	0x2
 6878 0935 91       		.byte	0x91
 6879 0936 5C       		.sleb128 -36
 6880 0937 00000000 		.4byte	0
 6881 093b 00000000 		.4byte	0
 6882              	.LLST68:
 6883 093f 8C000000 		.4byte	.LVL164
 6884 0943 94000000 		.4byte	.LVL165
ARM GAS  C:\Users\Pablo\AppData\Local\Temp\ccDGsedh.s 			page 179


 6885 0947 0100     		.2byte	0x1
 6886 0949 57       		.byte	0x57
 6887 094a 00000000 		.4byte	0
 6888 094e 00000000 		.4byte	0
 6889              	.LLST69:
 6890 0952 00000000 		.4byte	.LVL171
 6891 0956 06000000 		.4byte	.LVL172
 6892 095a 0100     		.2byte	0x1
 6893 095c 50       		.byte	0x50
 6894 095d 06000000 		.4byte	.LVL172
 6895 0961 26000000 		.4byte	.LVL178
 6896 0965 0100     		.2byte	0x1
 6897 0967 55       		.byte	0x55
 6898 0968 26000000 		.4byte	.LVL178
 6899 096c 30000000 		.4byte	.LFE20
 6900 0970 0400     		.2byte	0x4
 6901 0972 F3       		.byte	0xf3
 6902 0973 01       		.uleb128 0x1
 6903 0974 50       		.byte	0x50
 6904 0975 9F       		.byte	0x9f
 6905 0976 00000000 		.4byte	0
 6906 097a 00000000 		.4byte	0
 6907              	.LLST70:
 6908 097e 00000000 		.4byte	.LVL171
 6909 0982 0B000000 		.4byte	.LVL173-1
 6910 0986 0100     		.2byte	0x1
 6911 0988 51       		.byte	0x51
 6912 0989 0B000000 		.4byte	.LVL173-1
 6913 098d 1A000000 		.4byte	.LVL176
 6914 0991 0100     		.2byte	0x1
 6915 0993 54       		.byte	0x54
 6916 0994 1A000000 		.4byte	.LVL176
 6917 0998 30000000 		.4byte	.LFE20
 6918 099c 0400     		.2byte	0x4
 6919 099e F3       		.byte	0xf3
 6920 099f 01       		.uleb128 0x1
 6921 09a0 51       		.byte	0x51
 6922 09a1 9F       		.byte	0x9f
 6923 09a2 00000000 		.4byte	0
 6924 09a6 00000000 		.4byte	0
 6925              	.LLST71:
 6926 09aa 14000000 		.4byte	.LVL174
 6927 09ae 18000000 		.4byte	.LVL175
 6928 09b2 0B00     		.2byte	0xb
 6929 09b4 0A       		.byte	0xa
 6930 09b5 FFFF     		.2byte	0xffff
 6931 09b7 70       		.byte	0x70
 6932 09b8 00       		.sleb128 0
 6933 09b9 24       		.byte	0x24
 6934 09ba 20       		.byte	0x20
 6935 09bb 72       		.byte	0x72
 6936 09bc 00       		.sleb128 0
 6937 09bd 1A       		.byte	0x1a
 6938 09be 9F       		.byte	0x9f
 6939 09bf 18000000 		.4byte	.LVL175
 6940 09c3 25000000 		.4byte	.LVL177-1
 6941 09c7 0100     		.2byte	0x1
ARM GAS  C:\Users\Pablo\AppData\Local\Temp\ccDGsedh.s 			page 180


 6942 09c9 52       		.byte	0x52
 6943 09ca 00000000 		.4byte	0
 6944 09ce 00000000 		.4byte	0
 6945              	.LLST72:
 6946 09d2 00000000 		.4byte	.LVL179
 6947 09d6 18000000 		.4byte	.LVL180
 6948 09da 0100     		.2byte	0x1
 6949 09dc 50       		.byte	0x50
 6950 09dd 18000000 		.4byte	.LVL180
 6951 09e1 48000000 		.4byte	.LFE52
 6952 09e5 0400     		.2byte	0x4
 6953 09e7 F3       		.byte	0xf3
 6954 09e8 01       		.uleb128 0x1
 6955 09e9 50       		.byte	0x50
 6956 09ea 9F       		.byte	0x9f
 6957 09eb 00000000 		.4byte	0
 6958 09ef 00000000 		.4byte	0
 6959              	.LLST73:
 6960 09f3 00000000 		.4byte	.LVL183
 6961 09f7 08000000 		.4byte	.LVL184
 6962 09fb 0200     		.2byte	0x2
 6963 09fd 30       		.byte	0x30
 6964 09fe 9F       		.byte	0x9f
 6965 09ff 08000000 		.4byte	.LVL184
 6966 0a03 0C000000 		.4byte	.LVL185
 6967 0a07 0200     		.2byte	0x2
 6968 0a09 31       		.byte	0x31
 6969 0a0a 9F       		.byte	0x9f
 6970 0a0b 0C000000 		.4byte	.LVL185
 6971 0a0f 0E000000 		.4byte	.LVL186
 6972 0a13 0200     		.2byte	0x2
 6973 0a15 32       		.byte	0x32
 6974 0a16 9F       		.byte	0x9f
 6975 0a17 0E000000 		.4byte	.LVL186
 6976 0a1b 10000000 		.4byte	.LVL187
 6977 0a1f 0200     		.2byte	0x2
 6978 0a21 33       		.byte	0x33
 6979 0a22 9F       		.byte	0x9f
 6980 0a23 10000000 		.4byte	.LVL187
 6981 0a27 12000000 		.4byte	.LVL188
 6982 0a2b 0200     		.2byte	0x2
 6983 0a2d 34       		.byte	0x34
 6984 0a2e 9F       		.byte	0x9f
 6985 0a2f 12000000 		.4byte	.LVL188
 6986 0a33 50000000 		.4byte	.LFE54
 6987 0a37 0200     		.2byte	0x2
 6988 0a39 35       		.byte	0x35
 6989 0a3a 9F       		.byte	0x9f
 6990 0a3b 00000000 		.4byte	0
 6991 0a3f 00000000 		.4byte	0
 6992              	.LLST74:
 6993 0a43 12000000 		.4byte	.LVL188
 6994 0a47 14000000 		.4byte	.LVL189
 6995 0a4b 0500     		.2byte	0x5
 6996 0a4d 0C       		.byte	0xc
 6997 0a4e 3C000020 		.4byte	0x2000003c
 6998 0a52 14000000 		.4byte	.LVL189
ARM GAS  C:\Users\Pablo\AppData\Local\Temp\ccDGsedh.s 			page 181


 6999 0a56 18000000 		.4byte	.LVL190
 7000 0a5a 0200     		.2byte	0x2
 7001 0a5c 73       		.byte	0x73
 7002 0a5d 00       		.sleb128 0
 7003 0a5e 00000000 		.4byte	0
 7004 0a62 00000000 		.4byte	0
 7005              	.LLST75:
 7006 0a66 00000000 		.4byte	.LVL196
 7007 0a6a 04000000 		.4byte	.LVL197
 7008 0a6e 0100     		.2byte	0x1
 7009 0a70 50       		.byte	0x50
 7010 0a71 04000000 		.4byte	.LVL197
 7011 0a75 10000000 		.4byte	.LFE59
 7012 0a79 0400     		.2byte	0x4
 7013 0a7b F3       		.byte	0xf3
 7014 0a7c 01       		.uleb128 0x1
 7015 0a7d 50       		.byte	0x50
 7016 0a7e 9F       		.byte	0x9f
 7017 0a7f 00000000 		.4byte	0
 7018 0a83 00000000 		.4byte	0
 7019              	.LLST76:
 7020 0a87 00000000 		.4byte	.LVL200
 7021 0a8b 04000000 		.4byte	.LVL201
 7022 0a8f 0100     		.2byte	0x1
 7023 0a91 50       		.byte	0x50
 7024 0a92 04000000 		.4byte	.LVL201
 7025 0a96 10000000 		.4byte	.LFE64
 7026 0a9a 0400     		.2byte	0x4
 7027 0a9c F3       		.byte	0xf3
 7028 0a9d 01       		.uleb128 0x1
 7029 0a9e 50       		.byte	0x50
 7030 0a9f 9F       		.byte	0x9f
 7031 0aa0 00000000 		.4byte	0
 7032 0aa4 00000000 		.4byte	0
 7033              	.LLST77:
 7034 0aa8 00000000 		.4byte	.LVL203
 7035 0aac 04000000 		.4byte	.LVL204
 7036 0ab0 0100     		.2byte	0x1
 7037 0ab2 50       		.byte	0x50
 7038 0ab3 04000000 		.4byte	.LVL204
 7039 0ab7 10000000 		.4byte	.LFE65
 7040 0abb 0400     		.2byte	0x4
 7041 0abd F3       		.byte	0xf3
 7042 0abe 01       		.uleb128 0x1
 7043 0abf 50       		.byte	0x50
 7044 0ac0 9F       		.byte	0x9f
 7045 0ac1 00000000 		.4byte	0
 7046 0ac5 00000000 		.4byte	0
 7047              		.section	.debug_aranges,"",%progbits
 7048 0000 0C020000 		.4byte	0x20c
 7049 0004 0200     		.2byte	0x2
 7050 0006 00000000 		.4byte	.Ldebug_info0
 7051 000a 04       		.byte	0x4
 7052 000b 00       		.byte	0
 7053 000c 0000     		.2byte	0
 7054 000e 0000     		.2byte	0
 7055 0010 00000000 		.4byte	.LFB0
ARM GAS  C:\Users\Pablo\AppData\Local\Temp\ccDGsedh.s 			page 182


 7056 0014 14000000 		.4byte	.LFE0-.LFB0
 7057 0018 00000000 		.4byte	.LFB1
 7058 001c 10000000 		.4byte	.LFE1-.LFB1
 7059 0020 00000000 		.4byte	.LFB2
 7060 0024 14000000 		.4byte	.LFE2-.LFB2
 7061 0028 00000000 		.4byte	.LFB5
 7062 002c 24000000 		.4byte	.LFE5-.LFB5
 7063 0030 00000000 		.4byte	.LFB6
 7064 0034 2C000000 		.4byte	.LFE6-.LFB6
 7065 0038 00000000 		.4byte	.LFB8
 7066 003c 1C000000 		.4byte	.LFE8-.LFB8
 7067 0040 00000000 		.4byte	.LFB10
 7068 0044 30000000 		.4byte	.LFE10-.LFB10
 7069 0048 00000000 		.4byte	.LFB11
 7070 004c 18000000 		.4byte	.LFE11-.LFB11
 7071 0050 00000000 		.4byte	.LFB12
 7072 0054 2C000000 		.4byte	.LFE12-.LFB12
 7073 0058 00000000 		.4byte	.LFB13
 7074 005c 14000000 		.4byte	.LFE13-.LFB13
 7075 0060 00000000 		.4byte	.LFB14
 7076 0064 2C000000 		.4byte	.LFE14-.LFB14
 7077 0068 00000000 		.4byte	.LFB15
 7078 006c 18000000 		.4byte	.LFE15-.LFB15
 7079 0070 00000000 		.4byte	.LFB16
 7080 0074 34000000 		.4byte	.LFE16-.LFB16
 7081 0078 00000000 		.4byte	.LFB17
 7082 007c 2C000000 		.4byte	.LFE17-.LFB17
 7083 0080 00000000 		.4byte	.LFB18
 7084 0084 34000000 		.4byte	.LFE18-.LFB18
 7085 0088 00000000 		.4byte	.LFB19
 7086 008c 14000000 		.4byte	.LFE19-.LFB19
 7087 0090 00000000 		.4byte	.LFB21
 7088 0094 28000000 		.4byte	.LFE21-.LFB21
 7089 0098 00000000 		.4byte	.LFB22
 7090 009c 10000000 		.4byte	.LFE22-.LFB22
 7091 00a0 00000000 		.4byte	.LFB23
 7092 00a4 10000000 		.4byte	.LFE23-.LFB23
 7093 00a8 00000000 		.4byte	.LFB24
 7094 00ac 30000000 		.4byte	.LFE24-.LFB24
 7095 00b0 00000000 		.4byte	.LFB3
 7096 00b4 B4000000 		.4byte	.LFE3-.LFB3
 7097 00b8 00000000 		.4byte	.LFB25
 7098 00bc 14000000 		.4byte	.LFE25-.LFB25
 7099 00c0 00000000 		.4byte	.LFB26
 7100 00c4 50000000 		.4byte	.LFE26-.LFB26
 7101 00c8 00000000 		.4byte	.LFB27
 7102 00cc 18000000 		.4byte	.LFE27-.LFB27
 7103 00d0 00000000 		.4byte	.LFB30
 7104 00d4 2C000000 		.4byte	.LFE30-.LFB30
 7105 00d8 00000000 		.4byte	.LFB31
 7106 00dc 20000000 		.4byte	.LFE31-.LFB31
 7107 00e0 00000000 		.4byte	.LFB32
 7108 00e4 10000000 		.4byte	.LFE32-.LFB32
 7109 00e8 00000000 		.4byte	.LFB33
 7110 00ec 0C000000 		.4byte	.LFE33-.LFB33
 7111 00f0 00000000 		.4byte	.LFB34
 7112 00f4 14000000 		.4byte	.LFE34-.LFB34
ARM GAS  C:\Users\Pablo\AppData\Local\Temp\ccDGsedh.s 			page 183


 7113 00f8 00000000 		.4byte	.LFB35
 7114 00fc 10000000 		.4byte	.LFE35-.LFB35
 7115 0100 00000000 		.4byte	.LFB36
 7116 0104 0C000000 		.4byte	.LFE36-.LFB36
 7117 0108 00000000 		.4byte	.LFB37
 7118 010c 0E000000 		.4byte	.LFE37-.LFB37
 7119 0110 00000000 		.4byte	.LFB38
 7120 0114 0C000000 		.4byte	.LFE38-.LFB38
 7121 0118 00000000 		.4byte	.LFB39
 7122 011c 10000000 		.4byte	.LFE39-.LFB39
 7123 0120 00000000 		.4byte	.LFB40
 7124 0124 10000000 		.4byte	.LFE40-.LFB40
 7125 0128 00000000 		.4byte	.LFB41
 7126 012c 34000000 		.4byte	.LFE41-.LFB41
 7127 0130 00000000 		.4byte	.LFB42
 7128 0134 20000000 		.4byte	.LFE42-.LFB42
 7129 0138 00000000 		.4byte	.LFB43
 7130 013c 14000000 		.4byte	.LFE43-.LFB43
 7131 0140 00000000 		.4byte	.LFB44
 7132 0144 18000000 		.4byte	.LFE44-.LFB44
 7133 0148 00000000 		.4byte	.LFB45
 7134 014c 14000000 		.4byte	.LFE45-.LFB45
 7135 0150 00000000 		.4byte	.LFB46
 7136 0154 14000000 		.4byte	.LFE46-.LFB46
 7137 0158 00000000 		.4byte	.LFB47
 7138 015c 14000000 		.4byte	.LFE47-.LFB47
 7139 0160 00000000 		.4byte	.LFB48
 7140 0164 04000000 		.4byte	.LFE48-.LFB48
 7141 0168 00000000 		.4byte	.LFB49
 7142 016c 18000000 		.4byte	.LFE49-.LFB49
 7143 0170 00000000 		.4byte	.LFB50
 7144 0174 2C000000 		.4byte	.LFE50-.LFB50
 7145 0178 00000000 		.4byte	.LFB51
 7146 017c 14000000 		.4byte	.LFE51-.LFB51
 7147 0180 00000000 		.4byte	.LFB7
 7148 0184 20010000 		.4byte	.LFE7-.LFB7
 7149 0188 00000000 		.4byte	.LFB20
 7150 018c 30000000 		.4byte	.LFE20-.LFB20
 7151 0190 00000000 		.4byte	.LFB52
 7152 0194 48000000 		.4byte	.LFE52-.LFB52
 7153 0198 00000000 		.4byte	.LFB54
 7154 019c 50000000 		.4byte	.LFE54-.LFB54
 7155 01a0 00000000 		.4byte	.LFB56
 7156 01a4 10000000 		.4byte	.LFE56-.LFB56
 7157 01a8 00000000 		.4byte	.LFB57
 7158 01ac 10000000 		.4byte	.LFE57-.LFB57
 7159 01b0 00000000 		.4byte	.LFB55
 7160 01b4 18000000 		.4byte	.LFE55-.LFB55
 7161 01b8 00000000 		.4byte	.LFB53
 7162 01bc 1C000000 		.4byte	.LFE53-.LFB53
 7163 01c0 00000000 		.4byte	.LFB58
 7164 01c4 10000000 		.4byte	.LFE58-.LFB58
 7165 01c8 00000000 		.4byte	.LFB59
 7166 01cc 10000000 		.4byte	.LFE59-.LFB59
 7167 01d0 00000000 		.4byte	.LFB60
 7168 01d4 10000000 		.4byte	.LFE60-.LFB60
 7169 01d8 00000000 		.4byte	.LFB61
ARM GAS  C:\Users\Pablo\AppData\Local\Temp\ccDGsedh.s 			page 184


 7170 01dc 14000000 		.4byte	.LFE61-.LFB61
 7171 01e0 00000000 		.4byte	.LFB62
 7172 01e4 10000000 		.4byte	.LFE62-.LFB62
 7173 01e8 00000000 		.4byte	.LFB66
 7174 01ec 24000000 		.4byte	.LFE66-.LFB66
 7175 01f0 00000000 		.4byte	.LFB63
 7176 01f4 0C000000 		.4byte	.LFE63-.LFB63
 7177 01f8 00000000 		.4byte	.LFB64
 7178 01fc 10000000 		.4byte	.LFE64-.LFB64
 7179 0200 00000000 		.4byte	.LFB65
 7180 0204 10000000 		.4byte	.LFE65-.LFB65
 7181 0208 00000000 		.4byte	0
 7182 020c 00000000 		.4byte	0
 7183              		.section	.debug_ranges,"",%progbits
 7184              	.Ldebug_ranges0:
 7185 0000 00000000 		.4byte	.LBB40
 7186 0004 02000000 		.4byte	.LBE40
 7187 0008 04000000 		.4byte	.LBB44
 7188 000c 06000000 		.4byte	.LBE44
 7189 0010 0C000000 		.4byte	.LBB52
 7190 0014 0E000000 		.4byte	.LBE52
 7191 0018 00000000 		.4byte	0
 7192 001c 00000000 		.4byte	0
 7193 0020 06000000 		.4byte	.LBB45
 7194 0024 08000000 		.4byte	.LBE45
 7195 0028 0A000000 		.4byte	.LBB51
 7196 002c 0C000000 		.4byte	.LBE51
 7197 0030 00000000 		.4byte	0
 7198 0034 00000000 		.4byte	0
 7199 0038 08000000 		.4byte	.LBB48
 7200 003c 0A000000 		.4byte	.LBE48
 7201 0040 10000000 		.4byte	.LBB53
 7202 0044 12000000 		.4byte	.LBE53
 7203 0048 00000000 		.4byte	0
 7204 004c 00000000 		.4byte	0
 7205 0050 1C000000 		.4byte	.LBB78
 7206 0054 1E000000 		.4byte	.LBE78
 7207 0058 20000000 		.4byte	.LBB93
 7208 005c 76000000 		.4byte	.LBE93
 7209 0060 00000000 		.4byte	0
 7210 0064 00000000 		.4byte	0
 7211 0068 1C000000 		.4byte	.LBB80
 7212 006c 1E000000 		.4byte	.LBE80
 7213 0070 20000000 		.4byte	.LBB83
 7214 0074 26000000 		.4byte	.LBE83
 7215 0078 00000000 		.4byte	0
 7216 007c 00000000 		.4byte	0
 7217 0080 4A000000 		.4byte	.LBB88
 7218 0084 4C000000 		.4byte	.LBE88
 7219 0088 50000000 		.4byte	.LBB91
 7220 008c 56000000 		.4byte	.LBE91
 7221 0090 00000000 		.4byte	0
 7222 0094 00000000 		.4byte	0
 7223 0098 08000000 		.4byte	.LBB98
 7224 009c 0A000000 		.4byte	.LBE98
 7225 00a0 0C000000 		.4byte	.LBB101
 7226 00a4 16000000 		.4byte	.LBE101
ARM GAS  C:\Users\Pablo\AppData\Local\Temp\ccDGsedh.s 			page 185


 7227 00a8 00000000 		.4byte	0
 7228 00ac 00000000 		.4byte	0
 7229 00b0 08000000 		.4byte	.LBB110
 7230 00b4 0A000000 		.4byte	.LBE110
 7231 00b8 12000000 		.4byte	.LBB114
 7232 00bc 14000000 		.4byte	.LBE114
 7233 00c0 16000000 		.4byte	.LBB115
 7234 00c4 18000000 		.4byte	.LBE115
 7235 00c8 00000000 		.4byte	0
 7236 00cc 00000000 		.4byte	0
 7237 00d0 22000000 		.4byte	.LBB116
 7238 00d4 24000000 		.4byte	.LBE116
 7239 00d8 26000000 		.4byte	.LBB124
 7240 00dc 28000000 		.4byte	.LBE124
 7241 00e0 00000000 		.4byte	0
 7242 00e4 00000000 		.4byte	0
 7243 00e8 24000000 		.4byte	.LBB119
 7244 00ec 26000000 		.4byte	.LBE119
 7245 00f0 2A000000 		.4byte	.LBB128
 7246 00f4 2C000000 		.4byte	.LBE128
 7247 00f8 2E000000 		.4byte	.LBB130
 7248 00fc 30000000 		.4byte	.LBE130
 7249 0100 30000000 		.4byte	.LBB131
 7250 0104 32000000 		.4byte	.LBE131
 7251 0108 00000000 		.4byte	0
 7252 010c 00000000 		.4byte	0
 7253 0110 28000000 		.4byte	.LBB125
 7254 0114 2A000000 		.4byte	.LBE125
 7255 0118 2C000000 		.4byte	.LBB129
 7256 011c 2E000000 		.4byte	.LBE129
 7257 0120 00000000 		.4byte	0
 7258 0124 00000000 		.4byte	0
 7259 0128 00000000 		.4byte	.LFB0
 7260 012c 14000000 		.4byte	.LFE0
 7261 0130 00000000 		.4byte	.LFB1
 7262 0134 10000000 		.4byte	.LFE1
 7263 0138 00000000 		.4byte	.LFB2
 7264 013c 14000000 		.4byte	.LFE2
 7265 0140 00000000 		.4byte	.LFB5
 7266 0144 24000000 		.4byte	.LFE5
 7267 0148 00000000 		.4byte	.LFB6
 7268 014c 2C000000 		.4byte	.LFE6
 7269 0150 00000000 		.4byte	.LFB8
 7270 0154 1C000000 		.4byte	.LFE8
 7271 0158 00000000 		.4byte	.LFB10
 7272 015c 30000000 		.4byte	.LFE10
 7273 0160 00000000 		.4byte	.LFB11
 7274 0164 18000000 		.4byte	.LFE11
 7275 0168 00000000 		.4byte	.LFB12
 7276 016c 2C000000 		.4byte	.LFE12
 7277 0170 00000000 		.4byte	.LFB13
 7278 0174 14000000 		.4byte	.LFE13
 7279 0178 00000000 		.4byte	.LFB14
 7280 017c 2C000000 		.4byte	.LFE14
 7281 0180 00000000 		.4byte	.LFB15
 7282 0184 18000000 		.4byte	.LFE15
 7283 0188 00000000 		.4byte	.LFB16
ARM GAS  C:\Users\Pablo\AppData\Local\Temp\ccDGsedh.s 			page 186


 7284 018c 34000000 		.4byte	.LFE16
 7285 0190 00000000 		.4byte	.LFB17
 7286 0194 2C000000 		.4byte	.LFE17
 7287 0198 00000000 		.4byte	.LFB18
 7288 019c 34000000 		.4byte	.LFE18
 7289 01a0 00000000 		.4byte	.LFB19
 7290 01a4 14000000 		.4byte	.LFE19
 7291 01a8 00000000 		.4byte	.LFB21
 7292 01ac 28000000 		.4byte	.LFE21
 7293 01b0 00000000 		.4byte	.LFB22
 7294 01b4 10000000 		.4byte	.LFE22
 7295 01b8 00000000 		.4byte	.LFB23
 7296 01bc 10000000 		.4byte	.LFE23
 7297 01c0 00000000 		.4byte	.LFB24
 7298 01c4 30000000 		.4byte	.LFE24
 7299 01c8 00000000 		.4byte	.LFB3
 7300 01cc B4000000 		.4byte	.LFE3
 7301 01d0 00000000 		.4byte	.LFB25
 7302 01d4 14000000 		.4byte	.LFE25
 7303 01d8 00000000 		.4byte	.LFB26
 7304 01dc 50000000 		.4byte	.LFE26
 7305 01e0 00000000 		.4byte	.LFB27
 7306 01e4 18000000 		.4byte	.LFE27
 7307 01e8 00000000 		.4byte	.LFB30
 7308 01ec 2C000000 		.4byte	.LFE30
 7309 01f0 00000000 		.4byte	.LFB31
 7310 01f4 20000000 		.4byte	.LFE31
 7311 01f8 00000000 		.4byte	.LFB32
 7312 01fc 10000000 		.4byte	.LFE32
 7313 0200 00000000 		.4byte	.LFB33
 7314 0204 0C000000 		.4byte	.LFE33
 7315 0208 00000000 		.4byte	.LFB34
 7316 020c 14000000 		.4byte	.LFE34
 7317 0210 00000000 		.4byte	.LFB35
 7318 0214 10000000 		.4byte	.LFE35
 7319 0218 00000000 		.4byte	.LFB36
 7320 021c 0C000000 		.4byte	.LFE36
 7321 0220 00000000 		.4byte	.LFB37
 7322 0224 0E000000 		.4byte	.LFE37
 7323 0228 00000000 		.4byte	.LFB38
 7324 022c 0C000000 		.4byte	.LFE38
 7325 0230 00000000 		.4byte	.LFB39
 7326 0234 10000000 		.4byte	.LFE39
 7327 0238 00000000 		.4byte	.LFB40
 7328 023c 10000000 		.4byte	.LFE40
 7329 0240 00000000 		.4byte	.LFB41
 7330 0244 34000000 		.4byte	.LFE41
 7331 0248 00000000 		.4byte	.LFB42
 7332 024c 20000000 		.4byte	.LFE42
 7333 0250 00000000 		.4byte	.LFB43
 7334 0254 14000000 		.4byte	.LFE43
 7335 0258 00000000 		.4byte	.LFB44
 7336 025c 18000000 		.4byte	.LFE44
 7337 0260 00000000 		.4byte	.LFB45
 7338 0264 14000000 		.4byte	.LFE45
 7339 0268 00000000 		.4byte	.LFB46
 7340 026c 14000000 		.4byte	.LFE46
ARM GAS  C:\Users\Pablo\AppData\Local\Temp\ccDGsedh.s 			page 187


 7341 0270 00000000 		.4byte	.LFB47
 7342 0274 14000000 		.4byte	.LFE47
 7343 0278 00000000 		.4byte	.LFB48
 7344 027c 04000000 		.4byte	.LFE48
 7345 0280 00000000 		.4byte	.LFB49
 7346 0284 18000000 		.4byte	.LFE49
 7347 0288 00000000 		.4byte	.LFB50
 7348 028c 2C000000 		.4byte	.LFE50
 7349 0290 00000000 		.4byte	.LFB51
 7350 0294 14000000 		.4byte	.LFE51
 7351 0298 00000000 		.4byte	.LFB7
 7352 029c 20010000 		.4byte	.LFE7
 7353 02a0 00000000 		.4byte	.LFB20
 7354 02a4 30000000 		.4byte	.LFE20
 7355 02a8 00000000 		.4byte	.LFB52
 7356 02ac 48000000 		.4byte	.LFE52
 7357 02b0 00000000 		.4byte	.LFB54
 7358 02b4 50000000 		.4byte	.LFE54
 7359 02b8 00000000 		.4byte	.LFB56
 7360 02bc 10000000 		.4byte	.LFE56
 7361 02c0 00000000 		.4byte	.LFB57
 7362 02c4 10000000 		.4byte	.LFE57
 7363 02c8 00000000 		.4byte	.LFB55
 7364 02cc 18000000 		.4byte	.LFE55
 7365 02d0 00000000 		.4byte	.LFB53
 7366 02d4 1C000000 		.4byte	.LFE53
 7367 02d8 00000000 		.4byte	.LFB58
 7368 02dc 10000000 		.4byte	.LFE58
 7369 02e0 00000000 		.4byte	.LFB59
 7370 02e4 10000000 		.4byte	.LFE59
 7371 02e8 00000000 		.4byte	.LFB60
 7372 02ec 10000000 		.4byte	.LFE60
 7373 02f0 00000000 		.4byte	.LFB61
 7374 02f4 14000000 		.4byte	.LFE61
 7375 02f8 00000000 		.4byte	.LFB62
 7376 02fc 10000000 		.4byte	.LFE62
 7377 0300 00000000 		.4byte	.LFB66
 7378 0304 24000000 		.4byte	.LFE66
 7379 0308 00000000 		.4byte	.LFB63
 7380 030c 0C000000 		.4byte	.LFE63
 7381 0310 00000000 		.4byte	.LFB64
 7382 0314 10000000 		.4byte	.LFE64
 7383 0318 00000000 		.4byte	.LFB65
 7384 031c 10000000 		.4byte	.LFE65
 7385 0320 00000000 		.4byte	0
 7386 0324 00000000 		.4byte	0
 7387              		.section	.debug_line,"",%progbits
 7388              	.Ldebug_line0:
 7389 0000 D7060000 		.section	.debug_str,"MS",%progbits,1
 7389      02004F00 
 7389      00000201 
 7389      FB0E0D00 
 7389      01010101 
 7390              	.LASF23:
 7391 0000 43795379 		.ascii	"CySysWdtWriteMode\000"
 7391      73576474 
 7391      57726974 
ARM GAS  C:\Users\Pablo\AppData\Local\Temp\ccDGsedh.s 			page 188


 7391      654D6F64 
 7391      6500
 7392              	.LASF102:
 7393 0012 62675472 		.ascii	"bgTrim4\000"
 7393      696D3400 
 7394              	.LASF10:
 7395 001a 75696E74 		.ascii	"uint16\000"
 7395      313600
 7396              	.LASF74:
 7397 0021 696E7453 		.ascii	"intState\000"
 7397      74617465 
 7397      00
 7398              	.LASF29:
 7399 002a 43795379 		.ascii	"CySysClkWriteHfclkDirect\000"
 7399      73436C6B 
 7399      57726974 
 7399      65486663 
 7399      6C6B4469 
 7400              	.LASF35:
 7401 0043 43795379 		.ascii	"CySysWdtUnlock\000"
 7401      73576474 
 7401      556E6C6F 
 7401      636B00
 7402              	.LASF80:
 7403 0052 6F6C6449 		.ascii	"oldIsr\000"
 7403      737200
 7404              	.LASF20:
 7405 0059 636F756E 		.ascii	"counterNum\000"
 7405      7465724E 
 7405      756D00
 7406              	.LASF57:
 7407 0064 43795379 		.ascii	"CySysClkLfclkPosedgeCatch\000"
 7407      73436C6B 
 7407      4C66636C 
 7407      6B506F73 
 7407      65646765 
 7408              	.LASF105:
 7409 007e 63757272 		.ascii	"currentImoTrim2Value\000"
 7409      656E7449 
 7409      6D6F5472 
 7409      696D3256 
 7409      616C7565 
 7410              	.LASF128:
 7411 0093 6C66636C 		.ascii	"lfclkPosedgeWdtCounter0Enabled\000"
 7411      6B506F73 
 7411      65646765 
 7411      57647443 
 7411      6F756E74 
 7412              	.LASF7:
 7413 00b2 6C6F6E67 		.ascii	"long long unsigned int\000"
 7413      206C6F6E 
 7413      6720756E 
 7413      7369676E 
 7413      65642069 
 7414              	.LASF123:
 7415 00c9 43795379 		.ascii	"CySysTickInitVar\000"
 7415      73546963 
ARM GAS  C:\Users\Pablo\AppData\Local\Temp\ccDGsedh.s 			page 189


 7415      6B496E69 
 7415      74566172 
 7415      00
 7416              	.LASF75:
 7417 00da 4379456E 		.ascii	"CyEnableInts\000"
 7417      61626C65 
 7417      496E7473 
 7417      00
 7418              	.LASF95:
 7419 00e7 4379536F 		.ascii	"CySoftwareReset\000"
 7419      66747761 
 7419      72655265 
 7419      73657400 
 7420              	.LASF111:
 7421 00f7 43795379 		.ascii	"CySysTickEnableInterrupt\000"
 7421      73546963 
 7421      6B456E61 
 7421      626C6549 
 7421      6E746572 
 7422              	.LASF90:
 7423 0110 4379496E 		.ascii	"CyIntGetState\000"
 7423      74476574 
 7423      53746174 
 7423      6500
 7424              	.LASF6:
 7425 011e 6C6F6E67 		.ascii	"long long int\000"
 7425      206C6F6E 
 7425      6720696E 
 7425      7400
 7426              	.LASF0:
 7427 012c 7369676E 		.ascii	"signed char\000"
 7427      65642063 
 7427      68617200 
 7428              	.LASF37:
 7429 0138 43795379 		.ascii	"CySysWdtReadMode\000"
 7429      73576474 
 7429      52656164 
 7429      4D6F6465 
 7429      00
 7430              	.LASF52:
 7431 0149 43795379 		.ascii	"CySysWdtReadCount\000"
 7431      73576474 
 7431      52656164 
 7431      436F756E 
 7431      7400
 7432              	.LASF108:
 7433 015b 43794465 		.ascii	"CyDelayFreq\000"
 7433      6C617946 
 7433      72657100 
 7434              	.LASF33:
 7435 0167 696E7465 		.ascii	"interruptState\000"
 7435      72727570 
 7435      74537461 
 7435      746500
 7436              	.LASF98:
 7437 0176 43794465 		.ascii	"CyDelayUs\000"
 7437      6C617955 
ARM GAS  C:\Users\Pablo\AppData\Local\Temp\ccDGsedh.s 			page 190


 7437      7300
 7438              	.LASF115:
 7439 0180 43795379 		.ascii	"CySysTickGetReload\000"
 7439      73546963 
 7439      6B476574 
 7439      52656C6F 
 7439      616400
 7440              	.LASF106:
 7441 0193 43795379 		.ascii	"CySysWdtWriteMatch\000"
 7441      73576474 
 7441      57726974 
 7441      654D6174 
 7441      636800
 7442              	.LASF47:
 7443 01a6 62697473 		.ascii	"bits\000"
 7443      00
 7444              	.LASF4:
 7445 01ab 6C6F6E67 		.ascii	"long int\000"
 7445      20696E74 
 7445      00
 7446              	.LASF91:
 7447 01b4 4379496E 		.ascii	"CyIntDisable\000"
 7447      74446973 
 7447      61626C65 
 7447      00
 7448              	.LASF121:
 7449 01c1 43795379 		.ascii	"CySysTickGetCallback\000"
 7449      73546963 
 7449      6B476574 
 7449      43616C6C 
 7449      6261636B 
 7450              	.LASF9:
 7451 01d6 75696E74 		.ascii	"uint8\000"
 7451      3800
 7452              	.LASF125:
 7453 01dc 63796465 		.ascii	"cydelayFreqKhz\000"
 7453      6C617946 
 7453      7265714B 
 7453      687A00
 7454              	.LASF39:
 7455 01eb 656E6162 		.ascii	"enable\000"
 7455      6C6500
 7456              	.LASF13:
 7457 01f2 646F7562 		.ascii	"double\000"
 7457      6C6500
 7458              	.LASF59:
 7459 01f9 43795379 		.ascii	"CySysClkIloStop\000"
 7459      73436C6B 
 7459      496C6F53 
 7459      746F7000 
 7460              	.LASF43:
 7461 0209 43795379 		.ascii	"CySysWdtWriteCascade\000"
 7461      73576474 
 7461      57726974 
 7461      65436173 
 7461      63616465 
 7462              	.LASF87:
ARM GAS  C:\Users\Pablo\AppData\Local\Temp\ccDGsedh.s 			page 191


 7463 021e 73686966 		.ascii	"shift\000"
 7463      7400
 7464              	.LASF64:
 7465 0224 636F756E 		.ascii	"countersMask\000"
 7465      74657273 
 7465      4D61736B 
 7465      00
 7466              	.LASF69:
 7467 0231 43795379 		.ascii	"CySysLvdClearInterrupt\000"
 7467      734C7664 
 7467      436C6561 
 7467      72496E74 
 7467      65727275 
 7468              	.LASF11:
 7469 0248 75696E74 		.ascii	"uint32\000"
 7469      333200
 7470              	.LASF139:
 7471 024f 43794465 		.ascii	"CyDelayCycles\000"
 7471      6C617943 
 7471      79636C65 
 7471      7300
 7472              	.LASF78:
 7473 025d 6E756D62 		.ascii	"number\000"
 7473      657200
 7474              	.LASF76:
 7475 0264 6D61736B 		.ascii	"mask\000"
 7475      00
 7476              	.LASF53:
 7477 0269 72656756 		.ascii	"regValue\000"
 7477      616C7565 
 7477      00
 7478              	.LASF65:
 7479 0272 43795379 		.ascii	"CySysLvdEnable\000"
 7479      734C7664 
 7479      456E6162 
 7479      6C6500
 7480              	.LASF88:
 7481 0281 4379496E 		.ascii	"CyIntGetPriority\000"
 7481      74476574 
 7481      5072696F 
 7481      72697479 
 7481      00
 7482              	.LASF45:
 7483 0292 636F756E 		.ascii	"countersEnableStatus\000"
 7483      74657273 
 7483      456E6162 
 7483      6C655374 
 7483      61747573 
 7484              	.LASF109:
 7485 02a7 43795379 		.ascii	"CySysTickInit\000"
 7485      73546963 
 7485      6B496E69 
 7485      7400
 7486              	.LASF25:
 7487 02b5 76616C75 		.ascii	"value\000"
 7487      6500
 7488              	.LASF41:
ARM GAS  C:\Users\Pablo\AppData\Local\Temp\ccDGsedh.s 			page 192


 7489 02bb 636F756E 		.ascii	"counterMask\000"
 7489      7465724D 
 7489      61736B00 
 7490              	.LASF117:
 7491 02c7 43795379 		.ascii	"CySysTickGetCountFlag\000"
 7491      73546963 
 7491      6B476574 
 7491      436F756E 
 7491      74466C61 
 7492              	.LASF8:
 7493 02dd 756E7369 		.ascii	"unsigned int\000"
 7493      676E6564 
 7493      20696E74 
 7493      00
 7494              	.LASF58:
 7495 02ea 66697273 		.ascii	"firstCount\000"
 7495      74436F75 
 7495      6E7400
 7496              	.LASF136:
 7497 02f5 43795379 		.ascii	"CySysTickClear\000"
 7497      73546963 
 7497      6B436C65 
 7497      617200
 7498              	.LASF5:
 7499 0304 6C6F6E67 		.ascii	"long unsigned int\000"
 7499      20756E73 
 7499      69676E65 
 7499      6420696E 
 7499      7400
 7500              	.LASF68:
 7501 0316 43795379 		.ascii	"CySysLvdGetInterruptSource\000"
 7501      734C7664 
 7501      47657449 
 7501      6E746572 
 7501      72757074 
 7502              	.LASF27:
 7503 0331 43795379 		.ascii	"CySysClkImoStop\000"
 7503      73436C6B 
 7503      496D6F53 
 7503      746F7000 
 7504              	.LASF40:
 7505 0341 43795379 		.ascii	"CySysWdtEnable\000"
 7505      73576474 
 7505      456E6162 
 7505      6C6500
 7506              	.LASF137:
 7507 0350 43795379 		.ascii	"CySysClkLfclkPosedgeRestore\000"
 7507      73436C6B 
 7507      4C66636C 
 7507      6B506F73 
 7507      65646765 
 7508              	.LASF92:
 7509 036c 4379496E 		.ascii	"CyIntSetPending\000"
 7509      74536574 
 7509      50656E64 
 7509      696E6700 
 7510              	.LASF73:
ARM GAS  C:\Users\Pablo\AppData\Local\Temp\ccDGsedh.s 			page 193


 7511 037c 43794469 		.ascii	"CyDisableInts\000"
 7511      7361626C 
 7511      65496E74 
 7511      7300
 7512              	.LASF70:
 7513 038a 43795379 		.ascii	"CySysGetResetReason\000"
 7513      73476574 
 7513      52657365 
 7513      74526561 
 7513      736F6E00 
 7514              	.LASF3:
 7515 039e 73686F72 		.ascii	"short unsigned int\000"
 7515      7420756E 
 7515      7369676E 
 7515      65642069 
 7515      6E7400
 7516              	.LASF83:
 7517 03b1 4379496E 		.ascii	"CyIntSetVector\000"
 7517      74536574 
 7517      56656374 
 7517      6F7200
 7518              	.LASF134:
 7519 03c0 2E5C4765 		.ascii	".\\Generated_Source\\PSoC4\\CyLib.c\000"
 7519      6E657261 
 7519      7465645F 
 7519      536F7572 
 7519      63655C50 
 7520              	.LASF138:
 7521 03e1 4379456E 		.ascii	"CyEnterCriticalSection\000"
 7521      74657243 
 7521      72697469 
 7521      63616C53 
 7521      65637469 
 7522              	.LASF28:
 7523 03f8 43795379 		.ascii	"CySysClkIloStart\000"
 7523      73436C6B 
 7523      496C6F53 
 7523      74617274 
 7523      00
 7524              	.LASF100:
 7525 0409 43795379 		.ascii	"CySysClkWriteImoFreq\000"
 7525      73436C6B 
 7525      57726974 
 7525      65496D6F 
 7525      46726571 
 7526              	.LASF77:
 7527 041e 4379496E 		.ascii	"CyIntSetSysVector\000"
 7527      74536574 
 7527      53797356 
 7527      6563746F 
 7527      7200
 7528              	.LASF16:
 7529 0430 72656733 		.ascii	"reg32\000"
 7529      3200
 7530              	.LASF38:
 7531 0436 43795379 		.ascii	"CySysWdtWriteClearOnMatch\000"
 7531      73576474 
ARM GAS  C:\Users\Pablo\AppData\Local\Temp\ccDGsedh.s 			page 194


 7531      57726974 
 7531      65436C65 
 7531      61724F6E 
 7532              	.LASF113:
 7533 0450 43795379 		.ascii	"CySysTickStart\000"
 7533      73546963 
 7533      6B537461 
 7533      727400
 7534              	.LASF50:
 7535 045f 43795379 		.ascii	"CySysWdtReadClearOnMatch\000"
 7535      73576474 
 7535      52656164 
 7535      436C6561 
 7535      724F6E4D 
 7536              	.LASF18:
 7537 0478 73697A65 		.ascii	"sizetype\000"
 7537      74797065 
 7537      00
 7538              	.LASF93:
 7539 0481 4379496E 		.ascii	"CyIntClearPending\000"
 7539      74436C65 
 7539      61725065 
 7539      6E64696E 
 7539      6700
 7540              	.LASF79:
 7541 0493 61646472 		.ascii	"address\000"
 7541      65737300 
 7542              	.LASF103:
 7543 049b 62675472 		.ascii	"bgTrim5\000"
 7543      696D3500 
 7544              	.LASF120:
 7545 04a3 72657456 		.ascii	"retVal\000"
 7545      616C00
 7546              	.LASF107:
 7547 04aa 6D617463 		.ascii	"match\000"
 7547      6800
 7548              	.LASF131:
 7549 04b0 6379496D 		.ascii	"cyImoFreqMhz2Reg\000"
 7549      6F467265 
 7549      714D687A 
 7549      32526567 
 7549      00
 7550              	.LASF116:
 7551 04c1 43795379 		.ascii	"CySysTickGetValue\000"
 7551      73546963 
 7551      6B476574 
 7551      56616C75 
 7551      6500
 7552              	.LASF124:
 7553 04d3 63796465 		.ascii	"cydelayFreqHz\000"
 7553      6C617946 
 7553      72657148 
 7553      7A00
 7554              	.LASF63:
 7555 04e1 43795379 		.ascii	"CySysWdtResetCounters\000"
 7555      73576474 
 7555      52657365 
ARM GAS  C:\Users\Pablo\AppData\Local\Temp\ccDGsedh.s 			page 195


 7555      74436F75 
 7555      6E746572 
 7556              	.LASF85:
 7557 04f7 4379496E 		.ascii	"CyIntSetPriority\000"
 7557      74536574 
 7557      5072696F 
 7557      72697479 
 7557      00
 7558              	.LASF61:
 7559 0508 43795379 		.ascii	"CySysWdtClearInterrupt\000"
 7559      73576474 
 7559      436C6561 
 7559      72496E74 
 7559      65727275 
 7560              	.LASF12:
 7561 051f 666C6F61 		.ascii	"float\000"
 7561      7400
 7562              	.LASF132:
 7563 0525 43794578 		.ascii	"CyExitCriticalSection\000"
 7563      69744372 
 7563      69746963 
 7563      616C5365 
 7563      6374696F 
 7564              	.LASF101:
 7565 053b 66726571 		.ascii	"freq\000"
 7565      00
 7566              	.LASF19:
 7567 0540 63795379 		.ascii	"cySysTickCallback\000"
 7567      73546963 
 7567      6B43616C 
 7567      6C626163 
 7567      6B00
 7568              	.LASF84:
 7569 0552 4379496E 		.ascii	"CyIntGetVector\000"
 7569      74476574 
 7569      56656374 
 7569      6F7200
 7570              	.LASF97:
 7571 0561 6D696C6C 		.ascii	"milliseconds\000"
 7571      69736563 
 7571      6F6E6473 
 7571      00
 7572              	.LASF49:
 7573 056e 43795379 		.ascii	"CySysWdtReadToggleBit\000"
 7573      73576474 
 7573      52656164 
 7573      546F6767 
 7573      6C654269 
 7574              	.LASF54:
 7575 0584 43795379 		.ascii	"CySysWdtLocked\000"
 7575      73576474 
 7575      4C6F636B 
 7575      656400
 7576              	.LASF15:
 7577 0593 72656738 		.ascii	"reg8\000"
 7577      00
 7578              	.LASF66:
ARM GAS  C:\Users\Pablo\AppData\Local\Temp\ccDGsedh.s 			page 196


 7579 0598 74687265 		.ascii	"threshold\000"
 7579      73686F6C 
 7579      6400
 7580              	.LASF94:
 7581 05a2 43794861 		.ascii	"CyHalt\000"
 7581      6C7400
 7582              	.LASF1:
 7583 05a9 756E7369 		.ascii	"unsigned char\000"
 7583      676E6564 
 7583      20636861 
 7583      7200
 7584              	.LASF71:
 7585 05b7 72656173 		.ascii	"reason\000"
 7585      6F6E00
 7586              	.LASF129:
 7587 05be 6C66636C 		.ascii	"lfclkPosedgeEnabledWdtCounter\000"
 7587      6B506F73 
 7587      65646765 
 7587      456E6162 
 7587      6C656457 
 7588              	.LASF2:
 7589 05dc 73686F72 		.ascii	"short int\000"
 7589      7420696E 
 7589      7400
 7590              	.LASF48:
 7591 05e6 43795379 		.ascii	"CySysWdtReadCascade\000"
 7591      73576474 
 7591      52656164 
 7591      43617363 
 7591      61646500 
 7592              	.LASF42:
 7593 05fa 43795379 		.ascii	"CySysWdtDisable\000"
 7593      73576474 
 7593      44697361 
 7593      626C6500 
 7594              	.LASF89:
 7595 060a 4379496E 		.ascii	"CyIntEnable\000"
 7595      74456E61 
 7595      626C6500 
 7596              	.LASF82:
 7597 0616 4379496E 		.ascii	"CyIntGetSysVector\000"
 7597      74476574 
 7597      53797356 
 7597      6563746F 
 7597      7200
 7598              	.LASF51:
 7599 0628 43795379 		.ascii	"CySysWdtReadMatch\000"
 7599      73576474 
 7599      52656164 
 7599      4D617463 
 7599      6800
 7600              	.LASF31:
 7601 063a 636C6B53 		.ascii	"clkSelect\000"
 7601      656C6563 
 7601      7400
 7602              	.LASF55:
 7603 0644 43795379 		.ascii	"CySysClkIloEnabled\000"
ARM GAS  C:\Users\Pablo\AppData\Local\Temp\ccDGsedh.s 			page 197


 7603      73436C6B 
 7603      496C6F45 
 7603      6E61626C 
 7603      656400
 7604              	.LASF60:
 7605 0657 43795379 		.ascii	"CySysWdtGetInterruptSource\000"
 7605      73576474 
 7605      47657449 
 7605      6E746572 
 7605      72757074 
 7606              	.LASF56:
 7607 0672 43795379 		.ascii	"CySysTickServiceCallbacks\000"
 7607      73546963 
 7607      6B536572 
 7607      76696365 
 7607      43616C6C 
 7608              	.LASF81:
 7609 068c 72616D56 		.ascii	"ramVectorTable\000"
 7609      6563746F 
 7609      72546162 
 7609      6C6500
 7610              	.LASF14:
 7611 069b 63686172 		.ascii	"char\000"
 7611      00
 7612              	.LASF86:
 7613 06a0 7072696F 		.ascii	"priority\000"
 7613      72697479 
 7613      00
 7614              	.LASF21:
 7615 06a9 6D6F6465 		.ascii	"mode\000"
 7615      00
 7616              	.LASF17:
 7617 06ae 63796973 		.ascii	"cyisraddress\000"
 7617      72616464 
 7617      72657373 
 7617      00
 7618              	.LASF112:
 7619 06bb 43795379 		.ascii	"CySysTickEnable\000"
 7619      73546963 
 7619      6B456E61 
 7619      626C6500 
 7620              	.LASF34:
 7621 06cb 43795379 		.ascii	"CySysWdtLock\000"
 7621      73576474 
 7621      4C6F636B 
 7621      00
 7622              	.LASF133:
 7623 06d8 474E5520 		.ascii	"GNU C 4.8.4 20140526 (release) [ARM/embedded-4_8-br"
 7623      4320342E 
 7623      382E3420 
 7623      32303134 
 7623      30353236 
 7624 070b 616E6368 		.ascii	"anch revision 211358] -mcpu=cortex-m0 -mthumb -g -O"
 7624      20726576 
 7624      6973696F 
 7624      6E203231 
 7624      31333538 
ARM GAS  C:\Users\Pablo\AppData\Local\Temp\ccDGsedh.s 			page 198


 7625 073e 73202D66 		.ascii	"s -ffunction-sections\000"
 7625      66756E63 
 7625      74696F6E 
 7625      2D736563 
 7625      74696F6E 
 7626              	.LASF30:
 7627 0754 43795379 		.ascii	"CySysClkWriteSysclkDiv\000"
 7627      73436C6B 
 7627      57726974 
 7627      65537973 
 7627      636C6B44 
 7628              	.LASF118:
 7629 076b 43795379 		.ascii	"CySysTickSetCallback\000"
 7629      73546963 
 7629      6B536574 
 7629      43616C6C 
 7629      6261636B 
 7630              	.LASF122:
 7631 0780 43795379 		.ascii	"CySysTickCallbacks\000"
 7631      73546963 
 7631      6B43616C 
 7631      6C626163 
 7631      6B7300
 7632              	.LASF96:
 7633 0793 43794465 		.ascii	"CyDelay\000"
 7633      6C617900 
 7634              	.LASF114:
 7635 079b 43795379 		.ascii	"CySysTickDisableInterrupt\000"
 7635      73546963 
 7635      6B446973 
 7635      61626C65 
 7635      496E7465 
 7636              	.LASF135:
 7637 07b5 433A5C55 		.ascii	"C:\\Users\\Pablo\\Projects\\EzTempRH-for-Raspberry-"
 7637      73657273 
 7637      5C506162 
 7637      6C6F5C50 
 7637      726F6A65 
 7638 07e4 50695C66 		.ascii	"Pi\\firmware\\app.cydsn\000"
 7638      69726D77 
 7638      6172655C 
 7638      6170702E 
 7638      63796473 
 7639              	.LASF127:
 7640 07fa 63796465 		.ascii	"cydelay32kMs\000"
 7640      6C617933 
 7640      326B4D73 
 7640      00
 7641              	.LASF67:
 7642 0807 43795379 		.ascii	"CySysLvdDisable\000"
 7642      734C7664 
 7642      44697361 
 7642      626C6500 
 7643              	.LASF22:
 7644 0817 636F6E66 		.ascii	"configRegValue\000"
 7644      69675265 
 7644      6756616C 
ARM GAS  C:\Users\Pablo\AppData\Local\Temp\ccDGsedh.s 			page 199


 7644      756500
 7645              	.LASF126:
 7646 0826 63796465 		.ascii	"cydelayFreqMhz\000"
 7646      6C617946 
 7646      7265714D 
 7646      687A00
 7647              	.LASF62:
 7648 0835 7764744C 		.ascii	"wdtLockState\000"
 7648      6F636B53 
 7648      74617465 
 7648      00
 7649              	.LASF72:
 7650 0842 73746174 		.ascii	"status\000"
 7650      757300
 7651              	.LASF130:
 7652 0849 6C66636C 		.ascii	"lfclkPosedgeWdtCounter0Mode\000"
 7652      6B506F73 
 7652      65646765 
 7652      57647443 
 7652      6F756E74 
 7653              	.LASF110:
 7654 0865 43795379 		.ascii	"CySysTickStop\000"
 7654      73546963 
 7654      6B53746F 
 7654      7000
 7655              	.LASF44:
 7656 0873 63617363 		.ascii	"cascadeMask\000"
 7656      6164654D 
 7656      61736B00 
 7657              	.LASF32:
 7658 087f 64697669 		.ascii	"divider\000"
 7658      64657200 
 7659              	.LASF119:
 7660 0887 66756E63 		.ascii	"function\000"
 7660      74696F6E 
 7660      00
 7661              	.LASF26:
 7662 0890 43795379 		.ascii	"CySysClkImoStart\000"
 7662      73436C6B 
 7662      496D6F53 
 7662      74617274 
 7662      00
 7663              	.LASF36:
 7664 08a1 43795379 		.ascii	"CySysWdtReadEnabledStatus\000"
 7664      73576474 
 7664      52656164 
 7664      456E6162 
 7664      6C656453 
 7665              	.LASF104:
 7666 08bb 6E657749 		.ascii	"newImoTrim2Value\000"
 7666      6D6F5472 
 7666      696D3256 
 7666      616C7565 
 7666      00
 7667              	.LASF99:
 7668 08cc 6D696372 		.ascii	"microseconds\000"
 7668      6F736563 
ARM GAS  C:\Users\Pablo\AppData\Local\Temp\ccDGsedh.s 			page 200


 7668      6F6E6473 
 7668      00
 7669              	.LASF24:
 7670 08d9 43795379 		.ascii	"CySysTickSetReload\000"
 7670      73546963 
 7670      6B536574 
 7670      52656C6F 
 7670      616400
 7671              	.LASF46:
 7672 08ec 43795379 		.ascii	"CySysWdtWriteToggleBit\000"
 7672      73576474 
 7672      57726974 
 7672      65546F67 
 7672      676C6542 
 7673              		.ident	"GCC: (GNU Tools for ARM Embedded Processors) 4.8.4 20140526 (release) [ARM/embedded-4_8-br
