ARM GAS  C:\Users\Pablo\AppData\Local\Temp\ccuUCuef.s 			page 1


   1              		.cpu cortex-m0
   2              		.fpu softvfp
   3              		.eabi_attribute 20, 1
   4              		.eabi_attribute 21, 1
   5              		.eabi_attribute 23, 3
   6              		.eabi_attribute 24, 1
   7              		.eabi_attribute 25, 1
   8              		.eabi_attribute 26, 1
   9              		.eabi_attribute 30, 4
  10              		.eabi_attribute 34, 0
  11              		.eabi_attribute 18, 4
  12              		.code	16
  13              		.file	"main.c"
  14              		.text
  15              	.Ltext0:
  16              		.cfi_sections	.debug_frame
  17              		.global	__aeabi_idiv
  18              		.section	.text.read,"ax",%progbits
  19              		.align	1
  20              		.global	read
  21              		.code	16
  22              		.thumb_func
  23              		.type	read, %function
  24              	read:
  25              	.LFB33:
  26              		.file 1 ".\\main.c"
   1:.\main.c      **** /*
   2:.\main.c      **** 
   3:.\main.c      **** The MIT License (MIT)
   4:.\main.c      **** 
   5:.\main.c      **** Copyright (c) 2014 CAIMANICS (hola@caimanics.com)
   6:.\main.c      **** Author: Pablo Bacho (pablo.bacho@caimanics.com)
   7:.\main.c      **** 
   8:.\main.c      **** Permission is hereby granted, free of charge, to any person obtaining a copy
   9:.\main.c      **** of this software and associated documentation files (the "Software"), to deal
  10:.\main.c      **** in the Software without restriction, including without limitation the rights
  11:.\main.c      **** to use, copy, modify, merge, publish, distribute, sublicense, and/or sell
  12:.\main.c      **** copies of the Software, and to permit persons to whom the Software is
  13:.\main.c      **** furnished to do so, subject to the following conditions:
  14:.\main.c      **** 
  15:.\main.c      **** The above copyright notice and this permission notice shall be included in all
  16:.\main.c      **** copies or substantial portions of the Software.
  17:.\main.c      **** 
  18:.\main.c      **** THE SOFTWARE IS PROVIDED "AS IS", WITHOUT WARRANTY OF ANY KIND, EXPRESS OR
  19:.\main.c      **** IMPLIED, INCLUDING BUT NOT LIMITED TO THE WARRANTIES OF MERCHANTABILITY,
  20:.\main.c      **** FITNESS FOR A PARTICULAR PURPOSE AND NONINFRINGEMENT. IN NO EVENT SHALL THE
  21:.\main.c      **** AUTHORS OR COPYRIGHT HOLDERS BE LIABLE FOR ANY CLAIM, DAMAGES OR OTHER
  22:.\main.c      **** LIABILITY, WHETHER IN AN ACTION OF CONTRACT, TORT OR OTHERWISE, ARISING FROM,
  23:.\main.c      **** OUT OF OR IN CONNECTION WITH THE SOFTWARE OR THE USE OR OTHER DEALINGS IN THE
  24:.\main.c      **** SOFTWARE.
  25:.\main.c      **** 
  26:.\main.c      **** */
  27:.\main.c      **** 
  28:.\main.c      **** #include <project.h>
  29:.\main.c      **** 
  30:.\main.c      **** #define _VERSION_       0x0101u
  31:.\main.c      **** 
ARM GAS  C:\Users\Pablo\AppData\Local\Temp\ccuUCuef.s 			page 2


  32:.\main.c      **** struct REF {
  33:.\main.c      ****     int16 vss;
  34:.\main.c      ****     int16 vdd;
  35:.\main.c      **** } REF;
  36:.\main.c      **** 
  37:.\main.c      **** struct T {
  38:.\main.c      ****     int16 C;
  39:.\main.c      ****     int16 F;
  40:.\main.c      **** } T;
  41:.\main.c      **** 
  42:.\main.c      **** struct RH {
  43:.\main.c      ****     int16 humidity;
  44:.\main.c      **** } RH;
  45:.\main.c      **** 
  46:.\main.c      **** struct EXT {
  47:.\main.c      ****     int16 counts;
  48:.\main.c      **** } EXT;
  49:.\main.c      **** 
  50:.\main.c      **** 
  51:.\main.c      **** void read() {
  27              		.loc 1 51 0
  28              		.cfi_startproc
  29 0000 70B5     		push	{r4, r5, r6, lr}
  30              		.cfi_def_cfa_offset 16
  31              		.cfi_offset 4, -16
  32              		.cfi_offset 5, -12
  33              		.cfi_offset 6, -8
  34              		.cfi_offset 14, -4
  52:.\main.c      ****     ADC_Wakeup();
  35              		.loc 1 52 0
  36 0002 FFF7FEFF 		bl	ADC_Wakeup
  37              	.LVL0:
  53:.\main.c      ****     Opamp_Wakeup();
  38              		.loc 1 53 0
  39 0006 FFF7FEFF 		bl	Opamp_Wakeup
  40              	.LVL1:
  54:.\main.c      ****     AMux_Start();
  41              		.loc 1 54 0
  42 000a FFF7FEFF 		bl	AMux_Start
  43              	.LVL2:
  55:.\main.c      ****     
  56:.\main.c      ****     EN_Write(1);
  44              		.loc 1 56 0
  45 000e 0120     		mov	r0, #1
  46 0010 FFF7FEFF 		bl	EN_Write
  47              	.LVL3:
  57:.\main.c      ****     
  58:.\main.c      ****     CyDelay(70);
  48              		.loc 1 58 0
  49 0014 4620     		mov	r0, #70
  50 0016 FFF7FEFF 		bl	CyDelay
  51              	.LVL4:
  59:.\main.c      ****     
  60:.\main.c      ****     /* VSS REF */
  61:.\main.c      ****     AMux_Next();
  52              		.loc 1 61 0
  53 001a FFF7FEFF 		bl	AMux_Next
ARM GAS  C:\Users\Pablo\AppData\Local\Temp\ccuUCuef.s 			page 3


  54              	.LVL5:
  62:.\main.c      ****     
  63:.\main.c      ****     ADC_StartConvert();
  55              		.loc 1 63 0
  56 001e FFF7FEFF 		bl	ADC_StartConvert
  57              	.LVL6:
  64:.\main.c      ****     ADC_IsEndConversion(ADC_WAIT_FOR_RESULT);
  58              		.loc 1 64 0
  59 0022 0220     		mov	r0, #2
  60 0024 FFF7FEFF 		bl	ADC_IsEndConversion
  61              	.LVL7:
  65:.\main.c      ****     ADC_StopConvert();
  62              		.loc 1 65 0
  63 0028 FFF7FEFF 		bl	ADC_StopConvert
  64              	.LVL8:
  66:.\main.c      ****     
  67:.\main.c      ****     REF.vss = ADC_GetResult16(0);
  65              		.loc 1 67 0
  66 002c 0020     		mov	r0, #0
  67 002e FFF7FEFF 		bl	ADC_GetResult16
  68              	.LVL9:
  69 0032 344C     		ldr	r4, .L2
  70 0034 011C     		mov	r1, r0
  71 0036 2080     		strh	r0, [r4]
  68:.\main.c      ****     ADC_SetOffset(0, REF.vss);
  72              		.loc 1 68 0
  73 0038 0020     		mov	r0, #0
  74 003a FFF7FEFF 		bl	ADC_SetOffset
  75              	.LVL10:
  69:.\main.c      ****     
  70:.\main.c      ****     /* VDD */
  71:.\main.c      ****     AMux_Next();
  76              		.loc 1 71 0
  77 003e FFF7FEFF 		bl	AMux_Next
  78              	.LVL11:
  72:.\main.c      ****     
  73:.\main.c      ****     ADC_StartConvert();
  79              		.loc 1 73 0
  80 0042 FFF7FEFF 		bl	ADC_StartConvert
  81              	.LVL12:
  74:.\main.c      ****     ADC_IsEndConversion(ADC_WAIT_FOR_RESULT);
  82              		.loc 1 74 0
  83 0046 0220     		mov	r0, #2
  84 0048 FFF7FEFF 		bl	ADC_IsEndConversion
  85              	.LVL13:
  75:.\main.c      ****     ADC_StopConvert();
  86              		.loc 1 75 0
  87 004c FFF7FEFF 		bl	ADC_StopConvert
  88              	.LVL14:
  76:.\main.c      ****     
  77:.\main.c      ****     REF.vdd = ADC_GetResult16(0) << 1;
  89              		.loc 1 77 0
  90 0050 0020     		mov	r0, #0
  91 0052 FFF7FEFF 		bl	ADC_GetResult16
  92              	.LVL15:
  93 0056 4000     		lsl	r0, r0, #1
  94 0058 6080     		strh	r0, [r4, #2]
ARM GAS  C:\Users\Pablo\AppData\Local\Temp\ccuUCuef.s 			page 4


  78:.\main.c      ****     
  79:.\main.c      ****     /* Thermistor */
  80:.\main.c      ****     AMux_Next();
  95              		.loc 1 80 0
  96 005a FFF7FEFF 		bl	AMux_Next
  97              	.LVL16:
  81:.\main.c      ****     
  82:.\main.c      ****     ADC_StartConvert();
  98              		.loc 1 82 0
  99 005e FFF7FEFF 		bl	ADC_StartConvert
 100              	.LVL17:
  83:.\main.c      ****     ADC_IsEndConversion(ADC_WAIT_FOR_RESULT);
 101              		.loc 1 83 0
 102 0062 0220     		mov	r0, #2
 103 0064 FFF7FEFF 		bl	ADC_IsEndConversion
 104              	.LVL18:
  84:.\main.c      ****     ADC_StopConvert();
 105              		.loc 1 84 0
 106 0068 FFF7FEFF 		bl	ADC_StopConvert
 107              	.LVL19:
  85:.\main.c      ****     
  86:.\main.c      ****     T.C = Thermistor_GetTemperature(Thermistor_GetResistance(REF.vdd - ADC_GetResult16(0), ADC_GetR
 108              		.loc 1 86 0
 109 006c 0020     		mov	r0, #0
 110 006e 6688     		ldrh	r6, [r4, #2]
 111 0070 FFF7FEFF 		bl	ADC_GetResult16
 112              	.LVL20:
 113 0074 051C     		mov	r5, r0
 114 0076 0020     		mov	r0, #0
 115 0078 FFF7FEFF 		bl	ADC_GetResult16
 116              	.LVL21:
 117 007c 751B     		sub	r5, r6, r5
 118 007e 011C     		mov	r1, r0
 119 0080 28B2     		sxth	r0, r5
 120 0082 FFF7FEFF 		bl	Thermistor_GetResistance
 121              	.LVL22:
 122 0086 FFF7FEFF 		bl	Thermistor_GetTemperature
 123              	.LVL23:
 124 008a 0A21     		mov	r1, #10
 125 008c FFF7FEFF 		bl	__aeabi_idiv
 126              	.LVL24:
 127 0090 1D4D     		ldr	r5, .L2+4
 128 0092 80B2     		uxth	r0, r0
  87:.\main.c      ****     T.F = ((T.C * 9) /5) + 320;
 129              		.loc 1 87 0
 130 0094 0923     		mov	r3, #9
  86:.\main.c      ****     T.C = Thermistor_GetTemperature(Thermistor_GetResistance(REF.vdd - ADC_GetResult16(0), ADC_GetR
 131              		.loc 1 86 0
 132 0096 2880     		strh	r0, [r5]
 133              		.loc 1 87 0
 134 0098 00B2     		sxth	r0, r0
 135 009a 5843     		mul	r0, r3
 136 009c 0521     		mov	r1, #5
 137 009e FFF7FEFF 		bl	__aeabi_idiv
 138              	.LVL25:
 139 00a2 4130     		add	r0, r0, #65
 140 00a4 FF30     		add	r0, r0, #255
ARM GAS  C:\Users\Pablo\AppData\Local\Temp\ccuUCuef.s 			page 5


 141 00a6 6880     		strh	r0, [r5, #2]
  88:.\main.c      ****     
  89:.\main.c      ****     /* Relative humidity */
  90:.\main.c      ****     AMux_Next();
 142              		.loc 1 90 0
 143 00a8 FFF7FEFF 		bl	AMux_Next
 144              	.LVL26:
  91:.\main.c      ****     
  92:.\main.c      ****     ADC_StartConvert();
 145              		.loc 1 92 0
 146 00ac FFF7FEFF 		bl	ADC_StartConvert
 147              	.LVL27:
  93:.\main.c      ****     ADC_IsEndConversion(ADC_WAIT_FOR_RESULT);
 148              		.loc 1 93 0
 149 00b0 0220     		mov	r0, #2
 150 00b2 FFF7FEFF 		bl	ADC_IsEndConversion
 151              	.LVL28:
  94:.\main.c      ****     ADC_StopConvert();
 152              		.loc 1 94 0
 153 00b6 FFF7FEFF 		bl	ADC_StopConvert
 154              	.LVL29:
  95:.\main.c      ****     
  96:.\main.c      ****     RH.humidity = (ADC_GetResult16(0) * 1000) / REF.vdd;
 155              		.loc 1 96 0
 156 00ba 0020     		mov	r0, #0
 157 00bc FFF7FEFF 		bl	ADC_GetResult16
 158              	.LVL30:
 159 00c0 FA23     		mov	r3, #250
 160 00c2 9B00     		lsl	r3, r3, #2
 161 00c4 5843     		mul	r0, r3
 162 00c6 0223     		mov	r3, #2
 163 00c8 E15E     		ldrsh	r1, [r4, r3]
 164 00ca FFF7FEFF 		bl	__aeabi_idiv
 165              	.LVL31:
 166 00ce 0F4B     		ldr	r3, .L2+8
  97:.\main.c      ****     
  98:.\main.c      ****     /* External signal */
  99:.\main.c      ****     AMux_Next();
 100:.\main.c      ****     
 101:.\main.c      ****     ADC_StartConvert();
 102:.\main.c      ****     ADC_IsEndConversion(ADC_WAIT_FOR_RESULT);
 103:.\main.c      ****     ADC_StopConvert();
 104:.\main.c      ****     
 105:.\main.c      ****     EXT.counts = ADC_GetResult16(0);
 106:.\main.c      **** 
 107:.\main.c      ****     EN_Write(0);
 108:.\main.c      ****     
 109:.\main.c      ****     AMux_Stop();
 110:.\main.c      ****     ADC_Sleep();
 111:.\main.c      ****     Opamp_Sleep();
 112:.\main.c      **** }
 167              		.loc 1 112 0
 168              		@ sp needed
  96:.\main.c      ****     RH.humidity = (ADC_GetResult16(0) * 1000) / REF.vdd;
 169              		.loc 1 96 0
 170 00d0 1880     		strh	r0, [r3]
  99:.\main.c      ****     AMux_Next();
ARM GAS  C:\Users\Pablo\AppData\Local\Temp\ccuUCuef.s 			page 6


 171              		.loc 1 99 0
 172 00d2 FFF7FEFF 		bl	AMux_Next
 173              	.LVL32:
 101:.\main.c      ****     ADC_StartConvert();
 174              		.loc 1 101 0
 175 00d6 FFF7FEFF 		bl	ADC_StartConvert
 176              	.LVL33:
 102:.\main.c      ****     ADC_IsEndConversion(ADC_WAIT_FOR_RESULT);
 177              		.loc 1 102 0
 178 00da 0220     		mov	r0, #2
 179 00dc FFF7FEFF 		bl	ADC_IsEndConversion
 180              	.LVL34:
 103:.\main.c      ****     ADC_StopConvert();
 181              		.loc 1 103 0
 182 00e0 FFF7FEFF 		bl	ADC_StopConvert
 183              	.LVL35:
 105:.\main.c      ****     EXT.counts = ADC_GetResult16(0);
 184              		.loc 1 105 0
 185 00e4 0020     		mov	r0, #0
 186 00e6 FFF7FEFF 		bl	ADC_GetResult16
 187              	.LVL36:
 188 00ea 094B     		ldr	r3, .L2+12
 189 00ec 1880     		strh	r0, [r3]
 107:.\main.c      ****     EN_Write(0);
 190              		.loc 1 107 0
 191 00ee 0020     		mov	r0, #0
 192 00f0 FFF7FEFF 		bl	EN_Write
 193              	.LVL37:
 109:.\main.c      ****     AMux_Stop();
 194              		.loc 1 109 0
 195 00f4 FFF7FEFF 		bl	AMux_Stop
 196              	.LVL38:
 110:.\main.c      ****     ADC_Sleep();
 197              		.loc 1 110 0
 198 00f8 FFF7FEFF 		bl	ADC_Sleep
 199              	.LVL39:
 111:.\main.c      ****     Opamp_Sleep();
 200              		.loc 1 111 0
 201 00fc FFF7FEFF 		bl	Opamp_Sleep
 202              	.LVL40:
 203              		.loc 1 112 0
 204 0100 70BD     		pop	{r4, r5, r6, pc}
 205              	.L3:
 206 0102 C046     		.align	2
 207              	.L2:
 208 0104 00000000 		.word	REF
 209 0108 00000000 		.word	T
 210 010c 00000000 		.word	RH
 211 0110 00000000 		.word	EXT
 212              		.cfi_endproc
 213              	.LFE33:
 214              		.size	read, .-read
 215              		.section	.text.startup.main,"ax",%progbits
 216              		.align	1
 217              		.global	main
 218              		.code	16
 219              		.thumb_func
ARM GAS  C:\Users\Pablo\AppData\Local\Temp\ccuUCuef.s 			page 7


 220              		.type	main, %function
 221              	main:
 222              	.LFB34:
 113:.\main.c      **** 
 114:.\main.c      **** int main()
 115:.\main.c      **** {
 223              		.loc 1 115 0
 224              		.cfi_startproc
 225 0000 38B5     		push	{r3, r4, r5, lr}
 226              		.cfi_def_cfa_offset 16
 227              		.cfi_offset 3, -16
 228              		.cfi_offset 4, -12
 229              		.cfi_offset 5, -8
 230              		.cfi_offset 14, -4
 116:.\main.c      ****     uint8 cmd, checksum, txbyte;
 117:.\main.c      ****     
 118:.\main.c      ****     UART_Start();
 231              		.loc 1 118 0
 232 0002 FFF7FEFF 		bl	UART_Start
 233              	.LVL41:
 119:.\main.c      ****     ADC_Start();
 234              		.loc 1 119 0
 235 0006 FFF7FEFF 		bl	ADC_Start
 236              	.LVL42:
 120:.\main.c      ****     Opamp_Start();
 237              		.loc 1 120 0
 238 000a FFF7FEFF 		bl	Opamp_Start
 239              	.LVL43:
 121:.\main.c      ****     
 122:.\main.c      ****     ADC_Sleep();
 240              		.loc 1 122 0
 241 000e FFF7FEFF 		bl	ADC_Sleep
 242              	.LVL44:
 123:.\main.c      ****     Opamp_Sleep();
 243              		.loc 1 123 0
 244 0012 FFF7FEFF 		bl	Opamp_Sleep
 245              	.LVL45:
 246              	.L17:
 124:.\main.c      ****         
 125:.\main.c      ****     for(;;)
 126:.\main.c      ****     {   
 127:.\main.c      ****         UART_SpiUartClearRxBuffer();
 247              		.loc 1 127 0
 248 0016 FFF7FEFF 		bl	UART_SpiUartClearRxBuffer
 249              	.LVL46:
 250              	.L6:
 128:.\main.c      ****         while(UART_SpiUartGetRxBufferSize() == 0u);
 251              		.loc 1 128 0 discriminator 1
 252 001a FFF7FEFF 		bl	UART_SpiUartGetRxBufferSize
 253              	.LVL47:
 254 001e 0028     		cmp	r0, #0
 255 0020 FBD0     		beq	.L6
 129:.\main.c      ****         
 130:.\main.c      ****         cmd = UART_UartGetByte();
 256              		.loc 1 130 0
 257 0022 FFF7FEFF 		bl	UART_UartGetByte
 258              	.LVL48:
ARM GAS  C:\Users\Pablo\AppData\Local\Temp\ccuUCuef.s 			page 8


 259 0026 051C     		mov	r5, r0
 260              	.LVL49:
 131:.\main.c      ****         
 132:.\main.c      ****         checksum = 0xFF;
 133:.\main.c      ****         
 134:.\main.c      ****         read();
 135:.\main.c      ****         
 136:.\main.c      ****         checksum -= cmd;
 261              		.loc 1 136 0
 262 0028 EC43     		mvn	r4, r5
 137:.\main.c      ****         UART_UartPutChar(cmd); // Echo back
 263              		.loc 1 137 0
 264 002a EDB2     		uxtb	r5, r5
 134:.\main.c      ****         read();
 265              		.loc 1 134 0
 266 002c FFF7FEFF 		bl	read
 267              	.LVL50:
 268              		.loc 1 137 0
 269 0030 281C     		mov	r0, r5
 270 0032 FFF7FEFF 		bl	UART_SpiUartWriteTxData
 271              	.LVL51:
 138:.\main.c      ****         
 139:.\main.c      ****         switch(cmd) {
 272              		.loc 1 139 0
 273 0036 281C     		mov	r0, r5
 274 0038 6338     		sub	r0, r0, #99
 136:.\main.c      ****         checksum -= cmd;
 275              		.loc 1 136 0
 276 003a E4B2     		uxtb	r4, r4
 277              	.LVL52:
 278              		.loc 1 139 0
 279 003c 1528     		cmp	r0, #21
 280 003e 38D8     		bhi	.L7
 281 0040 FFF7FEFF 		bl	__gnu_thumb1_case_uqi
 282              	.L9:
 283 0044 0B       		.byte	(.L8-.L9)/2
 284 0045 0D       		.byte	(.L10-.L9)/2
 285 0046 37       		.byte	(.L7-.L9)/2
 286 0047 0F       		.byte	(.L11-.L9)/2
 287 0048 13       		.byte	(.L12-.L9)/2
 288 0049 1B       		.byte	(.L13-.L9)/2
 289 004a 23       		.byte	(.L14-.L9)/2
 290 004b 37       		.byte	(.L7-.L9)/2
 291 004c 37       		.byte	(.L7-.L9)/2
 292 004d 37       		.byte	(.L7-.L9)/2
 293 004e 37       		.byte	(.L7-.L9)/2
 294 004f 37       		.byte	(.L7-.L9)/2
 295 0050 37       		.byte	(.L7-.L9)/2
 296 0051 37       		.byte	(.L7-.L9)/2
 297 0052 37       		.byte	(.L7-.L9)/2
 298 0053 37       		.byte	(.L7-.L9)/2
 299 0054 37       		.byte	(.L7-.L9)/2
 300 0055 37       		.byte	(.L7-.L9)/2
 301 0056 37       		.byte	(.L7-.L9)/2
 302 0057 2F       		.byte	(.L15-.L9)/2
 303 0058 37       		.byte	(.L7-.L9)/2
 304 0059 25       		.byte	(.L16-.L9)/2
ARM GAS  C:\Users\Pablo\AppData\Local\Temp\ccuUCuef.s 			page 9


 305              		.p2align 1
 306              	.L8:
 140:.\main.c      ****             case 'c': // Temperature in Celsius
 141:.\main.c      ****                 txbyte = T.C/10;
 307              		.loc 1 141 0
 308 005a 184B     		ldr	r3, .L24
 309 005c 0EE0     		b	.L21
 310              	.L10:
 142:.\main.c      ****                 checksum -= txbyte;
 143:.\main.c      ****                 UART_UartPutChar(txbyte);
 144:.\main.c      ****             break;
 145:.\main.c      ****             case 'd': // Temperature in Celsius .1
 146:.\main.c      ****                 txbyte = T.C >> 8;
 311              		.loc 1 146 0
 312 005e 174D     		ldr	r5, .L24
 313 0060 16E0     		b	.L20
 314              	.L11:
 147:.\main.c      ****                 checksum -= txbyte;
 148:.\main.c      ****                 UART_UartPutChar(txbyte);
 149:.\main.c      ****                 txbyte = T.C;
 150:.\main.c      ****                 checksum -= txbyte;
 151:.\main.c      ****                 UART_UartPutChar(txbyte);
 152:.\main.c      ****             break;
 153:.\main.c      ****             case 'f':
 154:.\main.c      ****                 txbyte = T.F/10;
 315              		.loc 1 154 0
 316 0062 164B     		ldr	r3, .L24
 317 0064 0222     		mov	r2, #2
 318 0066 985E     		ldrsh	r0, [r3, r2]
 319 0068 0AE0     		b	.L22
 320              	.L12:
 155:.\main.c      ****                 checksum -= txbyte;
 156:.\main.c      ****                 UART_UartPutChar(txbyte);
 157:.\main.c      ****             break;
 158:.\main.c      ****             case 'g':
 159:.\main.c      ****                 txbyte = T.F >> 8;
 321              		.loc 1 159 0
 322 006a 144D     		ldr	r5, .L24
 323 006c E878     		ldrb	r0, [r5, #3]
 324              	.LVL53:
 160:.\main.c      ****                 checksum -= txbyte;
 325              		.loc 1 160 0
 326 006e 241A     		sub	r4, r4, r0
 327              	.LVL54:
 328 0070 E4B2     		uxtb	r4, r4
 329              	.LVL55:
 161:.\main.c      ****                 UART_UartPutChar(txbyte);
 330              		.loc 1 161 0
 331 0072 FFF7FEFF 		bl	UART_SpiUartWriteTxData
 332              	.LVL56:
 162:.\main.c      ****                 txbyte = T.F;
 333              		.loc 1 162 0
 334 0076 A878     		ldrb	r0, [r5, #2]
 335              	.LVL57:
 336 0078 10E0     		b	.L19
 337              	.LVL58:
 338              	.L13:
ARM GAS  C:\Users\Pablo\AppData\Local\Temp\ccuUCuef.s 			page 10


 163:.\main.c      ****                 checksum -= txbyte;
 164:.\main.c      ****                 UART_UartPutChar(txbyte);
 165:.\main.c      ****             break;
 166:.\main.c      ****             case 'h':
 167:.\main.c      ****                 txbyte = RH.humidity /10;
 339              		.loc 1 167 0
 340 007a 114B     		ldr	r3, .L24+4
 341              	.L21:
 342 007c 0022     		mov	r2, #0
 343 007e 985E     		ldrsh	r0, [r3, r2]
 344              	.L22:
 345 0080 0A21     		mov	r1, #10
 346 0082 FFF7FEFF 		bl	__aeabi_idiv
 347              	.LVL59:
 348 0086 C0B2     		uxtb	r0, r0
 349              	.LVL60:
 350 0088 08E0     		b	.L19
 351              	.LVL61:
 352              	.L14:
 168:.\main.c      ****                 checksum -= txbyte;
 169:.\main.c      ****                 UART_UartPutChar(txbyte);
 170:.\main.c      ****             break;
 171:.\main.c      ****             case 'i':
 172:.\main.c      ****                 txbyte = RH.humidity >> 8;
 353              		.loc 1 172 0
 354 008a 0D4D     		ldr	r5, .L24+4
 355 008c 00E0     		b	.L20
 356              	.L16:
 173:.\main.c      ****                 checksum -= txbyte;
 174:.\main.c      ****                 UART_UartPutChar(txbyte);
 175:.\main.c      ****                 txbyte = RH.humidity;
 176:.\main.c      ****                 checksum -= txbyte;
 177:.\main.c      ****                 UART_UartPutChar(txbyte);
 178:.\main.c      ****             break;
 179:.\main.c      ****             case 'x':
 180:.\main.c      ****                 txbyte = EXT.counts >> 8;
 357              		.loc 1 180 0
 358 008e 0D4D     		ldr	r5, .L24+8
 359              	.L20:
 360 0090 6878     		ldrb	r0, [r5, #1]
 361              	.LVL62:
 181:.\main.c      ****                 checksum -= txbyte;
 362              		.loc 1 181 0
 363 0092 241A     		sub	r4, r4, r0
 364              	.LVL63:
 182:.\main.c      ****                 UART_UartPutChar(txbyte);
 365              		.loc 1 182 0
 366 0094 FFF7FEFF 		bl	UART_SpiUartWriteTxData
 367              	.LVL64:
 183:.\main.c      ****                 txbyte = EXT.counts;
 368              		.loc 1 183 0
 369 0098 2878     		ldrb	r0, [r5]
 181:.\main.c      ****                 checksum -= txbyte;
 370              		.loc 1 181 0
 371 009a E4B2     		uxtb	r4, r4
 372              	.LVL65:
 373              	.L19:
ARM GAS  C:\Users\Pablo\AppData\Local\Temp\ccuUCuef.s 			page 11


 184:.\main.c      ****                 checksum -= txbyte;
 374              		.loc 1 184 0
 375 009c 241A     		sub	r4, r4, r0
 376 009e E4B2     		uxtb	r4, r4
 377              	.LVL66:
 378 00a0 05E0     		b	.L18
 379              	.LVL67:
 380              	.L15:
 185:.\main.c      ****                 UART_UartPutChar(txbyte);
 186:.\main.c      ****             break;
 187:.\main.c      ****             case 'v':
 188:.\main.c      ****                 txbyte = _VERSION_ >> 8;
 189:.\main.c      ****                 checksum -= txbyte;
 190:.\main.c      ****                 UART_UartPutChar(txbyte);
 381              		.loc 1 190 0
 382 00a2 0120     		mov	r0, #1
 191:.\main.c      ****                 txbyte = _VERSION_ & 0x00FF;
 192:.\main.c      ****                 checksum -= txbyte;
 383              		.loc 1 192 0
 384 00a4 023C     		sub	r4, r4, #2
 385              	.LVL68:
 190:.\main.c      ****                 UART_UartPutChar(txbyte);
 386              		.loc 1 190 0
 387 00a6 FFF7FEFF 		bl	UART_SpiUartWriteTxData
 388              	.LVL69:
 389              		.loc 1 192 0
 390 00aa E4B2     		uxtb	r4, r4
 391              	.LVL70:
 193:.\main.c      ****                 UART_UartPutChar(txbyte);
 392              		.loc 1 193 0
 393 00ac 0120     		mov	r0, #1
 394              	.LVL71:
 395              	.L18:
 396 00ae FFF7FEFF 		bl	UART_SpiUartWriteTxData
 397              	.LVL72:
 398              	.L7:
 194:.\main.c      ****             break;
 195:.\main.c      ****             default:
 196:.\main.c      ****                 
 197:.\main.c      ****             break;
 198:.\main.c      ****         }
 199:.\main.c      ****         
 200:.\main.c      ****         UART_UartPutChar(checksum);
 399              		.loc 1 200 0
 400 00b2 201C     		mov	r0, r4
 401 00b4 FFF7FEFF 		bl	UART_SpiUartWriteTxData
 402              	.LVL73:
 201:.\main.c      ****     }
 403              		.loc 1 201 0
 404 00b8 ADE7     		b	.L17
 405              	.L25:
 406 00ba C046     		.align	2
 407              	.L24:
 408 00bc 00000000 		.word	T
 409 00c0 00000000 		.word	RH
 410 00c4 00000000 		.word	EXT
 411              		.cfi_endproc
ARM GAS  C:\Users\Pablo\AppData\Local\Temp\ccuUCuef.s 			page 12


 412              	.LFE34:
 413              		.size	main, .-main
 414              		.comm	EXT,2,2
 415              		.comm	RH,2,2
 416              		.comm	T,4,2
 417              		.comm	REF,4,2
 418              		.text
 419              	.Letext0:
 420              		.file 2 ".\\Generated_Source\\PSoC4/cytypes.h"
 421              		.file 3 ".\\Generated_Source\\PSoC4/ADC.h"
 422              		.file 4 ".\\Generated_Source\\PSoC4/Opamp.h"
 423              		.file 5 ".\\Generated_Source\\PSoC4/AMux.h"
 424              		.file 6 ".\\Generated_Source\\PSoC4/EN.h"
 425              		.file 7 ".\\Generated_Source\\PSoC4/CyLib.h"
 426              		.file 8 ".\\Generated_Source\\PSoC4/cyfitter_cfg.h"
 427              		.file 9 ".\\Generated_Source\\PSoC4/Thermistor.h"
 428              		.file 10 ".\\Generated_Source\\PSoC4/UART.h"
 429              		.file 11 ".\\Generated_Source\\PSoC4/UART_SPI_UART.h"