ARM GAS  C:\Users\Pablo\AppData\Local\Temp\cckirm5c.s 			page 1


   1              		.cpu cortex-m0
   2              		.fpu softvfp
   3              		.eabi_attribute 20, 1
   4              		.eabi_attribute 21, 1
   5              		.eabi_attribute 23, 3
   6              		.eabi_attribute 24, 1
   7              		.eabi_attribute 25, 1
   8              		.eabi_attribute 26, 1
   9              		.eabi_attribute 30, 4
  10              		.eabi_attribute 34, 0
  11              		.eabi_attribute 18, 4
  12              		.code	16
  13              		.file	"UART_UART.c"
  14              		.text
  15              	.Ltext0:
  16              		.cfi_sections	.debug_frame
  17              		.section	.text.UART_UartInit,"ax",%progbits
  18              		.align	1
  19              		.global	UART_UartInit
  20              		.code	16
  21              		.thumb_func
  22              		.type	UART_UartInit, %function
  23              	UART_UartInit:
  24              	.LFB0:
  25              		.file 1 ".\\Generated_Source\\PSoC4\\UART_UART.c"
   1:.\Generated_Source\PSoC4/UART_UART.c **** /*******************************************************************************
   2:.\Generated_Source\PSoC4/UART_UART.c **** * File Name: UART_UART.c
   3:.\Generated_Source\PSoC4/UART_UART.c **** * Version 2.0
   4:.\Generated_Source\PSoC4/UART_UART.c **** *
   5:.\Generated_Source\PSoC4/UART_UART.c **** * Description:
   6:.\Generated_Source\PSoC4/UART_UART.c **** *  This file provides the source code to the API for the SCB Component in
   7:.\Generated_Source\PSoC4/UART_UART.c **** *  UART mode.
   8:.\Generated_Source\PSoC4/UART_UART.c **** *
   9:.\Generated_Source\PSoC4/UART_UART.c **** * Note:
  10:.\Generated_Source\PSoC4/UART_UART.c **** *
  11:.\Generated_Source\PSoC4/UART_UART.c **** *******************************************************************************
  12:.\Generated_Source\PSoC4/UART_UART.c **** * Copyright 2013-2014, Cypress Semiconductor Corporation.  All rights reserved.
  13:.\Generated_Source\PSoC4/UART_UART.c **** * You may use this file only in accordance with the license, terms, conditions,
  14:.\Generated_Source\PSoC4/UART_UART.c **** * disclaimers, and limitations in the end user license agreement accompanying
  15:.\Generated_Source\PSoC4/UART_UART.c **** * the software package with which this file was provided.
  16:.\Generated_Source\PSoC4/UART_UART.c **** *******************************************************************************/
  17:.\Generated_Source\PSoC4/UART_UART.c **** 
  18:.\Generated_Source\PSoC4/UART_UART.c **** #include "UART_PVT.h"
  19:.\Generated_Source\PSoC4/UART_UART.c **** #include "UART_SPI_UART_PVT.h"
  20:.\Generated_Source\PSoC4/UART_UART.c **** 
  21:.\Generated_Source\PSoC4/UART_UART.c **** 
  22:.\Generated_Source\PSoC4/UART_UART.c **** #if(UART_SCB_MODE_UNCONFIG_CONST_CFG)
  23:.\Generated_Source\PSoC4/UART_UART.c **** 
  24:.\Generated_Source\PSoC4/UART_UART.c ****     /***************************************
  25:.\Generated_Source\PSoC4/UART_UART.c ****     *  Configuration Structure Initialization
  26:.\Generated_Source\PSoC4/UART_UART.c ****     ***************************************/
  27:.\Generated_Source\PSoC4/UART_UART.c **** 
  28:.\Generated_Source\PSoC4/UART_UART.c ****     const UART_UART_INIT_STRUCT UART_configUart =
  29:.\Generated_Source\PSoC4/UART_UART.c ****     {
  30:.\Generated_Source\PSoC4/UART_UART.c ****         UART_UART_SUB_MODE,
  31:.\Generated_Source\PSoC4/UART_UART.c ****         UART_UART_DIRECTION,
  32:.\Generated_Source\PSoC4/UART_UART.c ****         UART_UART_DATA_BITS_NUM,
ARM GAS  C:\Users\Pablo\AppData\Local\Temp\cckirm5c.s 			page 2


  33:.\Generated_Source\PSoC4/UART_UART.c ****         UART_UART_PARITY_TYPE,
  34:.\Generated_Source\PSoC4/UART_UART.c ****         UART_UART_STOP_BITS_NUM,
  35:.\Generated_Source\PSoC4/UART_UART.c ****         UART_UART_OVS_FACTOR,
  36:.\Generated_Source\PSoC4/UART_UART.c ****         UART_UART_IRDA_LOW_POWER,
  37:.\Generated_Source\PSoC4/UART_UART.c ****         UART_UART_MEDIAN_FILTER_ENABLE,
  38:.\Generated_Source\PSoC4/UART_UART.c ****         UART_UART_RETRY_ON_NACK,
  39:.\Generated_Source\PSoC4/UART_UART.c ****         UART_UART_IRDA_POLARITY,
  40:.\Generated_Source\PSoC4/UART_UART.c ****         UART_UART_DROP_ON_PARITY_ERR,
  41:.\Generated_Source\PSoC4/UART_UART.c ****         UART_UART_DROP_ON_FRAME_ERR,
  42:.\Generated_Source\PSoC4/UART_UART.c ****         UART_UART_WAKE_ENABLE,
  43:.\Generated_Source\PSoC4/UART_UART.c ****         0u,
  44:.\Generated_Source\PSoC4/UART_UART.c ****         NULL,
  45:.\Generated_Source\PSoC4/UART_UART.c ****         0u,
  46:.\Generated_Source\PSoC4/UART_UART.c ****         NULL,
  47:.\Generated_Source\PSoC4/UART_UART.c ****         UART_UART_MP_MODE_ENABLE,
  48:.\Generated_Source\PSoC4/UART_UART.c ****         UART_UART_MP_ACCEPT_ADDRESS,
  49:.\Generated_Source\PSoC4/UART_UART.c ****         UART_UART_MP_RX_ADDRESS,
  50:.\Generated_Source\PSoC4/UART_UART.c ****         UART_UART_MP_RX_ADDRESS_MASK,
  51:.\Generated_Source\PSoC4/UART_UART.c ****         (uint32) UART_SCB_IRQ_INTERNAL,
  52:.\Generated_Source\PSoC4/UART_UART.c ****         UART_UART_INTR_RX_MASK,
  53:.\Generated_Source\PSoC4/UART_UART.c ****         UART_UART_RX_TRIGGER_LEVEL,
  54:.\Generated_Source\PSoC4/UART_UART.c ****         UART_UART_INTR_TX_MASK,
  55:.\Generated_Source\PSoC4/UART_UART.c ****         UART_UART_TX_TRIGGER_LEVEL,
  56:.\Generated_Source\PSoC4/UART_UART.c ****         (uint8) UART_UART_BYTE_MODE_ENABLE,
  57:.\Generated_Source\PSoC4/UART_UART.c ****         (uint8) UART_UART_CTS_ENABLE,
  58:.\Generated_Source\PSoC4/UART_UART.c ****         (uint8) UART_UART_CTS_POLARITY,
  59:.\Generated_Source\PSoC4/UART_UART.c ****         (uint8) UART_UART_RTS_POLARITY,
  60:.\Generated_Source\PSoC4/UART_UART.c ****         (uint8) UART_UART_RTS_FIFO_LEVEL
  61:.\Generated_Source\PSoC4/UART_UART.c ****     };
  62:.\Generated_Source\PSoC4/UART_UART.c **** 
  63:.\Generated_Source\PSoC4/UART_UART.c **** 
  64:.\Generated_Source\PSoC4/UART_UART.c ****     /*******************************************************************************
  65:.\Generated_Source\PSoC4/UART_UART.c ****     * Function Name: UART_UartInit
  66:.\Generated_Source\PSoC4/UART_UART.c ****     ********************************************************************************
  67:.\Generated_Source\PSoC4/UART_UART.c ****     *
  68:.\Generated_Source\PSoC4/UART_UART.c ****     * Summary:
  69:.\Generated_Source\PSoC4/UART_UART.c ****     *  Configures the SCB for the UART operation.
  70:.\Generated_Source\PSoC4/UART_UART.c ****     *
  71:.\Generated_Source\PSoC4/UART_UART.c ****     * Parameters:
  72:.\Generated_Source\PSoC4/UART_UART.c ****     *  config:  Pointer to a structure that contains the following ordered list of
  73:.\Generated_Source\PSoC4/UART_UART.c ****     *           fields. These fields match the selections available in the
  74:.\Generated_Source\PSoC4/UART_UART.c ****     *           customizer.
  75:.\Generated_Source\PSoC4/UART_UART.c ****     *
  76:.\Generated_Source\PSoC4/UART_UART.c ****     * Return:
  77:.\Generated_Source\PSoC4/UART_UART.c ****     *  None
  78:.\Generated_Source\PSoC4/UART_UART.c ****     *
  79:.\Generated_Source\PSoC4/UART_UART.c ****     *******************************************************************************/
  80:.\Generated_Source\PSoC4/UART_UART.c ****     void UART_UartInit(const UART_UART_INIT_STRUCT *config)
  81:.\Generated_Source\PSoC4/UART_UART.c ****     {
  82:.\Generated_Source\PSoC4/UART_UART.c ****         uint32 pinsConfig;
  83:.\Generated_Source\PSoC4/UART_UART.c **** 
  84:.\Generated_Source\PSoC4/UART_UART.c ****         if(NULL == config)
  85:.\Generated_Source\PSoC4/UART_UART.c ****         {
  86:.\Generated_Source\PSoC4/UART_UART.c ****             CYASSERT(0u != 0u); /* Halt execution due to bad function parameter */
  87:.\Generated_Source\PSoC4/UART_UART.c ****         }
  88:.\Generated_Source\PSoC4/UART_UART.c ****         else
  89:.\Generated_Source\PSoC4/UART_UART.c ****         {
ARM GAS  C:\Users\Pablo\AppData\Local\Temp\cckirm5c.s 			page 3


  90:.\Generated_Source\PSoC4/UART_UART.c ****             /* Get direction to configure UART pins: TX, RX or TX+RX */
  91:.\Generated_Source\PSoC4/UART_UART.c ****             pinsConfig  = config->direction;
  92:.\Generated_Source\PSoC4/UART_UART.c **** 
  93:.\Generated_Source\PSoC4/UART_UART.c ****         #if !(UART_CY_SCBIP_V0 || UART_CY_SCBIP_V1)
  94:.\Generated_Source\PSoC4/UART_UART.c ****             /* Add RTS and CTS pins to configure */
  95:.\Generated_Source\PSoC4/UART_UART.c ****             pinsConfig |= (0u != config->rtsRxFifoLevel) ? (UART_UART_RTS_PIN_ENABLE) : (0u);
  96:.\Generated_Source\PSoC4/UART_UART.c ****             pinsConfig |= (0u != config->enableCts)         ? (UART_UART_CTS_PIN_ENABLE) : (0u);
  97:.\Generated_Source\PSoC4/UART_UART.c ****         #endif /* !(UART_CY_SCBIP_V0 || UART_CY_SCBIP_V1) */
  98:.\Generated_Source\PSoC4/UART_UART.c **** 
  99:.\Generated_Source\PSoC4/UART_UART.c ****             /* Configure pins */
 100:.\Generated_Source\PSoC4/UART_UART.c ****             UART_SetPins(UART_SCB_MODE_UART, config->mode, pinsConfig);
 101:.\Generated_Source\PSoC4/UART_UART.c **** 
 102:.\Generated_Source\PSoC4/UART_UART.c ****             /* Store internal configuration */
 103:.\Generated_Source\PSoC4/UART_UART.c ****             UART_scbMode       = (uint8) UART_SCB_MODE_UART;
 104:.\Generated_Source\PSoC4/UART_UART.c ****             UART_scbEnableWake = (uint8) config->enableWake;
 105:.\Generated_Source\PSoC4/UART_UART.c ****             UART_scbEnableIntr = (uint8) config->enableInterrupt;
 106:.\Generated_Source\PSoC4/UART_UART.c **** 
 107:.\Generated_Source\PSoC4/UART_UART.c ****             /* Set RX direction internal variables */
 108:.\Generated_Source\PSoC4/UART_UART.c ****             UART_rxBuffer      =         config->rxBuffer;
 109:.\Generated_Source\PSoC4/UART_UART.c ****             UART_rxDataBits    = (uint8) config->dataBits;
 110:.\Generated_Source\PSoC4/UART_UART.c ****             UART_rxBufferSize  = (uint8) config->rxBufferSize;
 111:.\Generated_Source\PSoC4/UART_UART.c **** 
 112:.\Generated_Source\PSoC4/UART_UART.c ****             /* Set TX direction internal variables */
 113:.\Generated_Source\PSoC4/UART_UART.c ****             UART_txBuffer      =         config->txBuffer;
 114:.\Generated_Source\PSoC4/UART_UART.c ****             UART_txDataBits    = (uint8) config->dataBits;
 115:.\Generated_Source\PSoC4/UART_UART.c ****             UART_txBufferSize  = (uint8) config->txBufferSize;
 116:.\Generated_Source\PSoC4/UART_UART.c **** 
 117:.\Generated_Source\PSoC4/UART_UART.c ****             /* Configure UART interface */
 118:.\Generated_Source\PSoC4/UART_UART.c ****             if(UART_UART_MODE_IRDA == config->mode)
 119:.\Generated_Source\PSoC4/UART_UART.c ****             {
 120:.\Generated_Source\PSoC4/UART_UART.c ****                 /* OVS settings: IrDA */
 121:.\Generated_Source\PSoC4/UART_UART.c ****                 UART_CTRL_REG  = ((0u != config->enableIrdaLowPower) ?
 122:.\Generated_Source\PSoC4/UART_UART.c ****                                                 (UART_UART_GET_CTRL_OVS_IRDA_LP(config->oversample)
 123:.\Generated_Source\PSoC4/UART_UART.c ****                                                 (UART_CTRL_OVS_IRDA_OVS16));
 124:.\Generated_Source\PSoC4/UART_UART.c ****             }
 125:.\Generated_Source\PSoC4/UART_UART.c ****             else
 126:.\Generated_Source\PSoC4/UART_UART.c ****             {
 127:.\Generated_Source\PSoC4/UART_UART.c ****                 /* OVS settings: UART and SmartCard */
 128:.\Generated_Source\PSoC4/UART_UART.c ****                 UART_CTRL_REG  = UART_GET_CTRL_OVS(config->oversample);
 129:.\Generated_Source\PSoC4/UART_UART.c ****             }
 130:.\Generated_Source\PSoC4/UART_UART.c **** 
 131:.\Generated_Source\PSoC4/UART_UART.c ****             UART_CTRL_REG     |= UART_GET_CTRL_BYTE_MODE  (config->enableByteMode)      |
 132:.\Generated_Source\PSoC4/UART_UART.c ****                                              UART_GET_CTRL_ADDR_ACCEPT(config->multiprocAcceptAddr)
 133:.\Generated_Source\PSoC4/UART_UART.c ****                                              UART_CTRL_UART;
 134:.\Generated_Source\PSoC4/UART_UART.c **** 
 135:.\Generated_Source\PSoC4/UART_UART.c ****             /* Configure sub-mode: UART, SmartCard or IrDA */
 136:.\Generated_Source\PSoC4/UART_UART.c ****             UART_UART_CTRL_REG = UART_GET_UART_CTRL_MODE(config->mode);
 137:.\Generated_Source\PSoC4/UART_UART.c **** 
 138:.\Generated_Source\PSoC4/UART_UART.c ****             /* Configure RX direction */
 139:.\Generated_Source\PSoC4/UART_UART.c ****             UART_UART_RX_CTRL_REG = UART_GET_UART_RX_CTRL_MODE(config->stopBits)              |
 140:.\Generated_Source\PSoC4/UART_UART.c ****                                         UART_GET_UART_RX_CTRL_POLARITY(config->enableInvertedRx)   
 141:.\Generated_Source\PSoC4/UART_UART.c ****                                         UART_GET_UART_RX_CTRL_MP_MODE(config->enableMultiproc)     
 142:.\Generated_Source\PSoC4/UART_UART.c ****                                         UART_GET_UART_RX_CTRL_DROP_ON_PARITY_ERR(config->dropOnPari
 143:.\Generated_Source\PSoC4/UART_UART.c ****                                         UART_GET_UART_RX_CTRL_DROP_ON_FRAME_ERR(config->dropOnFrame
 144:.\Generated_Source\PSoC4/UART_UART.c **** 
 145:.\Generated_Source\PSoC4/UART_UART.c ****             if(UART_UART_PARITY_NONE != config->parity)
 146:.\Generated_Source\PSoC4/UART_UART.c ****             {
ARM GAS  C:\Users\Pablo\AppData\Local\Temp\cckirm5c.s 			page 4


 147:.\Generated_Source\PSoC4/UART_UART.c ****                UART_UART_RX_CTRL_REG |= UART_GET_UART_RX_CTRL_PARITY(config->parity) |
 148:.\Generated_Source\PSoC4/UART_UART.c ****                                                     UART_UART_RX_CTRL_PARITY_ENABLED;
 149:.\Generated_Source\PSoC4/UART_UART.c ****             }
 150:.\Generated_Source\PSoC4/UART_UART.c **** 
 151:.\Generated_Source\PSoC4/UART_UART.c ****             UART_RX_CTRL_REG      = UART_GET_RX_CTRL_DATA_WIDTH(config->dataBits)       |
 152:.\Generated_Source\PSoC4/UART_UART.c ****                                                 UART_GET_RX_CTRL_MEDIAN(config->enableMedianFilter)
 153:.\Generated_Source\PSoC4/UART_UART.c ****                                                 UART_GET_UART_RX_CTRL_ENABLED(config->direction);
 154:.\Generated_Source\PSoC4/UART_UART.c **** 
 155:.\Generated_Source\PSoC4/UART_UART.c ****             UART_RX_FIFO_CTRL_REG = UART_GET_RX_FIFO_CTRL_TRIGGER_LEVEL(config->rxTriggerLevel);
 156:.\Generated_Source\PSoC4/UART_UART.c **** 
 157:.\Generated_Source\PSoC4/UART_UART.c ****             /* Configure MP address */
 158:.\Generated_Source\PSoC4/UART_UART.c ****             UART_RX_MATCH_REG     = UART_GET_RX_MATCH_ADDR(config->multiprocAddr) |
 159:.\Generated_Source\PSoC4/UART_UART.c ****                                                 UART_GET_RX_MATCH_MASK(config->multiprocAddrMask);
 160:.\Generated_Source\PSoC4/UART_UART.c **** 
 161:.\Generated_Source\PSoC4/UART_UART.c ****             /* Configure RX direction */
 162:.\Generated_Source\PSoC4/UART_UART.c ****             UART_UART_TX_CTRL_REG = UART_GET_UART_TX_CTRL_MODE(config->stopBits) |
 163:.\Generated_Source\PSoC4/UART_UART.c ****                                                 UART_GET_UART_TX_CTRL_RETRY_NACK(config->enableRetr
 164:.\Generated_Source\PSoC4/UART_UART.c **** 
 165:.\Generated_Source\PSoC4/UART_UART.c ****             if(UART_UART_PARITY_NONE != config->parity)
 166:.\Generated_Source\PSoC4/UART_UART.c ****             {
 167:.\Generated_Source\PSoC4/UART_UART.c ****                UART_UART_TX_CTRL_REG |= UART_GET_UART_TX_CTRL_PARITY(config->parity) |
 168:.\Generated_Source\PSoC4/UART_UART.c ****                                                     UART_UART_TX_CTRL_PARITY_ENABLED;
 169:.\Generated_Source\PSoC4/UART_UART.c ****             }
 170:.\Generated_Source\PSoC4/UART_UART.c **** 
 171:.\Generated_Source\PSoC4/UART_UART.c ****             UART_TX_CTRL_REG      = UART_GET_TX_CTRL_DATA_WIDTH(config->dataBits)    |
 172:.\Generated_Source\PSoC4/UART_UART.c ****                                                 UART_GET_UART_TX_CTRL_ENABLED(config->direction);
 173:.\Generated_Source\PSoC4/UART_UART.c **** 
 174:.\Generated_Source\PSoC4/UART_UART.c ****             UART_TX_FIFO_CTRL_REG = UART_GET_TX_FIFO_CTRL_TRIGGER_LEVEL(config->txTriggerLevel);
 175:.\Generated_Source\PSoC4/UART_UART.c **** 
 176:.\Generated_Source\PSoC4/UART_UART.c ****         #if !(UART_CY_SCBIP_V0 || UART_CY_SCBIP_V1)
 177:.\Generated_Source\PSoC4/UART_UART.c ****             UART_UART_FLOW_CTRL_REG = UART_GET_UART_FLOW_CTRL_CTS_ENABLE(config->enableCts) | \
 178:.\Generated_Source\PSoC4/UART_UART.c ****                                             UART_GET_UART_FLOW_CTRL_CTS_POLARITY (config->ctsPolari
 179:.\Generated_Source\PSoC4/UART_UART.c ****                                             UART_GET_UART_FLOW_CTRL_RTS_POLARITY(config->rtsPolarit
 180:.\Generated_Source\PSoC4/UART_UART.c ****                                             UART_GET_UART_FLOW_CTRL_TRIGGER_LEVEL(config->rtsRxFifo
 181:.\Generated_Source\PSoC4/UART_UART.c ****         #endif /* !(UART_CY_SCBIP_V0 || UART_CY_SCBIP_V1) */
 182:.\Generated_Source\PSoC4/UART_UART.c **** 
 183:.\Generated_Source\PSoC4/UART_UART.c ****             /* Configure interrupt with UART handler but do not enable it */
 184:.\Generated_Source\PSoC4/UART_UART.c ****             CyIntDisable    (UART_ISR_NUMBER);
 185:.\Generated_Source\PSoC4/UART_UART.c ****             CyIntSetPriority(UART_ISR_NUMBER, UART_ISR_PRIORITY);
 186:.\Generated_Source\PSoC4/UART_UART.c ****             (void) CyIntSetVector(UART_ISR_NUMBER, &UART_SPI_UART_ISR);
 187:.\Generated_Source\PSoC4/UART_UART.c **** 
 188:.\Generated_Source\PSoC4/UART_UART.c ****             /* Configure WAKE interrupt */
 189:.\Generated_Source\PSoC4/UART_UART.c ****         #if(UART_UART_RX_WAKEUP_IRQ)
 190:.\Generated_Source\PSoC4/UART_UART.c ****             CyIntDisable    (UART_RX_WAKE_ISR_NUMBER);
 191:.\Generated_Source\PSoC4/UART_UART.c ****             CyIntSetPriority(UART_RX_WAKE_ISR_NUMBER, UART_RX_WAKE_ISR_PRIORITY);
 192:.\Generated_Source\PSoC4/UART_UART.c ****             (void) CyIntSetVector(UART_RX_WAKE_ISR_NUMBER, &UART_UART_WAKEUP_ISR);
 193:.\Generated_Source\PSoC4/UART_UART.c ****         #endif /* (UART_UART_RX_WAKEUP_IRQ) */
 194:.\Generated_Source\PSoC4/UART_UART.c **** 
 195:.\Generated_Source\PSoC4/UART_UART.c ****             /* Configure interrupt sources */
 196:.\Generated_Source\PSoC4/UART_UART.c ****             UART_INTR_I2C_EC_MASK_REG = UART_NO_INTR_SOURCES;
 197:.\Generated_Source\PSoC4/UART_UART.c ****             UART_INTR_SPI_EC_MASK_REG = UART_NO_INTR_SOURCES;
 198:.\Generated_Source\PSoC4/UART_UART.c ****             UART_INTR_SLAVE_MASK_REG  = UART_NO_INTR_SOURCES;
 199:.\Generated_Source\PSoC4/UART_UART.c ****             UART_INTR_MASTER_MASK_REG = UART_NO_INTR_SOURCES;
 200:.\Generated_Source\PSoC4/UART_UART.c ****             UART_INTR_RX_MASK_REG     = config->rxInterruptMask;
 201:.\Generated_Source\PSoC4/UART_UART.c ****             UART_INTR_TX_MASK_REG     = config->txInterruptMask;
 202:.\Generated_Source\PSoC4/UART_UART.c **** 
 203:.\Generated_Source\PSoC4/UART_UART.c ****             /* Clear RX buffer indexes */
ARM GAS  C:\Users\Pablo\AppData\Local\Temp\cckirm5c.s 			page 5


 204:.\Generated_Source\PSoC4/UART_UART.c ****             UART_rxBufferHead     = 0u;
 205:.\Generated_Source\PSoC4/UART_UART.c ****             UART_rxBufferTail     = 0u;
 206:.\Generated_Source\PSoC4/UART_UART.c ****             UART_rxBufferOverflow = 0u;
 207:.\Generated_Source\PSoC4/UART_UART.c **** 
 208:.\Generated_Source\PSoC4/UART_UART.c ****             /* Clear TX buffer indexes */
 209:.\Generated_Source\PSoC4/UART_UART.c ****             UART_txBufferHead = 0u;
 210:.\Generated_Source\PSoC4/UART_UART.c ****             UART_txBufferTail = 0u;
 211:.\Generated_Source\PSoC4/UART_UART.c ****         }
 212:.\Generated_Source\PSoC4/UART_UART.c ****     }
 213:.\Generated_Source\PSoC4/UART_UART.c **** 
 214:.\Generated_Source\PSoC4/UART_UART.c **** #else
 215:.\Generated_Source\PSoC4/UART_UART.c **** 
 216:.\Generated_Source\PSoC4/UART_UART.c ****     /*******************************************************************************
 217:.\Generated_Source\PSoC4/UART_UART.c ****     * Function Name: UART_UartInit
 218:.\Generated_Source\PSoC4/UART_UART.c ****     ********************************************************************************
 219:.\Generated_Source\PSoC4/UART_UART.c ****     *
 220:.\Generated_Source\PSoC4/UART_UART.c ****     * Summary:
 221:.\Generated_Source\PSoC4/UART_UART.c ****     *  Configures the SCB for the UART operation.
 222:.\Generated_Source\PSoC4/UART_UART.c ****     *
 223:.\Generated_Source\PSoC4/UART_UART.c ****     * Parameters:
 224:.\Generated_Source\PSoC4/UART_UART.c ****     *  None
 225:.\Generated_Source\PSoC4/UART_UART.c ****     *
 226:.\Generated_Source\PSoC4/UART_UART.c ****     * Return:
 227:.\Generated_Source\PSoC4/UART_UART.c ****     *  None
 228:.\Generated_Source\PSoC4/UART_UART.c ****     *
 229:.\Generated_Source\PSoC4/UART_UART.c ****     *******************************************************************************/
 230:.\Generated_Source\PSoC4/UART_UART.c ****     void UART_UartInit(void)
 231:.\Generated_Source\PSoC4/UART_UART.c ****     {
  26              		.loc 1 231 0
  27              		.cfi_startproc
 232:.\Generated_Source\PSoC4/UART_UART.c ****         /* Configure UART interface */
 233:.\Generated_Source\PSoC4/UART_UART.c ****         UART_CTRL_REG = UART_UART_DEFAULT_CTRL;
  28              		.loc 1 233 0
  29 0000 184A     		ldr	r2, .L2
  30 0002 194B     		ldr	r3, .L2+4
 231:.\Generated_Source\PSoC4/UART_UART.c ****     {
  31              		.loc 1 231 0
  32 0004 10B5     		push	{r4, lr}
  33              		.cfi_def_cfa_offset 8
  34              		.cfi_offset 4, -8
  35              		.cfi_offset 14, -4
  36              		.loc 1 233 0
  37 0006 1A60     		str	r2, [r3]
 234:.\Generated_Source\PSoC4/UART_UART.c **** 
 235:.\Generated_Source\PSoC4/UART_UART.c ****         /* Configure sub-mode: UART, SmartCard or IrDA */
 236:.\Generated_Source\PSoC4/UART_UART.c ****         UART_UART_CTRL_REG = UART_UART_DEFAULT_UART_CTRL;
  38              		.loc 1 236 0
  39 0008 184B     		ldr	r3, .L2+8
  40 000a 0024     		mov	r4, #0
  41 000c 1C60     		str	r4, [r3]
 237:.\Generated_Source\PSoC4/UART_UART.c **** 
 238:.\Generated_Source\PSoC4/UART_UART.c ****         /* Configure RX direction */
 239:.\Generated_Source\PSoC4/UART_UART.c ****         UART_UART_RX_CTRL_REG = UART_UART_DEFAULT_UART_RX_CTRL;
  42              		.loc 1 239 0
  43 000e 184B     		ldr	r3, .L2+12
  44 0010 0122     		mov	r2, #1
  45 0012 1A60     		str	r2, [r3]
ARM GAS  C:\Users\Pablo\AppData\Local\Temp\cckirm5c.s 			page 6


 240:.\Generated_Source\PSoC4/UART_UART.c ****         UART_RX_CTRL_REG      = UART_UART_DEFAULT_RX_CTRL;
  46              		.loc 1 240 0
  47 0014 1749     		ldr	r1, .L2+16
  48 0016 184B     		ldr	r3, .L2+20
 241:.\Generated_Source\PSoC4/UART_UART.c ****         UART_RX_FIFO_CTRL_REG = UART_UART_DEFAULT_RX_FIFO_CTRL;
  49              		.loc 1 241 0
  50 0018 0720     		mov	r0, #7
 240:.\Generated_Source\PSoC4/UART_UART.c ****         UART_RX_CTRL_REG      = UART_UART_DEFAULT_RX_CTRL;
  51              		.loc 1 240 0
  52 001a 0B60     		str	r3, [r1]
  53              		.loc 1 241 0
  54 001c 1749     		ldr	r1, .L2+24
 242:.\Generated_Source\PSoC4/UART_UART.c ****         UART_RX_MATCH_REG     = UART_UART_DEFAULT_RX_MATCH_REG;
 243:.\Generated_Source\PSoC4/UART_UART.c **** 
 244:.\Generated_Source\PSoC4/UART_UART.c ****         /* Configure TX direction */
 245:.\Generated_Source\PSoC4/UART_UART.c ****         UART_UART_TX_CTRL_REG = UART_UART_DEFAULT_UART_TX_CTRL;
 246:.\Generated_Source\PSoC4/UART_UART.c ****         UART_TX_CTRL_REG      = UART_UART_DEFAULT_TX_CTRL;
 247:.\Generated_Source\PSoC4/UART_UART.c ****         UART_TX_FIFO_CTRL_REG = UART_UART_DEFAULT_TX_FIFO_CTRL;
 248:.\Generated_Source\PSoC4/UART_UART.c **** 
 249:.\Generated_Source\PSoC4/UART_UART.c ****     #if !(UART_CY_SCBIP_V0 || UART_CY_SCBIP_V1)
 250:.\Generated_Source\PSoC4/UART_UART.c ****         UART_UART_FLOW_CTRL_REG = UART_UART_DEFAULT_FLOW_CTRL;
 251:.\Generated_Source\PSoC4/UART_UART.c ****     #endif /* !(UART_CY_SCBIP_V0 || UART_CY_SCBIP_V1) */
 252:.\Generated_Source\PSoC4/UART_UART.c **** 
 253:.\Generated_Source\PSoC4/UART_UART.c ****         /* Configure interrupt with UART handler but do not enable it */
 254:.\Generated_Source\PSoC4/UART_UART.c ****     #if(UART_SCB_IRQ_INTERNAL)
 255:.\Generated_Source\PSoC4/UART_UART.c ****         CyIntDisable    (UART_ISR_NUMBER);
 256:.\Generated_Source\PSoC4/UART_UART.c ****         CyIntSetPriority(UART_ISR_NUMBER, UART_ISR_PRIORITY);
 257:.\Generated_Source\PSoC4/UART_UART.c ****         (void) CyIntSetVector(UART_ISR_NUMBER, &UART_SPI_UART_ISR);
 258:.\Generated_Source\PSoC4/UART_UART.c ****     #endif /* (UART_SCB_IRQ_INTERNAL) */
 259:.\Generated_Source\PSoC4/UART_UART.c **** 
 260:.\Generated_Source\PSoC4/UART_UART.c ****         /* Configure WAKE interrupt */
 261:.\Generated_Source\PSoC4/UART_UART.c ****     #if(UART_UART_RX_WAKEUP_IRQ)
 262:.\Generated_Source\PSoC4/UART_UART.c ****         CyIntDisable    (UART_RX_WAKE_ISR_NUMBER);
 263:.\Generated_Source\PSoC4/UART_UART.c ****         CyIntSetPriority(UART_RX_WAKE_ISR_NUMBER, UART_RX_WAKE_ISR_PRIORITY);
 264:.\Generated_Source\PSoC4/UART_UART.c ****         (void) CyIntSetVector(UART_RX_WAKE_ISR_NUMBER, &UART_UART_WAKEUP_ISR);
 265:.\Generated_Source\PSoC4/UART_UART.c ****     #endif /* (UART_UART_RX_WAKEUP_IRQ) */
 266:.\Generated_Source\PSoC4/UART_UART.c **** 
 267:.\Generated_Source\PSoC4/UART_UART.c ****         /* Configure interrupt sources */
 268:.\Generated_Source\PSoC4/UART_UART.c ****         UART_INTR_I2C_EC_MASK_REG = UART_UART_DEFAULT_INTR_I2C_EC_MASK;
 269:.\Generated_Source\PSoC4/UART_UART.c ****         UART_INTR_SPI_EC_MASK_REG = UART_UART_DEFAULT_INTR_SPI_EC_MASK;
 270:.\Generated_Source\PSoC4/UART_UART.c ****         UART_INTR_SLAVE_MASK_REG  = UART_UART_DEFAULT_INTR_SLAVE_MASK;
 271:.\Generated_Source\PSoC4/UART_UART.c ****         UART_INTR_MASTER_MASK_REG = UART_UART_DEFAULT_INTR_MASTER_MASK;
 272:.\Generated_Source\PSoC4/UART_UART.c ****         UART_INTR_RX_MASK_REG     = UART_UART_DEFAULT_INTR_RX_MASK;
 273:.\Generated_Source\PSoC4/UART_UART.c ****         UART_INTR_TX_MASK_REG     = UART_UART_DEFAULT_INTR_TX_MASK;
 274:.\Generated_Source\PSoC4/UART_UART.c **** 
 275:.\Generated_Source\PSoC4/UART_UART.c ****     #if(UART_INTERNAL_RX_SW_BUFFER_CONST)
 276:.\Generated_Source\PSoC4/UART_UART.c ****         UART_rxBufferHead     = 0u;
 277:.\Generated_Source\PSoC4/UART_UART.c ****         UART_rxBufferTail     = 0u;
 278:.\Generated_Source\PSoC4/UART_UART.c ****         UART_rxBufferOverflow = 0u;
 279:.\Generated_Source\PSoC4/UART_UART.c ****     #endif /* (UART_INTERNAL_RX_SW_BUFFER_CONST) */
 280:.\Generated_Source\PSoC4/UART_UART.c **** 
 281:.\Generated_Source\PSoC4/UART_UART.c ****     #if(UART_INTERNAL_TX_SW_BUFFER_CONST)
 282:.\Generated_Source\PSoC4/UART_UART.c ****         UART_txBufferHead = 0u;
 283:.\Generated_Source\PSoC4/UART_UART.c ****         UART_txBufferTail = 0u;
 284:.\Generated_Source\PSoC4/UART_UART.c ****     #endif /* (UART_INTERNAL_TX_SW_BUFFER_CONST) */
 285:.\Generated_Source\PSoC4/UART_UART.c ****     }
  55              		.loc 1 285 0
ARM GAS  C:\Users\Pablo\AppData\Local\Temp\cckirm5c.s 			page 7


  56              		@ sp needed
 241:.\Generated_Source\PSoC4/UART_UART.c ****         UART_RX_FIFO_CTRL_REG = UART_UART_DEFAULT_RX_FIFO_CTRL;
  57              		.loc 1 241 0
  58 001e 0860     		str	r0, [r1]
 242:.\Generated_Source\PSoC4/UART_UART.c ****         UART_RX_MATCH_REG     = UART_UART_DEFAULT_RX_MATCH_REG;
  59              		.loc 1 242 0
  60 0020 1749     		ldr	r1, .L2+28
 255:.\Generated_Source\PSoC4/UART_UART.c ****         CyIntDisable    (UART_ISR_NUMBER);
  61              		.loc 1 255 0
  62 0022 0A20     		mov	r0, #10
 242:.\Generated_Source\PSoC4/UART_UART.c ****         UART_RX_MATCH_REG     = UART_UART_DEFAULT_RX_MATCH_REG;
  63              		.loc 1 242 0
  64 0024 0C60     		str	r4, [r1]
 245:.\Generated_Source\PSoC4/UART_UART.c ****         UART_UART_TX_CTRL_REG = UART_UART_DEFAULT_UART_TX_CTRL;
  65              		.loc 1 245 0
  66 0026 1749     		ldr	r1, .L2+32
  67 0028 0A60     		str	r2, [r1]
 246:.\Generated_Source\PSoC4/UART_UART.c ****         UART_TX_CTRL_REG      = UART_UART_DEFAULT_TX_CTRL;
  68              		.loc 1 246 0
  69 002a 174A     		ldr	r2, .L2+36
  70 002c 1360     		str	r3, [r2]
 247:.\Generated_Source\PSoC4/UART_UART.c ****         UART_TX_FIFO_CTRL_REG = UART_UART_DEFAULT_TX_FIFO_CTRL;
  71              		.loc 1 247 0
  72 002e 174B     		ldr	r3, .L2+40
  73 0030 1C60     		str	r4, [r3]
 255:.\Generated_Source\PSoC4/UART_UART.c ****         CyIntDisable    (UART_ISR_NUMBER);
  74              		.loc 1 255 0
  75 0032 FFF7FEFF 		bl	CyIntDisable
  76              	.LVL0:
 256:.\Generated_Source\PSoC4/UART_UART.c ****         CyIntSetPriority(UART_ISR_NUMBER, UART_ISR_PRIORITY);
  77              		.loc 1 256 0
  78 0036 0A20     		mov	r0, #10
  79 0038 0321     		mov	r1, #3
  80 003a FFF7FEFF 		bl	CyIntSetPriority
  81              	.LVL1:
 257:.\Generated_Source\PSoC4/UART_UART.c ****         (void) CyIntSetVector(UART_ISR_NUMBER, &UART_SPI_UART_ISR);
  82              		.loc 1 257 0
  83 003e 1449     		ldr	r1, .L2+44
  84 0040 0A20     		mov	r0, #10
  85 0042 FFF7FEFF 		bl	CyIntSetVector
  86              	.LVL2:
 268:.\Generated_Source\PSoC4/UART_UART.c ****         UART_INTR_I2C_EC_MASK_REG = UART_UART_DEFAULT_INTR_I2C_EC_MASK;
  87              		.loc 1 268 0
  88 0046 134B     		ldr	r3, .L2+48
 272:.\Generated_Source\PSoC4/UART_UART.c ****         UART_INTR_RX_MASK_REG     = UART_UART_DEFAULT_INTR_RX_MASK;
  89              		.loc 1 272 0
  90 0048 0422     		mov	r2, #4
 268:.\Generated_Source\PSoC4/UART_UART.c ****         UART_INTR_I2C_EC_MASK_REG = UART_UART_DEFAULT_INTR_I2C_EC_MASK;
  91              		.loc 1 268 0
  92 004a 1C60     		str	r4, [r3]
 269:.\Generated_Source\PSoC4/UART_UART.c ****         UART_INTR_SPI_EC_MASK_REG = UART_UART_DEFAULT_INTR_SPI_EC_MASK;
  93              		.loc 1 269 0
  94 004c 124B     		ldr	r3, .L2+52
  95 004e 1C60     		str	r4, [r3]
 270:.\Generated_Source\PSoC4/UART_UART.c ****         UART_INTR_SLAVE_MASK_REG  = UART_UART_DEFAULT_INTR_SLAVE_MASK;
  96              		.loc 1 270 0
  97 0050 124B     		ldr	r3, .L2+56
ARM GAS  C:\Users\Pablo\AppData\Local\Temp\cckirm5c.s 			page 8


  98 0052 1C60     		str	r4, [r3]
 271:.\Generated_Source\PSoC4/UART_UART.c ****         UART_INTR_MASTER_MASK_REG = UART_UART_DEFAULT_INTR_MASTER_MASK;
  99              		.loc 1 271 0
 100 0054 124B     		ldr	r3, .L2+60
 101 0056 1C60     		str	r4, [r3]
 272:.\Generated_Source\PSoC4/UART_UART.c ****         UART_INTR_RX_MASK_REG     = UART_UART_DEFAULT_INTR_RX_MASK;
 102              		.loc 1 272 0
 103 0058 124B     		ldr	r3, .L2+64
 104 005a 1A60     		str	r2, [r3]
 273:.\Generated_Source\PSoC4/UART_UART.c ****         UART_INTR_TX_MASK_REG     = UART_UART_DEFAULT_INTR_TX_MASK;
 105              		.loc 1 273 0
 106 005c 124B     		ldr	r3, .L2+68
 107 005e 1C60     		str	r4, [r3]
 108              		.loc 1 285 0
 109 0060 10BD     		pop	{r4, pc}
 110              	.L3:
 111 0062 C046     		.align	2
 112              	.L2:
 113 0064 0B000002 		.word	33554443
 114 0068 00000640 		.word	1074135040
 115 006c 40000640 		.word	1074135104
 116 0070 48000640 		.word	1074135112
 117 0074 00030640 		.word	1074135808
 118 0078 07000080 		.word	-2147483641
 119 007c 04030640 		.word	1074135812
 120 0080 10030640 		.word	1074135824
 121 0084 44000640 		.word	1074135108
 122 0088 00020640 		.word	1074135552
 123 008c 04020640 		.word	1074135556
 124 0090 00000000 		.word	UART_SPI_UART_ISR
 125 0094 880E0640 		.word	1074138760
 126 0098 C80E0640 		.word	1074138824
 127 009c 480F0640 		.word	1074138952
 128 00a0 080F0640 		.word	1074138888
 129 00a4 C80F0640 		.word	1074139080
 130 00a8 880F0640 		.word	1074139016
 131              		.cfi_endproc
 132              	.LFE0:
 133              		.size	UART_UartInit, .-UART_UartInit
 134              		.section	.text.UART_UartSetRxAddress,"ax",%progbits
 135              		.align	1
 136              		.global	UART_UartSetRxAddress
 137              		.code	16
 138              		.thumb_func
 139              		.type	UART_UartSetRxAddress, %function
 140              	UART_UartSetRxAddress:
 141              	.LFB1:
 286:.\Generated_Source\PSoC4/UART_UART.c **** #endif /* (UART_SCB_MODE_UNCONFIG_CONST_CFG) */
 287:.\Generated_Source\PSoC4/UART_UART.c **** 
 288:.\Generated_Source\PSoC4/UART_UART.c **** 
 289:.\Generated_Source\PSoC4/UART_UART.c **** /*******************************************************************************
 290:.\Generated_Source\PSoC4/UART_UART.c **** * Function Name: UART_UartSetRxAddress
 291:.\Generated_Source\PSoC4/UART_UART.c **** ********************************************************************************
 292:.\Generated_Source\PSoC4/UART_UART.c **** *
 293:.\Generated_Source\PSoC4/UART_UART.c **** * Summary:
 294:.\Generated_Source\PSoC4/UART_UART.c **** *  Sets the hardware detectable receiver address for the UART in the
 295:.\Generated_Source\PSoC4/UART_UART.c **** *  Multiprocessor mode.
ARM GAS  C:\Users\Pablo\AppData\Local\Temp\cckirm5c.s 			page 9


 296:.\Generated_Source\PSoC4/UART_UART.c **** *
 297:.\Generated_Source\PSoC4/UART_UART.c **** * Parameters:
 298:.\Generated_Source\PSoC4/UART_UART.c **** *  address: Address for hardware address detection.
 299:.\Generated_Source\PSoC4/UART_UART.c **** *
 300:.\Generated_Source\PSoC4/UART_UART.c **** * Return:
 301:.\Generated_Source\PSoC4/UART_UART.c **** *  None
 302:.\Generated_Source\PSoC4/UART_UART.c **** *
 303:.\Generated_Source\PSoC4/UART_UART.c **** *******************************************************************************/
 304:.\Generated_Source\PSoC4/UART_UART.c **** void UART_UartSetRxAddress(uint32 address)
 305:.\Generated_Source\PSoC4/UART_UART.c **** {
 142              		.loc 1 305 0
 143              		.cfi_startproc
 144              	.LVL3:
 306:.\Generated_Source\PSoC4/UART_UART.c ****      uint32 matchReg;
 307:.\Generated_Source\PSoC4/UART_UART.c **** 
 308:.\Generated_Source\PSoC4/UART_UART.c ****     matchReg = UART_RX_MATCH_REG;
 145              		.loc 1 308 0
 146 0000 034B     		ldr	r3, .L5
 309:.\Generated_Source\PSoC4/UART_UART.c **** 
 310:.\Generated_Source\PSoC4/UART_UART.c ****     matchReg &= ((uint32) ~UART_RX_MATCH_ADDR_MASK); /* Clear address bits */
 147              		.loc 1 310 0
 148 0002 FF22     		mov	r2, #255
 308:.\Generated_Source\PSoC4/UART_UART.c ****     matchReg = UART_RX_MATCH_REG;
 149              		.loc 1 308 0
 150 0004 1968     		ldr	r1, [r3]
 151              	.LVL4:
 311:.\Generated_Source\PSoC4/UART_UART.c ****     matchReg |= ((uint32)  (address & UART_RX_MATCH_ADDR_MASK)); /* Set address  */
 312:.\Generated_Source\PSoC4/UART_UART.c **** 
 313:.\Generated_Source\PSoC4/UART_UART.c ****     UART_RX_MATCH_REG = matchReg;
 314:.\Generated_Source\PSoC4/UART_UART.c **** }
 152              		.loc 1 314 0
 153              		@ sp needed
 310:.\Generated_Source\PSoC4/UART_UART.c ****     matchReg &= ((uint32) ~UART_RX_MATCH_ADDR_MASK); /* Clear address bits */
 154              		.loc 1 310 0
 155 0006 9143     		bic	r1, r2
 156              	.LVL5:
 311:.\Generated_Source\PSoC4/UART_UART.c ****     matchReg |= ((uint32)  (address & UART_RX_MATCH_ADDR_MASK)); /* Set address  */
 157              		.loc 1 311 0
 158 0008 0240     		and	r2, r0
 159 000a 0A43     		orr	r2, r1
 160              	.LVL6:
 313:.\Generated_Source\PSoC4/UART_UART.c ****     UART_RX_MATCH_REG = matchReg;
 161              		.loc 1 313 0
 162 000c 1A60     		str	r2, [r3]
 163              		.loc 1 314 0
 164 000e 7047     		bx	lr
 165              	.L6:
 166              		.align	2
 167              	.L5:
 168 0010 10030640 		.word	1074135824
 169              		.cfi_endproc
 170              	.LFE1:
 171              		.size	UART_UartSetRxAddress, .-UART_UartSetRxAddress
 172              		.section	.text.UART_UartSetRxAddressMask,"ax",%progbits
 173              		.align	1
 174              		.global	UART_UartSetRxAddressMask
 175              		.code	16
ARM GAS  C:\Users\Pablo\AppData\Local\Temp\cckirm5c.s 			page 10


 176              		.thumb_func
 177              		.type	UART_UartSetRxAddressMask, %function
 178              	UART_UartSetRxAddressMask:
 179              	.LFB2:
 315:.\Generated_Source\PSoC4/UART_UART.c **** 
 316:.\Generated_Source\PSoC4/UART_UART.c **** 
 317:.\Generated_Source\PSoC4/UART_UART.c **** /*******************************************************************************
 318:.\Generated_Source\PSoC4/UART_UART.c **** * Function Name: UART_UartSetRxAddressMask
 319:.\Generated_Source\PSoC4/UART_UART.c **** ********************************************************************************
 320:.\Generated_Source\PSoC4/UART_UART.c **** *
 321:.\Generated_Source\PSoC4/UART_UART.c **** * Summary:
 322:.\Generated_Source\PSoC4/UART_UART.c **** *  Sets the hardware address mask for the UART in the Multiprocessor mode.
 323:.\Generated_Source\PSoC4/UART_UART.c **** *
 324:.\Generated_Source\PSoC4/UART_UART.c **** * Parameters:
 325:.\Generated_Source\PSoC4/UART_UART.c **** *  addressMask: Address mask.
 326:.\Generated_Source\PSoC4/UART_UART.c **** *   0 - address bit does not care while comparison.
 327:.\Generated_Source\PSoC4/UART_UART.c **** *   1 - address bit is significant while comparison.
 328:.\Generated_Source\PSoC4/UART_UART.c **** *
 329:.\Generated_Source\PSoC4/UART_UART.c **** * Return:
 330:.\Generated_Source\PSoC4/UART_UART.c **** *  None
 331:.\Generated_Source\PSoC4/UART_UART.c **** *
 332:.\Generated_Source\PSoC4/UART_UART.c **** *******************************************************************************/
 333:.\Generated_Source\PSoC4/UART_UART.c **** void UART_UartSetRxAddressMask(uint32 addressMask)
 334:.\Generated_Source\PSoC4/UART_UART.c **** {
 180              		.loc 1 334 0
 181              		.cfi_startproc
 182              	.LVL7:
 335:.\Generated_Source\PSoC4/UART_UART.c ****     uint32 matchReg;
 336:.\Generated_Source\PSoC4/UART_UART.c **** 
 337:.\Generated_Source\PSoC4/UART_UART.c ****     matchReg = UART_RX_MATCH_REG;
 183              		.loc 1 337 0
 184 0000 034B     		ldr	r3, .L8
 338:.\Generated_Source\PSoC4/UART_UART.c **** 
 339:.\Generated_Source\PSoC4/UART_UART.c ****     matchReg &= ((uint32) ~UART_RX_MATCH_MASK_MASK); /* Clear address mask bits */
 185              		.loc 1 339 0
 186 0002 044A     		ldr	r2, .L8+4
 337:.\Generated_Source\PSoC4/UART_UART.c ****     matchReg = UART_RX_MATCH_REG;
 187              		.loc 1 337 0
 188 0004 1968     		ldr	r1, [r3]
 189              	.LVL8:
 340:.\Generated_Source\PSoC4/UART_UART.c ****     matchReg |= ((uint32) (addressMask << UART_RX_MATCH_MASK_POS));
 190              		.loc 1 340 0
 191 0006 0004     		lsl	r0, r0, #16
 192              	.LVL9:
 339:.\Generated_Source\PSoC4/UART_UART.c ****     matchReg &= ((uint32) ~UART_RX_MATCH_MASK_MASK); /* Clear address mask bits */
 193              		.loc 1 339 0
 194 0008 0A40     		and	r2, r1
 195              	.LVL10:
 196              		.loc 1 340 0
 197 000a 1043     		orr	r0, r2
 198              	.LVL11:
 341:.\Generated_Source\PSoC4/UART_UART.c **** 
 342:.\Generated_Source\PSoC4/UART_UART.c ****     UART_RX_MATCH_REG = matchReg;
 199              		.loc 1 342 0
 200 000c 1860     		str	r0, [r3]
 343:.\Generated_Source\PSoC4/UART_UART.c **** }
 201              		.loc 1 343 0
ARM GAS  C:\Users\Pablo\AppData\Local\Temp\cckirm5c.s 			page 11


 202              		@ sp needed
 203 000e 7047     		bx	lr
 204              	.L9:
 205              		.align	2
 206              	.L8:
 207 0010 10030640 		.word	1074135824
 208 0014 FFFF00FF 		.word	-16711681
 209              		.cfi_endproc
 210              	.LFE2:
 211              		.size	UART_UartSetRxAddressMask, .-UART_UartSetRxAddressMask
 212              		.section	.text.UART_UartGetChar,"ax",%progbits
 213              		.align	1
 214              		.global	UART_UartGetChar
 215              		.code	16
 216              		.thumb_func
 217              		.type	UART_UartGetChar, %function
 218              	UART_UartGetChar:
 219              	.LFB3:
 344:.\Generated_Source\PSoC4/UART_UART.c **** 
 345:.\Generated_Source\PSoC4/UART_UART.c **** 
 346:.\Generated_Source\PSoC4/UART_UART.c **** #if(UART_UART_RX_DIRECTION)
 347:.\Generated_Source\PSoC4/UART_UART.c ****     /*******************************************************************************
 348:.\Generated_Source\PSoC4/UART_UART.c ****     * Function Name: UART_UartGetChar
 349:.\Generated_Source\PSoC4/UART_UART.c ****     ********************************************************************************
 350:.\Generated_Source\PSoC4/UART_UART.c ****     *
 351:.\Generated_Source\PSoC4/UART_UART.c ****     * Summary:
 352:.\Generated_Source\PSoC4/UART_UART.c ****     *  Retrieves the next data element from the receive buffer.
 353:.\Generated_Source\PSoC4/UART_UART.c ****     *  This function is designed for ASCII characters and returns a char
 354:.\Generated_Source\PSoC4/UART_UART.c ****     *  where 1 to 255 are valid characters and 0 indicates an error occurred or
 355:.\Generated_Source\PSoC4/UART_UART.c ****     *  no data present.
 356:.\Generated_Source\PSoC4/UART_UART.c ****     *  - The RX software buffer is disabled: returns the data element
 357:.\Generated_Source\PSoC4/UART_UART.c ****     *    retrieved from the RX FIFO.
 358:.\Generated_Source\PSoC4/UART_UART.c ****     *    Undefined data will be returned if the RX FIFO is empty.
 359:.\Generated_Source\PSoC4/UART_UART.c ****     *  - The RX software buffer is enabled: returns the data element from
 360:.\Generated_Source\PSoC4/UART_UART.c ****     *    the software receive buffer.
 361:.\Generated_Source\PSoC4/UART_UART.c ****     *
 362:.\Generated_Source\PSoC4/UART_UART.c ****     * Parameters:
 363:.\Generated_Source\PSoC4/UART_UART.c ****     *  None
 364:.\Generated_Source\PSoC4/UART_UART.c ****     *
 365:.\Generated_Source\PSoC4/UART_UART.c ****     * Return:
 366:.\Generated_Source\PSoC4/UART_UART.c ****     *  The next data element from the receive buffer.
 367:.\Generated_Source\PSoC4/UART_UART.c ****     *  ASCII character values from 1 to 255 are valid.
 368:.\Generated_Source\PSoC4/UART_UART.c ****     *  A returned zero signifies an error condition or no data available.
 369:.\Generated_Source\PSoC4/UART_UART.c ****     *
 370:.\Generated_Source\PSoC4/UART_UART.c ****     * Side Effects:
 371:.\Generated_Source\PSoC4/UART_UART.c ****     *  The errors bits may not correspond with reading characters due to RX FIFO
 372:.\Generated_Source\PSoC4/UART_UART.c ****     *  and software buffer usage.
 373:.\Generated_Source\PSoC4/UART_UART.c ****     *  RX software buffer is enabled: The internal software buffer overflow
 374:.\Generated_Source\PSoC4/UART_UART.c ****     *  does not treat as an error condition.
 375:.\Generated_Source\PSoC4/UART_UART.c ****     *  Check SCB_rxBufferOverflow to capture that error condition.
 376:.\Generated_Source\PSoC4/UART_UART.c ****     *
 377:.\Generated_Source\PSoC4/UART_UART.c ****     *******************************************************************************/
 378:.\Generated_Source\PSoC4/UART_UART.c ****     uint32 UART_UartGetChar(void)
 379:.\Generated_Source\PSoC4/UART_UART.c ****     {
 220              		.loc 1 379 0
 221              		.cfi_startproc
 222              	.LVL12:
ARM GAS  C:\Users\Pablo\AppData\Local\Temp\cckirm5c.s 			page 12


 223 0000 08B5     		push	{r3, lr}
 224              		.cfi_def_cfa_offset 8
 225              		.cfi_offset 3, -8
 226              		.cfi_offset 14, -4
 380:.\Generated_Source\PSoC4/UART_UART.c ****         uint32 rxData = 0u;
 381:.\Generated_Source\PSoC4/UART_UART.c **** 
 382:.\Generated_Source\PSoC4/UART_UART.c ****         /* Reads data only if there is data to read */
 383:.\Generated_Source\PSoC4/UART_UART.c ****         if(0u != UART_SpiUartGetRxBufferSize())
 227              		.loc 1 383 0
 228 0002 FFF7FEFF 		bl	UART_SpiUartGetRxBufferSize
 229              	.LVL13:
 230 0006 031C     		mov	r3, r0
 380:.\Generated_Source\PSoC4/UART_UART.c ****         uint32 rxData = 0u;
 231              		.loc 1 380 0
 232 0008 0020     		mov	r0, #0
 233              		.loc 1 383 0
 234 000a 8342     		cmp	r3, r0
 235 000c 01D0     		beq	.L11
 384:.\Generated_Source\PSoC4/UART_UART.c ****         {
 385:.\Generated_Source\PSoC4/UART_UART.c ****             rxData = UART_SpiUartReadRxData();
 236              		.loc 1 385 0
 237 000e FFF7FEFF 		bl	UART_SpiUartReadRxData
 238              	.LVL14:
 239              	.L11:
 386:.\Generated_Source\PSoC4/UART_UART.c ****         }
 387:.\Generated_Source\PSoC4/UART_UART.c **** 
 388:.\Generated_Source\PSoC4/UART_UART.c ****         if(UART_CHECK_INTR_RX(UART_INTR_RX_ERR))
 240              		.loc 1 388 0
 241 0012 044B     		ldr	r3, .L19
 242 0014 D822     		mov	r2, #216
 243 0016 1968     		ldr	r1, [r3]
 244 0018 9200     		lsl	r2, r2, #2
 245 001a 1142     		tst	r1, r2
 246 001c 01D0     		beq	.L12
 247              	.LVL15:
 389:.\Generated_Source\PSoC4/UART_UART.c ****         {
 390:.\Generated_Source\PSoC4/UART_UART.c ****             rxData = 0u; /* Error occurred: returns zero */
 391:.\Generated_Source\PSoC4/UART_UART.c ****             UART_ClearRxInterruptSource(UART_INTR_RX_ERR);
 248              		.loc 1 391 0
 249 001e 1A60     		str	r2, [r3]
 390:.\Generated_Source\PSoC4/UART_UART.c ****             rxData = 0u; /* Error occurred: returns zero */
 250              		.loc 1 390 0
 251 0020 0020     		mov	r0, #0
 252              	.LVL16:
 253              	.L12:
 392:.\Generated_Source\PSoC4/UART_UART.c ****         }
 393:.\Generated_Source\PSoC4/UART_UART.c **** 
 394:.\Generated_Source\PSoC4/UART_UART.c ****         return(rxData);
 395:.\Generated_Source\PSoC4/UART_UART.c ****     }
 254              		.loc 1 395 0
 255              		@ sp needed
 256 0022 08BD     		pop	{r3, pc}
 257              	.L20:
 258              		.align	2
 259              	.L19:
 260 0024 C00F0640 		.word	1074139072
 261              		.cfi_endproc
ARM GAS  C:\Users\Pablo\AppData\Local\Temp\cckirm5c.s 			page 13


 262              	.LFE3:
 263              		.size	UART_UartGetChar, .-UART_UartGetChar
 264              		.section	.text.UART_UartGetByte,"ax",%progbits
 265              		.align	1
 266              		.global	UART_UartGetByte
 267              		.code	16
 268              		.thumb_func
 269              		.type	UART_UartGetByte, %function
 270              	UART_UartGetByte:
 271              	.LFB4:
 396:.\Generated_Source\PSoC4/UART_UART.c **** 
 397:.\Generated_Source\PSoC4/UART_UART.c **** 
 398:.\Generated_Source\PSoC4/UART_UART.c ****     /*******************************************************************************
 399:.\Generated_Source\PSoC4/UART_UART.c ****     * Function Name: UART_UartGetByte
 400:.\Generated_Source\PSoC4/UART_UART.c ****     ********************************************************************************
 401:.\Generated_Source\PSoC4/UART_UART.c ****     *
 402:.\Generated_Source\PSoC4/UART_UART.c ****     * Summary:
 403:.\Generated_Source\PSoC4/UART_UART.c ****     *  Retrieves the next data element from the receive buffer, returns the
 404:.\Generated_Source\PSoC4/UART_UART.c ****     *  received byte and error condition.
 405:.\Generated_Source\PSoC4/UART_UART.c ****     *   - The RX software buffer is disabled: returns the data element retrieved
 406:.\Generated_Source\PSoC4/UART_UART.c ****     *     from the RX FIFO. Undefined data will be returned if the RX FIFO is
 407:.\Generated_Source\PSoC4/UART_UART.c ****     *     empty.
 408:.\Generated_Source\PSoC4/UART_UART.c ****     *   - The RX software buffer is enabled: returns data element from the
 409:.\Generated_Source\PSoC4/UART_UART.c ****     *     software receive buffer.
 410:.\Generated_Source\PSoC4/UART_UART.c ****     *
 411:.\Generated_Source\PSoC4/UART_UART.c ****     * Parameters:
 412:.\Generated_Source\PSoC4/UART_UART.c ****     *  None
 413:.\Generated_Source\PSoC4/UART_UART.c ****     *
 414:.\Generated_Source\PSoC4/UART_UART.c ****     * Return:
 415:.\Generated_Source\PSoC4/UART_UART.c ****     *  Bits 7-0 contain the next data element from the receive buffer and
 416:.\Generated_Source\PSoC4/UART_UART.c ****     *  other bits contain the error condition.
 417:.\Generated_Source\PSoC4/UART_UART.c ****     *
 418:.\Generated_Source\PSoC4/UART_UART.c ****     * Side Effects:
 419:.\Generated_Source\PSoC4/UART_UART.c ****     *  The errors bits may not correspond with reading characters due to RX FIFO
 420:.\Generated_Source\PSoC4/UART_UART.c ****     *  and software buffer usage.
 421:.\Generated_Source\PSoC4/UART_UART.c ****     *  RX software buffer is disabled: The internal software buffer overflow
 422:.\Generated_Source\PSoC4/UART_UART.c ****     *  is not returned as status by this function.
 423:.\Generated_Source\PSoC4/UART_UART.c ****     *  Check SCB_rxBufferOverflow to capture that error condition.
 424:.\Generated_Source\PSoC4/UART_UART.c ****     *
 425:.\Generated_Source\PSoC4/UART_UART.c ****     *******************************************************************************/
 426:.\Generated_Source\PSoC4/UART_UART.c ****     uint32 UART_UartGetByte(void)
 427:.\Generated_Source\PSoC4/UART_UART.c ****     {
 272              		.loc 1 427 0
 273              		.cfi_startproc
 274 0000 10B5     		push	{r4, lr}
 275              		.cfi_def_cfa_offset 8
 276              		.cfi_offset 4, -8
 277              		.cfi_offset 14, -4
 428:.\Generated_Source\PSoC4/UART_UART.c ****         uint32 rxData;
 429:.\Generated_Source\PSoC4/UART_UART.c ****         uint32 tmpStatus;
 430:.\Generated_Source\PSoC4/UART_UART.c ****         uint32 intSourceMask;
 431:.\Generated_Source\PSoC4/UART_UART.c **** 
 432:.\Generated_Source\PSoC4/UART_UART.c ****         intSourceMask = UART_SpiUartDisableIntRx();
 278              		.loc 1 432 0
 279 0002 FFF7FEFF 		bl	UART_SpiUartDisableIntRx
 280              	.LVL17:
 281 0006 041C     		mov	r4, r0
ARM GAS  C:\Users\Pablo\AppData\Local\Temp\cckirm5c.s 			page 14


 282              	.LVL18:
 433:.\Generated_Source\PSoC4/UART_UART.c **** 
 434:.\Generated_Source\PSoC4/UART_UART.c ****         if(0u != UART_SpiUartGetRxBufferSize())
 283              		.loc 1 434 0
 284 0008 FFF7FEFF 		bl	UART_SpiUartGetRxBufferSize
 285              	.LVL19:
 286 000c 094B     		ldr	r3, .L24
 287 000e 0028     		cmp	r0, #0
 288 0010 03D0     		beq	.L22
 435:.\Generated_Source\PSoC4/UART_UART.c ****         {
 436:.\Generated_Source\PSoC4/UART_UART.c ****             /* Enables interrupt to receive more bytes: at least one byte is in
 437:.\Generated_Source\PSoC4/UART_UART.c ****             * buffer.
 438:.\Generated_Source\PSoC4/UART_UART.c ****             */
 439:.\Generated_Source\PSoC4/UART_UART.c ****             UART_SpiUartEnableIntRx(intSourceMask);
 289              		.loc 1 439 0
 290 0012 1C60     		str	r4, [r3]
 440:.\Generated_Source\PSoC4/UART_UART.c **** 
 441:.\Generated_Source\PSoC4/UART_UART.c ****             /* Get received byte */
 442:.\Generated_Source\PSoC4/UART_UART.c ****             rxData = UART_SpiUartReadRxData();
 291              		.loc 1 442 0
 292 0014 FFF7FEFF 		bl	UART_SpiUartReadRxData
 293              	.LVL20:
 294 0018 02E0     		b	.L23
 295              	.LVL21:
 296              	.L22:
 443:.\Generated_Source\PSoC4/UART_UART.c ****         }
 444:.\Generated_Source\PSoC4/UART_UART.c ****         else
 445:.\Generated_Source\PSoC4/UART_UART.c ****         {
 446:.\Generated_Source\PSoC4/UART_UART.c ****             /* Reads a byte directly from RX FIFO: underflow is raised in the case
 447:.\Generated_Source\PSoC4/UART_UART.c ****             * of empty. Otherwise the first received byte will be read.
 448:.\Generated_Source\PSoC4/UART_UART.c ****             */
 449:.\Generated_Source\PSoC4/UART_UART.c ****             rxData = UART_RX_FIFO_RD_REG;
 297              		.loc 1 449 0
 298 001a 074A     		ldr	r2, .L24+4
 299 001c 1068     		ldr	r0, [r2]
 300              	.LVL22:
 450:.\Generated_Source\PSoC4/UART_UART.c **** 
 451:.\Generated_Source\PSoC4/UART_UART.c ****             /* Enables interrupt to receive more bytes.
 452:.\Generated_Source\PSoC4/UART_UART.c ****             * The RX_NOT_EMPTY interrupt is cleared by the interrupt routine
 453:.\Generated_Source\PSoC4/UART_UART.c ****             * in case the byte was received and read by code above.
 454:.\Generated_Source\PSoC4/UART_UART.c ****             */
 455:.\Generated_Source\PSoC4/UART_UART.c ****             UART_SpiUartEnableIntRx(intSourceMask);
 301              		.loc 1 455 0
 302 001e 1C60     		str	r4, [r3]
 303              	.L23:
 456:.\Generated_Source\PSoC4/UART_UART.c ****         }
 457:.\Generated_Source\PSoC4/UART_UART.c **** 
 458:.\Generated_Source\PSoC4/UART_UART.c ****         /* Get and clear RX error mask */
 459:.\Generated_Source\PSoC4/UART_UART.c ****         tmpStatus = (UART_GetRxInterruptSource() & UART_INTR_RX_ERR);
 304              		.loc 1 459 0
 305 0020 064A     		ldr	r2, .L24+8
 460:.\Generated_Source\PSoC4/UART_UART.c ****         UART_ClearRxInterruptSource(UART_INTR_RX_ERR);
 306              		.loc 1 460 0
 307 0022 D823     		mov	r3, #216
 459:.\Generated_Source\PSoC4/UART_UART.c ****         tmpStatus = (UART_GetRxInterruptSource() & UART_INTR_RX_ERR);
 308              		.loc 1 459 0
 309 0024 1168     		ldr	r1, [r2]
ARM GAS  C:\Users\Pablo\AppData\Local\Temp\cckirm5c.s 			page 15


 310              	.LVL23:
 311              		.loc 1 460 0
 312 0026 9B00     		lsl	r3, r3, #2
 313 0028 1360     		str	r3, [r2]
 314              	.LVL24:
 459:.\Generated_Source\PSoC4/UART_UART.c ****         tmpStatus = (UART_GetRxInterruptSource() & UART_INTR_RX_ERR);
 315              		.loc 1 459 0
 316 002a 0B40     		and	r3, r1
 461:.\Generated_Source\PSoC4/UART_UART.c **** 
 462:.\Generated_Source\PSoC4/UART_UART.c ****         /* Puts together data and error status:
 463:.\Generated_Source\PSoC4/UART_UART.c ****         * MP mode and accept address: 9th bit is set to notify mark.
 464:.\Generated_Source\PSoC4/UART_UART.c ****         */
 465:.\Generated_Source\PSoC4/UART_UART.c ****         rxData |= ((uint32) (tmpStatus << 8u));
 317              		.loc 1 465 0
 318 002c 1B02     		lsl	r3, r3, #8
 319 002e 1843     		orr	r0, r3
 320              	.LVL25:
 466:.\Generated_Source\PSoC4/UART_UART.c **** 
 467:.\Generated_Source\PSoC4/UART_UART.c ****         return(rxData);
 468:.\Generated_Source\PSoC4/UART_UART.c ****     }
 321              		.loc 1 468 0
 322              		@ sp needed
 323              	.LVL26:
 324 0030 10BD     		pop	{r4, pc}
 325              	.L25:
 326 0032 C046     		.align	2
 327              	.L24:
 328 0034 C80F0640 		.word	1074139080
 329 0038 40030640 		.word	1074135872
 330 003c C00F0640 		.word	1074139072
 331              		.cfi_endproc
 332              	.LFE4:
 333              		.size	UART_UartGetByte, .-UART_UartGetByte
 334              		.section	.text.UART_UartPutString,"ax",%progbits
 335              		.align	1
 336              		.global	UART_UartPutString
 337              		.code	16
 338              		.thumb_func
 339              		.type	UART_UartPutString, %function
 340              	UART_UartPutString:
 341              	.LFB5:
 469:.\Generated_Source\PSoC4/UART_UART.c **** 
 470:.\Generated_Source\PSoC4/UART_UART.c **** 
 471:.\Generated_Source\PSoC4/UART_UART.c ****     #if !(UART_CY_SCBIP_V0 || UART_CY_SCBIP_V1)
 472:.\Generated_Source\PSoC4/UART_UART.c ****         /*******************************************************************************
 473:.\Generated_Source\PSoC4/UART_UART.c ****         * Function Name: UART_UartSetRtsPolarity
 474:.\Generated_Source\PSoC4/UART_UART.c ****         ********************************************************************************
 475:.\Generated_Source\PSoC4/UART_UART.c ****         *
 476:.\Generated_Source\PSoC4/UART_UART.c ****         * Summary:
 477:.\Generated_Source\PSoC4/UART_UART.c ****         *  Sets active polarity of RTS output signal.
 478:.\Generated_Source\PSoC4/UART_UART.c ****         *
 479:.\Generated_Source\PSoC4/UART_UART.c ****         * Parameters:
 480:.\Generated_Source\PSoC4/UART_UART.c ****         *  polarity: Active polarity of RTS output signal.
 481:.\Generated_Source\PSoC4/UART_UART.c ****         *   UART_UART_RTS_ACTIVE_LOW  - RTS signal is active low.
 482:.\Generated_Source\PSoC4/UART_UART.c ****         *   UART_UART_RTS_ACTIVE_HIGH - RTS signal is active high.
 483:.\Generated_Source\PSoC4/UART_UART.c ****         *
 484:.\Generated_Source\PSoC4/UART_UART.c ****         * Return:
ARM GAS  C:\Users\Pablo\AppData\Local\Temp\cckirm5c.s 			page 16


 485:.\Generated_Source\PSoC4/UART_UART.c ****         *  None
 486:.\Generated_Source\PSoC4/UART_UART.c ****         *
 487:.\Generated_Source\PSoC4/UART_UART.c ****         *******************************************************************************/
 488:.\Generated_Source\PSoC4/UART_UART.c ****         void UART_UartSetRtsPolarity(uint32 polarity)
 489:.\Generated_Source\PSoC4/UART_UART.c ****         {
 490:.\Generated_Source\PSoC4/UART_UART.c ****             if(0u != polarity)
 491:.\Generated_Source\PSoC4/UART_UART.c ****             {
 492:.\Generated_Source\PSoC4/UART_UART.c ****                 UART_UART_FLOW_CTRL_REG |= (uint32)  UART_UART_FLOW_CTRL_RTS_POLARITY;
 493:.\Generated_Source\PSoC4/UART_UART.c ****             }
 494:.\Generated_Source\PSoC4/UART_UART.c ****             else
 495:.\Generated_Source\PSoC4/UART_UART.c ****             {
 496:.\Generated_Source\PSoC4/UART_UART.c ****                 UART_UART_FLOW_CTRL_REG &= (uint32) ~UART_UART_FLOW_CTRL_RTS_POLARITY;
 497:.\Generated_Source\PSoC4/UART_UART.c ****             }
 498:.\Generated_Source\PSoC4/UART_UART.c ****         }
 499:.\Generated_Source\PSoC4/UART_UART.c **** 
 500:.\Generated_Source\PSoC4/UART_UART.c **** 
 501:.\Generated_Source\PSoC4/UART_UART.c ****         /*******************************************************************************
 502:.\Generated_Source\PSoC4/UART_UART.c ****         * Function Name: UART_UartSetRtsFifoLevel
 503:.\Generated_Source\PSoC4/UART_UART.c ****         ********************************************************************************
 504:.\Generated_Source\PSoC4/UART_UART.c ****         *
 505:.\Generated_Source\PSoC4/UART_UART.c ****         * Summary:
 506:.\Generated_Source\PSoC4/UART_UART.c ****         *  Sets level in the RX FIFO for RTS signal activation.
 507:.\Generated_Source\PSoC4/UART_UART.c ****         *  While the RX FIFO has fewer entries than the RX FIFO level the RTS signal
 508:.\Generated_Source\PSoC4/UART_UART.c ****         *  remains active, otherwise the RTS signal becomes inactive.
 509:.\Generated_Source\PSoC4/UART_UART.c ****         *
 510:.\Generated_Source\PSoC4/UART_UART.c ****         * Parameters:
 511:.\Generated_Source\PSoC4/UART_UART.c ****         *  level: Level in the RX FIFO for RTS signal activation.
 512:.\Generated_Source\PSoC4/UART_UART.c ****         *         The range of valid level values is between 0 and RX FIFO depth - 1.
 513:.\Generated_Source\PSoC4/UART_UART.c ****         *         Setting level value to 0 disables RTS signal activation.
 514:.\Generated_Source\PSoC4/UART_UART.c ****         *
 515:.\Generated_Source\PSoC4/UART_UART.c ****         * Return:
 516:.\Generated_Source\PSoC4/UART_UART.c ****         *  None
 517:.\Generated_Source\PSoC4/UART_UART.c ****         *
 518:.\Generated_Source\PSoC4/UART_UART.c ****         *******************************************************************************/
 519:.\Generated_Source\PSoC4/UART_UART.c ****         void UART_UartSetRtsFifoLevel(uint32 level)
 520:.\Generated_Source\PSoC4/UART_UART.c ****         {
 521:.\Generated_Source\PSoC4/UART_UART.c ****             uint32 uartFlowCtrl;
 522:.\Generated_Source\PSoC4/UART_UART.c **** 
 523:.\Generated_Source\PSoC4/UART_UART.c ****             uartFlowCtrl = UART_UART_FLOW_CTRL_REG;
 524:.\Generated_Source\PSoC4/UART_UART.c **** 
 525:.\Generated_Source\PSoC4/UART_UART.c ****             uartFlowCtrl &= ((uint32) ~UART_UART_FLOW_CTRL_TRIGGER_LEVEL_MASK); /* Clear level mask
 526:.\Generated_Source\PSoC4/UART_UART.c ****             uartFlowCtrl |= ((uint32) (UART_UART_FLOW_CTRL_TRIGGER_LEVEL_MASK & level));
 527:.\Generated_Source\PSoC4/UART_UART.c **** 
 528:.\Generated_Source\PSoC4/UART_UART.c ****             UART_UART_FLOW_CTRL_REG = uartFlowCtrl;
 529:.\Generated_Source\PSoC4/UART_UART.c ****         }
 530:.\Generated_Source\PSoC4/UART_UART.c ****     #endif /* !(UART_CY_SCBIP_V0 || UART_CY_SCBIP_V1) */
 531:.\Generated_Source\PSoC4/UART_UART.c **** 
 532:.\Generated_Source\PSoC4/UART_UART.c **** #endif /* (UART_UART_RX_DIRECTION) */
 533:.\Generated_Source\PSoC4/UART_UART.c **** 
 534:.\Generated_Source\PSoC4/UART_UART.c **** 
 535:.\Generated_Source\PSoC4/UART_UART.c **** #if(UART_UART_TX_DIRECTION)
 536:.\Generated_Source\PSoC4/UART_UART.c ****     /*******************************************************************************
 537:.\Generated_Source\PSoC4/UART_UART.c ****     * Function Name: UART_UartPutString
 538:.\Generated_Source\PSoC4/UART_UART.c ****     ********************************************************************************
 539:.\Generated_Source\PSoC4/UART_UART.c ****     *
 540:.\Generated_Source\PSoC4/UART_UART.c ****     * Summary:
 541:.\Generated_Source\PSoC4/UART_UART.c ****     *  Places a NULL terminated string in the transmit buffer to be sent at the
ARM GAS  C:\Users\Pablo\AppData\Local\Temp\cckirm5c.s 			page 17


 542:.\Generated_Source\PSoC4/UART_UART.c ****     *  next available bus time.
 543:.\Generated_Source\PSoC4/UART_UART.c ****     *  This function is blocking and waits until there is space available to put
 544:.\Generated_Source\PSoC4/UART_UART.c ****     *  all the requested data into the  transmit buffer.
 545:.\Generated_Source\PSoC4/UART_UART.c ****     *
 546:.\Generated_Source\PSoC4/UART_UART.c ****     * Parameters:
 547:.\Generated_Source\PSoC4/UART_UART.c ****     *  string: pointer to the null terminated string array to be placed in the
 548:.\Generated_Source\PSoC4/UART_UART.c ****     *          transmit buffer.
 549:.\Generated_Source\PSoC4/UART_UART.c ****     *
 550:.\Generated_Source\PSoC4/UART_UART.c ****     * Return:
 551:.\Generated_Source\PSoC4/UART_UART.c ****     *  None
 552:.\Generated_Source\PSoC4/UART_UART.c ****     *
 553:.\Generated_Source\PSoC4/UART_UART.c ****     *******************************************************************************/
 554:.\Generated_Source\PSoC4/UART_UART.c ****     void UART_UartPutString(const char8 string[])
 555:.\Generated_Source\PSoC4/UART_UART.c ****     {
 342              		.loc 1 555 0
 343              		.cfi_startproc
 344              	.LVL27:
 345 0000 10B5     		push	{r4, lr}
 346              		.cfi_def_cfa_offset 8
 347              		.cfi_offset 4, -8
 348              		.cfi_offset 14, -4
 349 0002 041C     		mov	r4, r0
 350              	.LVL28:
 351              	.L27:
 352 0004 0134     		add	r4, r4, #1
 353              	.LVL29:
 354 0006 631E     		sub	r3, r4, #1
 556:.\Generated_Source\PSoC4/UART_UART.c ****         uint32 bufIndex;
 557:.\Generated_Source\PSoC4/UART_UART.c **** 
 558:.\Generated_Source\PSoC4/UART_UART.c ****         bufIndex = 0u;
 559:.\Generated_Source\PSoC4/UART_UART.c **** 
 560:.\Generated_Source\PSoC4/UART_UART.c ****         /* Blocks the control flow until all data has been sent */
 561:.\Generated_Source\PSoC4/UART_UART.c ****         while(string[bufIndex] != ((char8) 0))
 355              		.loc 1 561 0 discriminator 1
 356 0008 1878     		ldrb	r0, [r3]
 357 000a 0028     		cmp	r0, #0
 358 000c 02D0     		beq	.L29
 562:.\Generated_Source\PSoC4/UART_UART.c ****         {
 563:.\Generated_Source\PSoC4/UART_UART.c ****             UART_UartPutChar((uint32) string[bufIndex]);
 359              		.loc 1 563 0
 360 000e FFF7FEFF 		bl	UART_SpiUartWriteTxData
 361              	.LVL30:
 362 0012 F7E7     		b	.L27
 363              	.LVL31:
 364              	.L29:
 564:.\Generated_Source\PSoC4/UART_UART.c ****             bufIndex++;
 565:.\Generated_Source\PSoC4/UART_UART.c ****         }
 566:.\Generated_Source\PSoC4/UART_UART.c ****     }
 365              		.loc 1 566 0
 366              		@ sp needed
 367              	.LVL32:
 368 0014 10BD     		pop	{r4, pc}
 369              		.cfi_endproc
 370              	.LFE5:
 371              		.size	UART_UartPutString, .-UART_UartPutString
 372              		.section	.text.UART_UartPutCRLF,"ax",%progbits
 373              		.align	1
ARM GAS  C:\Users\Pablo\AppData\Local\Temp\cckirm5c.s 			page 18


 374              		.global	UART_UartPutCRLF
 375              		.code	16
 376              		.thumb_func
 377              		.type	UART_UartPutCRLF, %function
 378              	UART_UartPutCRLF:
 379              	.LFB6:
 567:.\Generated_Source\PSoC4/UART_UART.c **** 
 568:.\Generated_Source\PSoC4/UART_UART.c **** 
 569:.\Generated_Source\PSoC4/UART_UART.c ****     /*******************************************************************************
 570:.\Generated_Source\PSoC4/UART_UART.c ****     * Function Name: UART_UartPutCRLF
 571:.\Generated_Source\PSoC4/UART_UART.c ****     ********************************************************************************
 572:.\Generated_Source\PSoC4/UART_UART.c ****     *
 573:.\Generated_Source\PSoC4/UART_UART.c ****     * Summary:
 574:.\Generated_Source\PSoC4/UART_UART.c ****     *  Places a byte of data followed by a carriage return (0x0D) and
 575:.\Generated_Source\PSoC4/UART_UART.c ****     *  line feed (0x0A) into the transmit buffer.
 576:.\Generated_Source\PSoC4/UART_UART.c ****     *  This function is blocking and waits until there is space available to put
 577:.\Generated_Source\PSoC4/UART_UART.c ****     *  all the requested data into the  transmit buffer.
 578:.\Generated_Source\PSoC4/UART_UART.c ****     *
 579:.\Generated_Source\PSoC4/UART_UART.c ****     * Parameters:
 580:.\Generated_Source\PSoC4/UART_UART.c ****     *  txDataByte : the data to be transmitted.
 581:.\Generated_Source\PSoC4/UART_UART.c ****     *
 582:.\Generated_Source\PSoC4/UART_UART.c ****     * Return:
 583:.\Generated_Source\PSoC4/UART_UART.c ****     *  None
 584:.\Generated_Source\PSoC4/UART_UART.c ****     *
 585:.\Generated_Source\PSoC4/UART_UART.c ****     *******************************************************************************/
 586:.\Generated_Source\PSoC4/UART_UART.c ****     void UART_UartPutCRLF(uint32 txDataByte)
 587:.\Generated_Source\PSoC4/UART_UART.c ****     {
 380              		.loc 1 587 0
 381              		.cfi_startproc
 382              	.LVL33:
 383 0000 08B5     		push	{r3, lr}
 384              		.cfi_def_cfa_offset 8
 385              		.cfi_offset 3, -8
 386              		.cfi_offset 14, -4
 588:.\Generated_Source\PSoC4/UART_UART.c ****         UART_UartPutChar(txDataByte);  /* Blocks control flow until all data has been sent */
 387              		.loc 1 588 0
 388 0002 FFF7FEFF 		bl	UART_SpiUartWriteTxData
 389              	.LVL34:
 589:.\Generated_Source\PSoC4/UART_UART.c ****         UART_UartPutChar(0x0Du);       /* Blocks control flow until all data has been sent */
 390              		.loc 1 589 0
 391 0006 0D20     		mov	r0, #13
 392 0008 FFF7FEFF 		bl	UART_SpiUartWriteTxData
 393              	.LVL35:
 590:.\Generated_Source\PSoC4/UART_UART.c ****         UART_UartPutChar(0x0Au);       /* Blocks control flow until all data has been sent */
 394              		.loc 1 590 0
 395 000c 0A20     		mov	r0, #10
 396 000e FFF7FEFF 		bl	UART_SpiUartWriteTxData
 397              	.LVL36:
 591:.\Generated_Source\PSoC4/UART_UART.c ****     }
 398              		.loc 1 591 0
 399              		@ sp needed
 400 0012 08BD     		pop	{r3, pc}
 401              		.cfi_endproc
 402              	.LFE6:
 403              		.size	UART_UartPutCRLF, .-UART_UartPutCRLF
 404              		.text
 405              	.Letext0:
ARM GAS  C:\Users\Pablo\AppData\Local\Temp\cckirm5c.s 			page 19


 406              		.file 2 ".\\Generated_Source\\PSoC4/cytypes.h"
 407              		.file 3 ".\\Generated_Source\\PSoC4/CyLib.h"
 408              		.file 4 ".\\Generated_Source\\PSoC4\\UART_SPI_UART.h"
 409              		.file 5 ".\\Generated_Source\\PSoC4\\UART_SPI_UART_PVT.h"